{
   <insert_a_suppression_name_here>
   Memcheck:Leak
   match-leak-kinds: possible
   fun:realloc
   fun:read_xfb
   fun:deserialize_glsl_program
   fun:_Z34shader_cache_read_program_metadataP10gl_contextP17gl_shader_program
   fun:_Z12link_shadersP10gl_contextP17gl_shader_program
   fun:st_link_shader
   fun:link_program
   fun:link_program_error.part.0
   fun:_mesa_unmarshal_LinkProgram
   fun:glthread_unmarshal_batch
   fun:util_queue_thread_func
   fun:impl_thrd_routine
   fun:start_thread
   fun:clone
}
{
   <insert_a_suppression_name_here>
   Memcheck:Leak
   match-leak-kinds: reachable
   fun:malloc
   fun:UnknownInlinedFun
   fun:_XlcDefaultMapModifiers
   fun:XSetLocaleModifiers
   fun:X11_InitKeyboard
   fun:X11_VideoInit.lto_priv.0
   fun:SDL_VideoInit_REAL
   fun:SDL_InitSubSystem_REAL.part.0
   fun:engine.sdl_init
   fun:main.main
   fun:main
}
{
   <insert_a_suppression_name_here>
   Memcheck:Leak
   match-leak-kinds: possible
   fun:malloc
   fun:strdup
   fun:_mesa_init_program
   fun:init_attrib_groups
   fun:_mesa_initialize_context
   fun:st_create_context
   fun:st_api_create_context
   fun:dri_create_context
   fun:driCreateContextAttribs
   fun:dri3_create_context_attribs
   fun:dri_common_create_context
   fun:CreateContext
   fun:glXCreateContext
}
{
   <insert_a_suppression_name_here>
   Memcheck:Leak
   match-leak-kinds: reachable
   fun:malloc
   fun:strdup
   fun:_XlcCreateLC
   fun:_XlcDefaultLoader
   fun:_XOpenLC
   fun:XSetLocaleModifiers
   fun:X11_InitKeyboard
   fun:X11_VideoInit.lto_priv.0
   fun:SDL_VideoInit_REAL
   fun:SDL_InitSubSystem_REAL.part.0
   fun:engine.sdl_init
   fun:main.main
}
{
   <insert_a_suppression_name_here>
   Memcheck:Leak
   match-leak-kinds: reachable
   fun:malloc
   fun:strdup
   fun:_XlcResolveLocaleName
   fun:initialize.lto_priv.1
   fun:initialize.lto_priv.0
   fun:_XlcCreateLC
   fun:_XlcDefaultLoader
   fun:_XOpenLC
   fun:XSetLocaleModifiers
   fun:X11_InitKeyboard
   fun:X11_VideoInit.lto_priv.0
   fun:SDL_VideoInit_REAL
}
{
   <insert_a_suppression_name_here>
   Memcheck:Leak
   match-leak-kinds: possible
   fun:calloc
   fun:safe_calloc
   fun:setUniverse
   fun:_ZN4llvm14SpillPlacement20runOnMachineFunctionERNS_15MachineFunctionE
   fun:_ZN4llvm19MachineFunctionPass13runOnFunctionERNS_8FunctionE.part.0
   fun:_ZN4llvm13FPPassManager13runOnFunctionERNS_8FunctionE
   fun:RunPassOnSCC
   fun:RunAllPassesOnSCC
   fun:_ZN12_GLOBAL__N_113CGPassManager11runOnModuleERN4llvm6ModuleE
   fun:runOnModule
   fun:_ZN4llvm6legacy15PassManagerImpl3runERNS_6ModuleE
   fun:ac_compile_module_to_elf
   fun:si_compile_llvm
   fun:si_llvm_build_shader_part
   fun:si_get_shader_part.constprop.0
   fun:si_shader_select_ps_parts
   fun:si_create_shader_variant
   fun:_ZL23si_build_shader_variantP9si_shaderib
}
{
   <insert_a_suppression_name_here>
   Memcheck:Leak
   match-leak-kinds: reachable
   fun:_Znwm
   fun:allocate
   fun:allocate
   fun:_M_allocate
   fun:_M_allocate_and_copy<__gnu_cxx::__normal_iterator<const std::pair<short unsigned int, llvm::LegacyLegalizeActions::LegacyLegalizeAction>*, std::vector<std::pair<short unsigned int, llvm::LegacyLegalizeActions::LegacyLegalizeAction> > > >
   fun:_ZNSt6vectorISt4pairItN4llvm21LegacyLegalizeActions20LegacyLegalizeActionEESaIS4_EEaSERKS6_.isra.0
   fun:setActions
   fun:setScalarAction
   fun:_ZN4llvm19LegacyLegalizerInfoC1Ev
   fun:LegalizerInfo
   fun:_ZN4llvm19AMDGPULegalizerInfoC1ERKNS_12GCNSubtargetERKNS_16GCNTargetMachineE
   fun:_ZN4llvm12GCNSubtargetC1ERKNS_6TripleENS_9StringRefES4_RKNS_16GCNTargetMachineE
   fun:make_unique<llvm::GCNSubtarget, const llvm::Triple&, llvm::StringRef&, llvm::StringRef&, const llvm::GCNTargetMachine&>
   fun:_ZNK4llvm16GCNTargetMachine16getSubtargetImplERKNS_8FunctionE
   fun:_ZN12_GLOBAL__N_127ExpandLargeDivRemLegacyPass13runOnFunctionERN4llvm8FunctionE
   fun:_ZN4llvm13FPPassManager13runOnFunctionERNS_8FunctionE
   fun:_ZN4llvm13FPPassManager11runOnModuleERNS_6ModuleE
   fun:runOnModule
   fun:_ZN4llvm6legacy15PassManagerImpl3runERNS_6ModuleE
   fun:ac_compile_module_to_elf
   fun:si_compile_llvm
}
{
   <insert_a_suppression_name_here>
   Memcheck:Leak
   match-leak-kinds: reachable
   fun:_Znwm
   fun:allocate
   fun:allocate
   fun:_M_allocate
   fun:_M_allocate_and_copy<__gnu_cxx::__normal_iterator<const std::pair<short unsigned int, llvm::LegacyLegalizeActions::LegacyLegalizeAction>*, std::vector<std::pair<short unsigned int, llvm::LegacyLegalizeActions::LegacyLegalizeAction> > > >
   fun:_ZNSt6vectorISt4pairItN4llvm21LegacyLegalizeActions20LegacyLegalizeActionEESaIS4_EEaSERKS6_.isra.0
   fun:setActions
   fun:setScalarAction
   fun:_ZN4llvm19LegacyLegalizerInfoC1Ev
   fun:LegalizerInfo
   fun:_ZN4llvm19AMDGPULegalizerInfoC1ERKNS_12GCNSubtargetERKNS_16GCNTargetMachineE
   fun:_ZN4llvm12GCNSubtargetC1ERKNS_6TripleENS_9StringRefES4_RKNS_16GCNTargetMachineE
   fun:make_unique<llvm::GCNSubtarget, const llvm::Triple&, llvm::StringRef&, llvm::StringRef&, const llvm::GCNTargetMachine&>
   fun:_ZNK4llvm16GCNTargetMachine16getSubtargetImplERKNS_8FunctionE
   fun:getSubtarget<llvm::GCNSubtarget>
   fun:_ZN4llvm16AMDGPUAsmPrinter18initializeTargetIDERKNS_6ModuleE
   fun:_ZN4llvm16AMDGPUAsmPrinter18initTargetStreamerERNS_6ModuleE
   fun:_ZN4llvm16AMDGPUAsmPrinter20runOnMachineFunctionERNS_15MachineFunctionE
   fun:_ZN4llvm19MachineFunctionPass13runOnFunctionERNS_8FunctionE.part.0
   fun:_ZN4llvm13FPPassManager13runOnFunctionERNS_8FunctionE
   fun:_ZN4llvm13FPPassManager11runOnModuleERNS_6ModuleE
}
{
   <insert_a_suppression_name_here>
   Memcheck:Leak
   match-leak-kinds: possible
   fun:malloc
   fun:init_1d_map
   fun:_mesa_init_eval
   fun:init_attrib_groups
   fun:_mesa_initialize_context
   fun:st_create_context
   fun:st_api_create_context
   fun:dri_create_context
   fun:driCreateContextAttribs
   fun:dri3_create_context_attribs
   fun:dri_common_create_context
   fun:CreateContext
   fun:glXCreateContext
   fun:glXCreateContext
}
{
   <insert_a_suppression_name_here>
   Memcheck:Leak
   match-leak-kinds: possible
   fun:malloc
   fun:init_2d_map
   fun:_mesa_init_eval
   fun:init_attrib_groups
   fun:_mesa_initialize_context
   fun:st_create_context
   fun:st_api_create_context
   fun:dri_create_context
   fun:driCreateContextAttribs
   fun:dri3_create_context_attribs
   fun:dri_common_create_context
   fun:CreateContext
   fun:glXCreateContext
   fun:glXCreateContext
}
{
   <insert_a_suppression_name_here>
   Memcheck:Leak
   match-leak-kinds: reachable
   fun:malloc
   fun:strdup
   fun:UnknownInlinedFun
   fun:initialize.lto_priv.1
   fun:initialize.lto_priv.0
   fun:_XlcCreateLC
   fun:_XlcUtf8Loader
   fun:_XOpenLC
   fun:XSetLocaleModifiers
   fun:X11_InitKeyboard
   fun:X11_VideoInit.lto_priv.0
   fun:SDL_VideoInit_REAL
   fun:SDL_InitSubSystem_REAL.part.0
}
{
   <insert_a_suppression_name_here>
   Memcheck:Leak
   match-leak-kinds: reachable
   fun:malloc
   fun:strdup
   fun:UnknownInlinedFun
   fun:initialize.lto_priv.1
   fun:initialize.lto_priv.0
   fun:_XlcCreateLC
   fun:_XlcDefaultLoader
   fun:_XOpenLC
   fun:XSetLocaleModifiers
   fun:X11_InitKeyboard
   fun:X11_VideoInit.lto_priv.0
   fun:SDL_VideoInit_REAL
   fun:SDL_InitSubSystem_REAL.part.0
}
{
   <insert_a_suppression_name_here>
   Memcheck:Leak
   match-leak-kinds: reachable
   fun:malloc
   fun:UnknownInlinedFun
   fun:_XimOpenIM
   fun:X11_InitKeyboard
   fun:X11_VideoInit.lto_priv.0
   fun:SDL_VideoInit_REAL
   fun:SDL_InitSubSystem_REAL.part.0
   fun:engine.sdl_init
   fun:main.main
   fun:main
}
{
   <insert_a_suppression_name_here>
   Memcheck:Leak
   match-leak-kinds: possible
   fun:_Znwm
   fun:allocate
   fun:allocate
   fun:_M_allocate
   fun:_M_realloc_append<llvm::PMDataManager* const&>
   fun:push_back
   fun:_ZN4llvm7PMStack4pushEPNS_13PMDataManagerE
   fun:FunctionPassManagerImpl
   fun:_ZN12_GLOBAL__N_113MPPassManager25addLowerLevelRequiredPassEPN4llvm4PassES3_
   fun:_ZN4llvm13PMDataManager3addEPNS_4PassEb
   fun:_ZN4llvm17PMTopLevelManager12schedulePassEPNS_4PassE
   fun:_ZN4llvm16TargetPassConfig7addPassEPNS_4PassE
   fun:_ZN4llvm16AMDGPUPassConfig11addIRPassesEv
   fun:_ZN4llvm16TargetPassConfig13addISelPassesEv
   fun:_ZL23addPassesToGenerateCodeRN4llvm17LLVMTargetMachineERNS_6legacy15PassManagerBaseEbRNS_28MachineModuleInfoWrapperPassE
   fun:_ZN4llvm17LLVMTargetMachine19addPassesToEmitFileERNS_6legacy15PassManagerBaseERNS_17raw_pwrite_streamEPS4_NS_15CodeGenFileTypeEbPNS_28MachineModuleInfoWrapperPassE
   fun:ac_create_llvm_passes
   fun:si_create_llvm_compiler
}
{
   <insert_a_suppression_name_here>
   Memcheck:Leak
   match-leak-kinds: possible
   fun:malloc
   fun:safe_malloc
   fun:_ZN4llvm15SmallVectorBaseIjE8grow_podEPvmm
   fun:grow_pod
   fun:grow
   fun:_ZN4llvm15SmallVectorImplIPKvEaSERKS3_.isra.0
   fun:SmallVector
   fun:AnalysisUsage
   fun:AUFoldingSetNode
   fun:_ZN4llvm17PMTopLevelManager17findAnalysisUsageEPNS_4PassE
   fun:_ZN4llvm17PMTopLevelManager12schedulePassEPNS_4PassE
   fun:_ZN4llvm16TargetPassConfig7addPassEPNS_4PassE
   fun:_ZN4llvm16AMDGPUPassConfig17addCodeGenPrepareEv
   fun:_ZN4llvm16TargetPassConfig13addISelPassesEv
   fun:_ZL23addPassesToGenerateCodeRN4llvm17LLVMTargetMachineERNS_6legacy15PassManagerBaseEbRNS_28MachineModuleInfoWrapperPassE
   fun:_ZN4llvm17LLVMTargetMachine19addPassesToEmitFileERNS_6legacy15PassManagerBaseERNS_17raw_pwrite_streamEPS4_NS_15CodeGenFileTypeEbPNS_28MachineModuleInfoWrapperPassE
   fun:ac_create_llvm_passes
   fun:si_create_llvm_compiler
}
{
   <insert_a_suppression_name_here>
   Memcheck:Leak
   match-leak-kinds: possible
   fun:malloc
   fun:safe_malloc
   fun:_ZN4llvm15SmallVectorBaseIjE8grow_podEPvmm
   fun:grow_pod
   fun:grow
   fun:_ZN4llvm15SmallVectorImplIPKvEaSERKS3_.isra.0
   fun:SmallVector
   fun:AnalysisUsage
   fun:AUFoldingSetNode
   fun:_ZN4llvm17PMTopLevelManager17findAnalysisUsageEPNS_4PassE
   fun:_ZN4llvm17PMTopLevelManager12schedulePassEPNS_4PassE
   fun:_ZN4llvm16TargetPassConfig7addPassEPNS_4PassE
   fun:addPass
   fun:_ZN4llvm16TargetPassConfig20addOptimizedRegAllocEv
   fun:_ZN4llvm16TargetPassConfig16addMachinePassesEv
   fun:_ZL23addPassesToGenerateCodeRN4llvm17LLVMTargetMachineERNS_6legacy15PassManagerBaseEbRNS_28MachineModuleInfoWrapperPassE
   fun:_ZN4llvm17LLVMTargetMachine19addPassesToEmitFileERNS_6legacy15PassManagerBaseERNS_17raw_pwrite_streamEPS4_NS_15CodeGenFileTypeEbPNS_28MachineModuleInfoWrapperPassE
   fun:ac_create_llvm_passes
   fun:si_create_llvm_compiler
}
{
   <insert_a_suppression_name_here>
   Memcheck:Leak
   match-leak-kinds: possible
   fun:malloc
   fun:safe_malloc
   fun:_ZN4llvm15SmallVectorBaseIjE8grow_podEPvmm
   fun:grow_pod
   fun:grow
   fun:_ZN4llvm15SmallVectorImplIPKvEaSERKS3_.isra.0
   fun:SmallVector
   fun:AnalysisUsage
   fun:AUFoldingSetNode
   fun:_ZN4llvm17PMTopLevelManager17findAnalysisUsageEPNS_4PassE
   fun:_ZN4llvm17PMTopLevelManager12schedulePassEPNS_4PassE
   fun:_ZN4llvm16TargetPassConfig7addPassEPNS_4PassE
   fun:_ZN4llvm16TargetPassConfig7addPassEPNS_4PassE
   fun:addPass
   fun:_ZN4llvm16TargetPassConfig20addOptimizedRegAllocEv
   fun:_ZN4llvm16TargetPassConfig16addMachinePassesEv
   fun:_ZL23addPassesToGenerateCodeRN4llvm17LLVMTargetMachineERNS_6legacy15PassManagerBaseEbRNS_28MachineModuleInfoWrapperPassE
   fun:_ZN4llvm17LLVMTargetMachine19addPassesToEmitFileERNS_6legacy15PassManagerBaseERNS_17raw_pwrite_streamEPS4_NS_15CodeGenFileTypeEbPNS_28MachineModuleInfoWrapperPassE
   fun:ac_create_llvm_passes
}
{
   <insert_a_suppression_name_here>
   Memcheck:Leak
   match-leak-kinds: possible
   fun:malloc
   fun:safe_malloc
   fun:_ZN4llvm15SmallVectorBaseIjE8grow_podEPvmm
   fun:grow_pod
   fun:grow
   fun:_ZN4llvm15SmallVectorImplIPKvEaSERKS3_.isra.0
   fun:SmallVector
   fun:AnalysisUsage
   fun:AUFoldingSetNode
   fun:_ZN4llvm17PMTopLevelManager17findAnalysisUsageEPNS_4PassE
   fun:_ZN4llvm17PMTopLevelManager12schedulePassEPNS_4PassE
   fun:_ZN4llvm16TargetPassConfig7addPassEPNS_4PassE
   fun:_ZN12_GLOBAL__N_113GCNPassConfig14addPreEmitPassEv
   fun:_ZN4llvm16TargetPassConfig16addMachinePassesEv
   fun:_ZL23addPassesToGenerateCodeRN4llvm17LLVMTargetMachineERNS_6legacy15PassManagerBaseEbRNS_28MachineModuleInfoWrapperPassE
   fun:_ZN4llvm17LLVMTargetMachine19addPassesToEmitFileERNS_6legacy15PassManagerBaseERNS_17raw_pwrite_streamEPS4_NS_15CodeGenFileTypeEbPNS_28MachineModuleInfoWrapperPassE
   fun:ac_create_llvm_passes
   fun:si_create_llvm_compiler
}
{
   <insert_a_suppression_name_here>
   Memcheck:Leak
   match-leak-kinds: possible
   fun:calloc
   fun:util_queue_init
   fun:queue_init
   fun:u_trace_context_init
   fun:u_trace_pipe_context_init
   fun:si_utrace_init
   fun:si_create_context
   fun:si_pipe_create_context
   fun:st_api_create_context
   fun:dri_create_context
   fun:driCreateContextAttribs
   fun:dri3_create_context_attribs
   fun:dri_common_create_context
}
{
   <insert_a_suppression_name_here>
   Memcheck:Leak
   match-leak-kinds: possible
   fun:calloc
   fun:util_queue_init
   fun:threaded_context_create
   fun:si_pipe_create_context
   fun:st_api_create_context
   fun:dri_create_context
   fun:driCreateContextAttribs
   fun:dri3_create_context_attribs
   fun:dri_common_create_context
   fun:CreateContext
   fun:glXCreateContext
   fun:glXCreateContext
}
{
   <insert_a_suppression_name_here>
   Memcheck:Leak
   match-leak-kinds: possible
   fun:calloc
   fun:util_queue_init
   fun:_mesa_glthread_init
   fun:dri_create_context
   fun:driCreateContextAttribs
   fun:dri3_create_context_attribs
   fun:dri_common_create_context
   fun:CreateContext
   fun:glXCreateContext
   fun:glXCreateContext
   fun:X11_GL_CreateContext
   fun:SDL_GL_CreateContext_REAL
}
{
   <insert_a_suppression_name_here>
   Memcheck:Leak
   match-leak-kinds: possible
   fun:_Znwm
   fun:allocate
   fun:allocate
   fun:_M_allocate
   fun:_M_realloc_append<llvm::PMDataManager* const&>
   fun:push_back
   fun:_ZN4llvm7PMStack4pushEPNS_13PMDataManagerE
   fun:FunctionPassManagerImpl
   fun:_ZN12_GLOBAL__N_113MPPassManager25addLowerLevelRequiredPassEPN4llvm4PassES3_
   fun:_ZN4llvm13PMDataManager3addEPNS_4PassEb
   fun:_ZN4llvm17PMTopLevelManager12schedulePassEPNS_4PassE
   fun:ac_create_passmgr
   fun:ac_init_llvm_compiler
   fun:si_create_llvm_compiler
   fun:si_shader_select_with_key<false, si_shader_key_ge>
   fun:si_shader_select
   fun:_Z17si_update_shadersIL13amd_gfx_level11EL11si_has_tess0EL9si_has_gs0EL10si_has_ngg0EEbP10si_context
   fun:si_draw<(amd_gfx_level)11, (si_has_tess)0, (si_has_gs)0, (si_has_ngg)0, (si_is_draw_vertex_state)0, (si_has_sh_pairs_packed)0, (util_popcnt)0>
   fun:_Z11si_draw_vboIL13amd_gfx_level11EL11si_has_tess0EL9si_has_gs0EL10si_has_ngg0EL22si_has_sh_pairs_packed0EEvP12pipe_contextPK14pipe_draw_infojPK23pipe_draw_indirect_infoPK26pipe_draw_start_count_biasj
   fun:_ZL17si_draw_rectangleP15blitter_contextPvPFS1_S0_Eiiiifj19blitter_attrib_typePK14blitter_attrib
}
{
   <insert_a_suppression_name_here>
   Memcheck:Leak
   match-leak-kinds: possible
   fun:_Znwm
   fun:allocate
   fun:allocate
   fun:_M_allocate
   fun:_ZNSt6vectorISt10unique_ptrI9BlockDataSt14default_deleteIS1_EESaIS4_EE17_M_default_appendEm
   fun:resize
   fun:_ZN12_GLOBAL__N_114SIModeRegister20runOnMachineFunctionERN4llvm15MachineFunctionE
   fun:_ZN4llvm19MachineFunctionPass13runOnFunctionERNS_8FunctionE.part.0
   fun:_ZN4llvm13FPPassManager13runOnFunctionERNS_8FunctionE
   fun:RunPassOnSCC
   fun:RunAllPassesOnSCC
   fun:_ZN12_GLOBAL__N_113CGPassManager11runOnModuleERN4llvm6ModuleE
   fun:runOnModule
   fun:_ZN4llvm6legacy15PassManagerImpl3runERNS_6ModuleE
   fun:ac_compile_module_to_elf
   fun:si_compile_llvm
   fun:si_llvm_build_shader_part
   fun:si_get_shader_part.constprop.0
   fun:si_shader_select_ps_parts
   fun:si_create_shader_variant
}
{
   <insert_a_suppression_name_here>
   Memcheck:Leak
   match-leak-kinds: reachable
   fun:malloc
   fun:strdup
   fun:_XlcCreateLC
   fun:_XlcUtf8Loader
   fun:_XOpenLC
   fun:XSetLocaleModifiers
   fun:X11_InitKeyboard
   fun:X11_VideoInit.lto_priv.0
   fun:SDL_VideoInit_REAL
   fun:SDL_InitSubSystem_REAL.part.0
   fun:engine.sdl_init
   fun:main.main
}
{
   <insert_a_suppression_name_here>
   Memcheck:Leak
   match-leak-kinds: possible
   fun:_Znam
   fun:_ZN4llvm17RegisterClassInfo20runOnMachineFunctionERKNS_15MachineFunctionE
   fun:_ZN12_GLOBAL__N_114MachineSinking20runOnMachineFunctionERN4llvm15MachineFunctionE.part.0
   fun:_ZN4llvm19MachineFunctionPass13runOnFunctionERNS_8FunctionE.part.0
   fun:_ZN4llvm13FPPassManager13runOnFunctionERNS_8FunctionE
   fun:RunPassOnSCC
   fun:RunAllPassesOnSCC
   fun:_ZN12_GLOBAL__N_113CGPassManager11runOnModuleERN4llvm6ModuleE
   fun:runOnModule
   fun:_ZN4llvm6legacy15PassManagerImpl3runERNS_6ModuleE
   fun:ac_compile_module_to_elf
   fun:si_compile_llvm
   fun:si_llvm_build_shader_part
   fun:si_get_shader_part.constprop.0
   fun:si_shader_select_ps_parts
   fun:si_create_shader_variant
}
{
   <insert_a_suppression_name_here>
   Memcheck:Leak
   match-leak-kinds: possible
   fun:_Znam
   fun:_ZN4llvm17RegisterClassInfo20runOnMachineFunctionERKNS_15MachineFunctionE
   fun:runOnMachineFunction
   fun:_ZN12_GLOBAL__N_117RegisterCoalescer20runOnMachineFunctionERN4llvm15MachineFunctionE
   fun:_ZN4llvm19MachineFunctionPass13runOnFunctionERNS_8FunctionE.part.0
   fun:_ZN4llvm13FPPassManager13runOnFunctionERNS_8FunctionE
   fun:RunPassOnSCC
   fun:RunAllPassesOnSCC
   fun:_ZN12_GLOBAL__N_113CGPassManager11runOnModuleERN4llvm6ModuleE
   fun:runOnModule
   fun:_ZN4llvm6legacy15PassManagerImpl3runERNS_6ModuleE
   fun:ac_compile_module_to_elf
   fun:si_compile_llvm
   fun:si_llvm_build_shader_part
   fun:si_get_shader_part.constprop.0
   fun:si_shader_select_ps_parts
   fun:si_create_shader_variant
}
{
   <insert_a_suppression_name_here>
   Memcheck:Leak
   match-leak-kinds: possible
   fun:_Znam
   fun:_ZN4llvm17RegisterClassInfo20runOnMachineFunctionERKNS_15MachineFunctionE
   fun:runOnMachineFunction
   fun:_ZN12_GLOBAL__N_116MachineScheduler20runOnMachineFunctionERN4llvm15MachineFunctionE
   fun:_ZN4llvm19MachineFunctionPass13runOnFunctionERNS_8FunctionE.part.0
   fun:_ZN4llvm13FPPassManager13runOnFunctionERNS_8FunctionE
   fun:RunPassOnSCC
   fun:RunAllPassesOnSCC
   fun:_ZN12_GLOBAL__N_113CGPassManager11runOnModuleERN4llvm6ModuleE
   fun:runOnModule
   fun:_ZN4llvm6legacy15PassManagerImpl3runERNS_6ModuleE
   fun:ac_compile_module_to_elf
   fun:si_compile_llvm
   fun:si_llvm_build_shader_part
   fun:si_get_shader_part.constprop.0
   fun:si_shader_select_ps_parts
   fun:si_create_shader_variant
}
{
   <insert_a_suppression_name_here>
   Memcheck:Leak
   match-leak-kinds: possible
   fun:_Znam
   fun:_ZN4llvm17RegisterClassInfo20runOnMachineFunctionERKNS_15MachineFunctionE
   fun:_ZN12_GLOBAL__N_120SIPreAllocateWWMRegs20runOnMachineFunctionERN4llvm15MachineFunctionE
   fun:_ZN4llvm19MachineFunctionPass13runOnFunctionERNS_8FunctionE.part.0
   fun:_ZN4llvm13FPPassManager13runOnFunctionERNS_8FunctionE
   fun:RunPassOnSCC
   fun:RunAllPassesOnSCC
   fun:_ZN12_GLOBAL__N_113CGPassManager11runOnModuleERN4llvm6ModuleE
   fun:runOnModule
   fun:_ZN4llvm6legacy15PassManagerImpl3runERNS_6ModuleE
   fun:ac_compile_module_to_elf
   fun:si_compile_llvm
   fun:si_llvm_build_shader_part
   fun:si_get_shader_part.constprop.0
   fun:si_shader_select_ps_parts
   fun:si_create_shader_variant
}
{
   <insert_a_suppression_name_here>
   Memcheck:Leak
   match-leak-kinds: reachable
   fun:malloc
   fun:_XlcAddLoader
   fun:_XlcInitLoader
   fun:_XOpenLC
   fun:XSetLocaleModifiers
   fun:X11_InitKeyboard
   fun:X11_VideoInit.lto_priv.0
   fun:SDL_VideoInit_REAL
   fun:SDL_InitSubSystem_REAL.part.0
   fun:engine.sdl_init
   fun:main.main
   fun:main
}
{
   <insert_a_suppression_name_here>
   Memcheck:Leak
   match-leak-kinds: reachable
   fun:malloc
   fun:_XlcAddLoader
   fun:_XOpenLC
   fun:XSetLocaleModifiers
   fun:X11_InitKeyboard
   fun:X11_VideoInit.lto_priv.0
   fun:SDL_VideoInit_REAL
   fun:SDL_InitSubSystem_REAL.part.0
   fun:engine.sdl_init
   fun:main.main
   fun:main
}
{
   <insert_a_suppression_name_here>
   Memcheck:Leak
   match-leak-kinds: reachable
   fun:reallocarray
   fun:add_codeset
   fun:load_generic
   fun:_XlcCreateLC
   fun:_XlcDefaultLoader
   fun:_XOpenLC
   fun:XSetLocaleModifiers
   fun:X11_InitKeyboard
   fun:X11_VideoInit.lto_priv.0
   fun:SDL_VideoInit_REAL
   fun:SDL_InitSubSystem_REAL.part.0
   fun:engine.sdl_init
}
{
   <insert_a_suppression_name_here>
   Memcheck:Leak
   match-leak-kinds: reachable
   fun:malloc
   fun:_XOpenLC
   fun:XSetLocaleModifiers
   fun:X11_InitKeyboard
   fun:X11_VideoInit.lto_priv.0
   fun:SDL_VideoInit_REAL
   fun:SDL_InitSubSystem_REAL.part.0
   fun:engine.sdl_init
   fun:main.main
   fun:main
}
{
   <insert_a_suppression_name_here>
   Memcheck:Leak
   match-leak-kinds: reachable
   fun:_Znwm
   fun:_ZN4llvm12GCNSubtargetC1ERKNS_6TripleENS_9StringRefES4_RKNS_16GCNTargetMachineE
   fun:make_unique<llvm::GCNSubtarget, const llvm::Triple&, llvm::StringRef&, llvm::StringRef&, const llvm::GCNTargetMachine&>
   fun:_ZNK4llvm16GCNTargetMachine16getSubtargetImplERKNS_8FunctionE
   fun:_ZN12_GLOBAL__N_127ExpandLargeDivRemLegacyPass13runOnFunctionERN4llvm8FunctionE
   fun:_ZN4llvm13FPPassManager13runOnFunctionERNS_8FunctionE
   fun:_ZN4llvm13FPPassManager11runOnModuleERNS_6ModuleE
   fun:runOnModule
   fun:_ZN4llvm6legacy15PassManagerImpl3runERNS_6ModuleE
   fun:ac_compile_module_to_elf
   fun:si_compile_llvm
   fun:si_llvm_build_shader_part
   fun:si_get_shader_part.constprop.0
   fun:si_shader_select_ps_parts
   fun:si_create_shader_variant
}
{
   <insert_a_suppression_name_here>
   Memcheck:Leak
   match-leak-kinds: reachable
   fun:_Znwm
   fun:_ZN4llvm12GCNSubtargetC1ERKNS_6TripleENS_9StringRefES4_RKNS_16GCNTargetMachineE
   fun:make_unique<llvm::GCNSubtarget, const llvm::Triple&, llvm::StringRef&, llvm::StringRef&, const llvm::GCNTargetMachine&>
   fun:_ZNK4llvm16GCNTargetMachine16getSubtargetImplERKNS_8FunctionE
   fun:getSubtarget<llvm::GCNSubtarget>
   fun:_ZN4llvm16AMDGPUAsmPrinter18initializeTargetIDERKNS_6ModuleE
   fun:_ZN4llvm16AMDGPUAsmPrinter18initTargetStreamerERNS_6ModuleE
   fun:_ZN4llvm16AMDGPUAsmPrinter20runOnMachineFunctionERNS_15MachineFunctionE
   fun:_ZN4llvm19MachineFunctionPass13runOnFunctionERNS_8FunctionE.part.0
   fun:_ZN4llvm13FPPassManager13runOnFunctionERNS_8FunctionE
   fun:_ZN4llvm13FPPassManager11runOnModuleERNS_6ModuleE
   fun:runOnModule
   fun:_ZN4llvm6legacy15PassManagerImpl3runERNS_6ModuleE
   fun:ac_compile_module_to_elf
   fun:si_compile_llvm
}
{
   <insert_a_suppression_name_here>
   Memcheck:Leak
   match-leak-kinds: reachable
   fun:malloc
   fun:UnknownInlinedFun
   fun:load_generic
   fun:_XlcCreateLC
   fun:_XlcDefaultLoader
   fun:_XOpenLC
   fun:XSetLocaleModifiers
   fun:X11_InitKeyboard
   fun:X11_VideoInit.lto_priv.0
   fun:SDL_VideoInit_REAL
   fun:SDL_InitSubSystem_REAL.part.0
   fun:engine.sdl_init
   fun:main.main
}
{
   <insert_a_suppression_name_here>
   Memcheck:Leak
   match-leak-kinds: possible
   fun:_Znwm
   fun:allocate
   fun:allocate
   fun:_M_allocate
   fun:_M_realloc_append<const std::pair<void const*, llvm::Pass*>&>
   fun:push_back
   fun:addAnalysisImplsPair
   fun:_ZN4llvm13PMDataManager22initializeAnalysisImplEPNS_4PassE
   fun:_ZN4llvm17PMTopLevelManager12schedulePassEPNS_4PassE
   fun:_ZN4llvm17PMTopLevelManager12schedulePassEPNS_4PassE
   fun:_ZN4llvm16TargetPassConfig7addPassEPNS_4PassE
   fun:_ZN12_GLOBAL__N_113GCNPassConfig31addRegAssignAndRewriteOptimizedEv
   fun:_ZN4llvm16TargetPassConfig20addOptimizedRegAllocEv
   fun:_ZN4llvm16TargetPassConfig16addMachinePassesEv
   fun:_ZL23addPassesToGenerateCodeRN4llvm17LLVMTargetMachineERNS_6legacy15PassManagerBaseEbRNS_28MachineModuleInfoWrapperPassE
   fun:_ZN4llvm17LLVMTargetMachine19addPassesToEmitFileERNS_6legacy15PassManagerBaseERNS_17raw_pwrite_streamEPS4_NS_15CodeGenFileTypeEbPNS_28MachineModuleInfoWrapperPassE
   fun:ac_create_llvm_passes
   fun:si_create_llvm_compiler
}
{
   <insert_a_suppression_name_here>
   Memcheck:Leak
   match-leak-kinds: possible
   fun:calloc
   fun:st_init_extensions
   fun:st_create_context_priv
   fun:st_create_context
   fun:st_api_create_context
   fun:dri_create_context
   fun:driCreateContextAttribs
   fun:dri3_create_context_attribs
   fun:dri_common_create_context
   fun:CreateContext
   fun:glXCreateContext
   fun:glXCreateContext
   fun:X11_GL_CreateContext
}
{
   <insert_a_suppression_name_here>
   Memcheck:Leak
   match-leak-kinds: possible
   fun:realloc
   fun:util_idalloc_resize.part.0
   fun:util_idalloc_resize
   fun:util_idalloc_reserve
   fun:util_idalloc_sparse_reserve
   fun:create_shader
   fun:UnknownInlinedFun
   fun:UnknownInlinedFun
   fun:GL_CreateRenderer.lto_priv.0
   fun:SDL_CreateRenderer_REAL
   fun:engine.sdl_init
   fun:main.main
   fun:main
}
{
   <insert_a_suppression_name_here>
   Memcheck:Leak
   match-leak-kinds: possible
   fun:malloc
   fun:_ZL25si_create_shader_selectorP12pipe_contextPK17pipe_shader_state
   fun:util_live_shader_cache_get
   fun:_ZL16si_create_shaderP12pipe_contextPK17pipe_shader_state
   fun:util_make_fragment_passthrough_shader
   fun:bind_fs_write_one_cbuf
   fun:util_blitter_custom_color
   fun:si_blit_decompress_color
   fun:si_flush_resource
   fun:si_flush_resource
   fun:tc_call_flush_resource
   fun:batch_execute
   fun:tc_batch_execute
   fun:_tc_sync.isra.0
   fun:tc_flush
}
{
   <insert_a_suppression_name_here>
   Memcheck:Leak
   match-leak-kinds: possible
   fun:malloc
   fun:_ZL25si_create_shader_selectorP12pipe_contextPK17pipe_shader_state
   fun:util_live_shader_cache_get
   fun:_ZL16si_create_shaderP12pipe_contextPK17pipe_shader_state
   fun:pipe_shader_from_nir
   fun:si_create_shader_state
   fun:si_get_blitter_vs
   fun:_ZL17si_draw_rectangleP15blitter_contextPvPFS1_S0_Eiiiifj19blitter_attrib_typePK14blitter_attrib
   fun:util_blitter_custom_color
   fun:si_blit_decompress_color
   fun:si_flush_resource
   fun:si_flush_resource
   fun:tc_call_flush_resource
   fun:batch_execute
   fun:tc_batch_execute
}
{
   <insert_a_suppression_name_here>
   Memcheck:Leak
   match-leak-kinds: possible
   fun:_Znwm
   fun:LLVMCreatePassManager
   fun:ac_create_passmgr
   fun:ac_init_llvm_compiler
   fun:si_create_llvm_compiler
   fun:si_shader_select_with_key<false, si_shader_key_ge>
   fun:si_shader_select
   fun:_Z17si_update_shadersIL13amd_gfx_level11EL11si_has_tess0EL9si_has_gs0EL10si_has_ngg0EEbP10si_context
   fun:si_draw<(amd_gfx_level)11, (si_has_tess)0, (si_has_gs)0, (si_has_ngg)0, (si_is_draw_vertex_state)0, (si_has_sh_pairs_packed)0, (util_popcnt)0>
   fun:_Z11si_draw_vboIL13amd_gfx_level11EL11si_has_tess0EL9si_has_gs0EL10si_has_ngg0EL22si_has_sh_pairs_packed0EEvP12pipe_contextPK14pipe_draw_infojPK23pipe_draw_indirect_infoPK26pipe_draw_start_count_biasj
   fun:_ZL17si_draw_rectangleP15blitter_contextPvPFS1_S0_Eiiiifj19blitter_attrib_typePK14blitter_attrib
   fun:util_blitter_custom_color
   fun:si_blit_decompress_color
   fun:si_flush_resource
   fun:si_flush_resource
}
{
   <insert_a_suppression_name_here>
   Memcheck:Leak
   match-leak-kinds: possible
   fun:malloc
   fun:safe_malloc
   fun:_ZN4llvm15SmallVectorBaseIjE8grow_podEPvmm
   fun:grow_pod
   fun:grow
   fun:reserveForParamAndGetAddressImpl<llvm::SmallVectorTemplateBase<std::pair<llvm::Pass*, llvm::legacy::FunctionPassManagerImpl*>, true> >
   fun:reserveForParamAndGetAddress
   fun:push_back
   fun:operator[]
   fun:_ZN12_GLOBAL__N_113MPPassManager25addLowerLevelRequiredPassEPN4llvm4PassES3_
   fun:_ZN4llvm13PMDataManager3addEPNS_4PassEb
   fun:_ZN4llvm17PMTopLevelManager12schedulePassEPNS_4PassE
   fun:ac_create_passmgr
   fun:ac_init_llvm_compiler
   fun:si_create_llvm_compiler
   fun:si_shader_select_with_key<false, si_shader_key_ge>
   fun:si_shader_select
   fun:_Z17si_update_shadersIL13amd_gfx_level11EL11si_has_tess0EL9si_has_gs0EL10si_has_ngg0EEbP10si_context
   fun:si_draw<(amd_gfx_level)11, (si_has_tess)0, (si_has_gs)0, (si_has_ngg)0, (si_is_draw_vertex_state)0, (si_has_sh_pairs_packed)0, (util_popcnt)0>
   fun:_Z11si_draw_vboIL13amd_gfx_level11EL11si_has_tess0EL9si_has_gs0EL10si_has_ngg0EL22si_has_sh_pairs_packed0EEvP12pipe_contextPK14pipe_draw_infojPK23pipe_draw_indirect_infoPK26pipe_draw_start_count_biasj
   fun:_ZL17si_draw_rectangleP15blitter_contextPvPFS1_S0_Eiiiifj19blitter_attrib_typePK14blitter_attrib
}
{
   <insert_a_suppression_name_here>
   Memcheck:Leak
   match-leak-kinds: possible
   fun:_Znwm
   fun:make_unique<(anonymous namespace)::AMDGPUELFObjectWriter, bool&, unsigned char&, bool&>
   fun:_ZN4llvm27createAMDGPUELFObjectWriterEbhb
   fun:_ZNK12_GLOBAL__N_119ELFAMDGPUAsmBackend24createObjectTargetWriterEv
   fun:_ZNK4llvm12MCAsmBackend18createObjectWriterERNS_17raw_pwrite_streamE
   fun:_ZN4llvm17LLVMTargetMachine16createMCStreamerERNS_17raw_pwrite_streamEPS1_NS_15CodeGenFileTypeERNS_9MCContextE
   fun:_ZN4llvm17LLVMTargetMachine13addAsmPrinterERNS_6legacy15PassManagerBaseERNS_17raw_pwrite_streamEPS4_NS_15CodeGenFileTypeERNS_9MCContextE
   fun:_ZN4llvm17LLVMTargetMachine19addPassesToEmitFileERNS_6legacy15PassManagerBaseERNS_17raw_pwrite_streamEPS4_NS_15CodeGenFileTypeEbPNS_28MachineModuleInfoWrapperPassE
   fun:ac_create_llvm_passes
   fun:si_create_llvm_compiler
   fun:si_shader_select_with_key<false, si_shader_key_ge>
   fun:si_shader_select
   fun:_Z17si_update_shadersIL13amd_gfx_level11EL11si_has_tess0EL9si_has_gs0EL10si_has_ngg0EEbP10si_context
   fun:si_draw<(amd_gfx_level)11, (si_has_tess)0, (si_has_gs)0, (si_has_ngg)0, (si_is_draw_vertex_state)0, (si_has_sh_pairs_packed)0, (util_popcnt)0>
   fun:_Z11si_draw_vboIL13amd_gfx_level11EL11si_has_tess0EL9si_has_gs0EL10si_has_ngg0EL22si_has_sh_pairs_packed0EEvP12pipe_contextPK14pipe_draw_infojPK23pipe_draw_indirect_infoPK26pipe_draw_start_count_biasj
}
{
   <insert_a_suppression_name_here>
   Memcheck:Leak
   match-leak-kinds: possible
   fun:_Znwm
   fun:TargetTransformInfo
   fun:_ZN4llvm16TargetIRAnalysis13getDefaultTTIERKNS_8FunctionE
   fun:__invoke_impl<llvm::TargetTransformInfo, llvm::TargetTransformInfo (*&)(const llvm::Function&), const llvm::Function&>
   fun:__invoke_r<llvm::TargetTransformInfo, llvm::TargetTransformInfo (*&)(const llvm::Function&), const llvm::Function&>
   fun:_ZNSt17_Function_handlerIFN4llvm19TargetTransformInfoERKNS0_8FunctionEEPS5_E9_M_invokeERKSt9_Any_dataS4_
   fun:operator()
   fun:run
   fun:_ZN4llvm30TargetTransformInfoWrapperPass6getTTIERKNS_8FunctionE
   fun:runOnFunction
   fun:_ZN4llvm24InstructionCombiningPass13runOnFunctionERNS_8FunctionE
   fun:_ZN4llvm13FPPassManager13runOnFunctionERNS_8FunctionE
   fun:_ZN4llvm13FPPassManager11runOnModuleERNS_6ModuleE
   fun:runOnModule
   fun:_ZN4llvm6legacy15PassManagerImpl3runERNS_6ModuleE
   fun:LLVMRunPassManager
   fun:si_llvm_optimize_module
   fun:si_llvm_build_shader_part
   fun:si_get_shader_part.constprop.0
   fun:si_shader_select_ps_parts
   fun:si_create_shader_variant
}
{
   <insert_a_suppression_name_here>
   Memcheck:Leak
   match-leak-kinds: possible
   fun:_Znwm
   fun:allocate
   fun:allocate
   fun:_M_allocate
   fun:_M_realloc_append<const std::pair<void const*, llvm::Pass*>&>
   fun:push_back
   fun:addAnalysisImplsPair
   fun:_ZN4llvm13PMDataManager22initializeAnalysisImplEPNS_4PassE
   fun:RunAllPassesOnSCC
   fun:_ZN12_GLOBAL__N_113CGPassManager11runOnModuleERN4llvm6ModuleE
   fun:runOnModule
   fun:_ZN4llvm6legacy15PassManagerImpl3runERNS_6ModuleE
   fun:ac_compile_module_to_elf
   fun:si_compile_llvm
   fun:si_llvm_build_shader_part
   fun:si_get_shader_part.constprop.0
   fun:si_shader_select_ps_parts
   fun:si_create_shader_variant
   fun:_ZL23si_build_shader_variantP9si_shaderib
   fun:si_shader_select_with_key<false, si_shader_key_ge>
   fun:si_shader_select
   fun:_Z17si_update_shadersIL13amd_gfx_level11EL11si_has_tess0EL9si_has_gs0EL10si_has_ngg0EEbP10si_context
}
{
   <insert_a_suppression_name_here>
   Memcheck:Leak
   match-leak-kinds: possible
   fun:_Znwm
   fun:allocate
   fun:allocate
   fun:_M_allocate
   fun:_M_realloc_append<const std::pair<void const*, llvm::Pass*>&>
   fun:push_back
   fun:addAnalysisImplsPair
   fun:_ZN4llvm13PMDataManager22initializeAnalysisImplEPNS_4PassE
   fun:_ZN4llvm13RGPassManager13runOnFunctionERNS_8FunctionE
   fun:_ZN4llvm13FPPassManager13runOnFunctionERNS_8FunctionE
   fun:RunPassOnSCC
   fun:RunAllPassesOnSCC
   fun:_ZN12_GLOBAL__N_113CGPassManager11runOnModuleERN4llvm6ModuleE
   fun:runOnModule
   fun:_ZN4llvm6legacy15PassManagerImpl3runERNS_6ModuleE
   fun:ac_compile_module_to_elf
   fun:si_compile_llvm
   fun:si_llvm_build_shader_part
   fun:si_get_shader_part.constprop.0
   fun:si_shader_select_ps_parts
   fun:si_create_shader_variant
   fun:_ZL23si_build_shader_variantP9si_shaderib
}
{
   <insert_a_suppression_name_here>
   Memcheck:Leak
   match-leak-kinds: possible
   fun:malloc
   fun:safe_malloc
   fun:_ZN4llvm15SmallVectorBaseIjE8grow_podEPvmm
   fun:grow_pod
   fun:grow
   fun:reserveForParamAndGetAddressImpl<llvm::SmallVectorTemplateBase<std::pair<llvm::VNInfo*, llvm::DomTreeNodeBase<llvm::MachineBasicBlock>*>, true> >
   fun:reserveForParamAndGetAddress
   fun:append
   fun:resize
   fun:resize
   fun:_ZN4llvm13LiveRangeCalc15resetLiveOutMapEv
   fun:_ZN4llvm13LiveRangeCalc5resetEPKNS_15MachineFunctionEPNS_11SlotIndexesEPNS_20MachineDominatorTreeEPNS_20BumpPtrAllocatorImplINS_15MallocAllocatorELm4096ELm4096ELm128EEE
   fun:_ZN4llvm13LiveIntervals22computeVirtRegIntervalERNS_12LiveIntervalE
   fun:_ZN4llvm13LiveIntervals15computeVirtRegsEv
   fun:_ZN4llvm13LiveIntervals20runOnMachineFunctionERNS_15MachineFunctionE
   fun:_ZN4llvm19MachineFunctionPass13runOnFunctionERNS_8FunctionE.part.0
   fun:_ZN4llvm13FPPassManager13runOnFunctionERNS_8FunctionE
   fun:RunPassOnSCC
   fun:RunAllPassesOnSCC
   fun:_ZN12_GLOBAL__N_113CGPassManager11runOnModuleERN4llvm6ModuleE
   fun:runOnModule
   fun:_ZN4llvm6legacy15PassManagerImpl3runERNS_6ModuleE
   fun:ac_compile_module_to_elf
}
{
   <insert_a_suppression_name_here>
   Memcheck:Leak
   match-leak-kinds: possible
   fun:malloc
   fun:safe_malloc
   fun:_ZN4llvm15SmallVectorBaseIjE8grow_podEPvmm
   fun:grow_pod
   fun:grow
   fun:reserveForParamAndGetAddressImpl<llvm::SmallVectorTemplateBase<std::pair<llvm::MachineBasicBlock*, (anonymous namespace)::BlockInfo>, true> >
   fun:reserveForParamAndGetAddress
   fun:push_back
   fun:_ZN4llvm9MapVectorIPNS_17MachineBasicBlockEN12_GLOBAL__N_19BlockInfoENS_8DenseMapIS2_jNS_12DenseMapInfoIS2_vEENS_6detail12DenseMapPairIS2_jEEEENS_11SmallVectorISt4pairIS2_S4_ELj0EEEEixERKS2_
   fun:scanInstructions
   fun:analyzeFunction
   fun:_ZN12_GLOBAL__N_115SIWholeQuadMode20runOnMachineFunctionERN4llvm15MachineFunctionE
   fun:_ZN4llvm19MachineFunctionPass13runOnFunctionERNS_8FunctionE.part.0
   fun:_ZN4llvm13FPPassManager13runOnFunctionERNS_8FunctionE
   fun:RunPassOnSCC
   fun:RunAllPassesOnSCC
   fun:_ZN12_GLOBAL__N_113CGPassManager11runOnModuleERN4llvm6ModuleE
   fun:runOnModule
   fun:_ZN4llvm6legacy15PassManagerImpl3runERNS_6ModuleE
   fun:ac_compile_module_to_elf
   fun:si_compile_llvm
   fun:si_llvm_build_shader_part
   fun:si_get_shader_part.constprop.0
}
{
   <insert_a_suppression_name_here>
   Memcheck:Leak
   match-leak-kinds: possible
   fun:_Znwm
   fun:make_unique<llvm::MachineOptimizationRemarkEmitter, llvm::MachineFunction&, llvm::MachineBlockFrequencyInfo*&>
   fun:_ZN4llvm36MachineOptimizationRemarkEmitterPass20runOnMachineFunctionERNS_15MachineFunctionE
   fun:_ZN4llvm19MachineFunctionPass13runOnFunctionERNS_8FunctionE.part.0
   fun:_ZN4llvm13FPPassManager13runOnFunctionERNS_8FunctionE
   fun:_ZN4llvm13FPPassManager11runOnModuleERNS_6ModuleE
   fun:runOnModule
   fun:_ZN4llvm6legacy15PassManagerImpl3runERNS_6ModuleE
   fun:ac_compile_module_to_elf
   fun:si_compile_llvm
   fun:si_llvm_build_shader_part
   fun:si_get_shader_part.constprop.0
   fun:si_shader_select_ps_parts
   fun:si_create_shader_variant
   fun:_ZL23si_build_shader_variantP9si_shaderib
}
{
   <insert_a_suppression_name_here>
   Memcheck:Leak
   match-leak-kinds: possible
   fun:malloc
   fun:UnknownInlinedFun
   fun:_xcb_in_read
   fun:_xcb_conn_wait.part.0
   fun:UnknownInlinedFun
   fun:_xcb_out_send
   fun:UnknownInlinedFun
   fun:xcb_writev
   fun:_XSend
   fun:_XReply
   fun:XSync
   fun:XCloseDisplay
   fun:X11_DeleteDevice
   fun:SDL_VideoQuit_REAL.part.0
   fun:UnknownInlinedFun
   fun:SDL_QuitSubSystem_REAL
}
{
   <insert_a_suppression_name_here>
   Memcheck:Leak
   match-leak-kinds: possible
   fun:_Znwm
   fun:allocate
   fun:allocate
   fun:_M_allocate
   fun:_M_realloc_append<llvm::AAResults::Model<llvm::BasicAAResult>*>
   fun:emplace_back<llvm::AAResults::Model<llvm::BasicAAResult>*>
   fun:addAAResult<llvm::BasicAAResult>
   fun:_ZN4llvm20AAResultsWrapperPass13runOnFunctionERNS_8FunctionE
   fun:_ZN4llvm13FPPassManager13runOnFunctionERNS_8FunctionE
   fun:_ZN4llvm13FPPassManager11runOnModuleERNS_6ModuleE
   fun:runOnModule
   fun:_ZN4llvm6legacy15PassManagerImpl3runERNS_6ModuleE
   fun:LLVMRunPassManager
   fun:si_llvm_optimize_module
   fun:si_llvm_build_shader_part
   fun:si_get_shader_part.constprop.0
   fun:si_shader_select_ps_parts
   fun:si_create_shader_variant
   fun:_ZL23si_build_shader_variantP9si_shaderib
   fun:si_shader_select_with_key<false, si_shader_key_ge>
   fun:si_shader_select
   fun:_Z17si_update_shadersIL13amd_gfx_level11EL11si_has_tess0EL9si_has_gs0EL10si_has_ngg0EEbP10si_context
}
{
   <insert_a_suppression_name_here>
   Memcheck:Leak
   match-leak-kinds: reachable
   fun:_ZnwmSt11align_val_t
   fun:Allocate
   fun:allocateWithKey<llvm::MallocAllocator>
   fun:create<llvm::MallocAllocator, llvm::cl::Option*>
   fun:_ZN4llvm9StringMapIPNS_2cl6OptionENS_15MallocAllocatorEE11try_emplaceIJS3_EEESt4pairINS_17StringMapIteratorIS3_EEbENS_9StringRefEDpOT_
   fun:insert
   fun:_ZN12_GLOBAL__N_117CommandLineParser9addOptionEPN4llvm2cl6OptionEPNS2_10SubCommandE
   fun:addOption
   fun:_ZN4llvm2cl6Option11addArgumentEv
   fun:done
   fun:alias<char [2], llvm::cl::desc, llvm::cl::aliasopt>
   fun:_ZN4llvm2mc28RegisterMCTargetOptionsFlagsC1Ev
   fun:call_init
   fun:call_init
   fun:_dl_init
   fun:_dl_catch_exception
   fun:dl_open_worker
   fun:_dl_catch_exception
   fun:_dl_open
   fun:dlopen_doit
}
{
   <insert_a_suppression_name_here>
   Memcheck:Leak
   match-leak-kinds: reachable
   fun:_ZnwmSt11align_val_t
   fun:Allocate
   fun:allocateWithKey<llvm::MallocAllocator>
   fun:create<llvm::MallocAllocator, llvm::cl::Option*>
   fun:_ZN4llvm9StringMapIPNS_2cl6OptionENS_15MallocAllocatorEE11try_emplaceIJS3_EEESt4pairINS_17StringMapIteratorIS3_EEbENS_9StringRefEDpOT_
   fun:insert
   fun:_ZN12_GLOBAL__N_117CommandLineParser9addOptionEPN4llvm2cl6OptionEPNS2_10SubCommandE
   fun:operator()
   fun:callback_fn<(anonymous namespace)::CommandLineParser::addOption(llvm::cl::Option*, bool)::<lambda(llvm::cl::SubCommand&)> >
   fun:operator()
   fun:_ZN12_GLOBAL__N_117CommandLineParser17forEachSubCommandERN4llvm2cl6OptionENS1_12function_refIFvRNS2_10SubCommandEEEE.constprop.2
   fun:addOption
   fun:ParseCommandLineOptions
   fun:_ZN4llvm2cl23ParseCommandLineOptionsEiPKPKcNS_9StringRefEPNS_11raw_ostreamES2_b
   fun:LLVMParseCommandLineOptions
   fun:ac_init_llvm_target
   fun:__pthread_once_slow.isra.0
   fun:pthread_once@@GLIBC_2.34
   fun:radeonsi_screen_create
   fun:pipe_radeonsi_create_screen
   fun:pipe_loader_create_screen_vk
}
{
   <insert_a_suppression_name_here>
   Memcheck:Leak
   match-leak-kinds: reachable
   fun:_ZnwmSt11align_val_t
   fun:Allocate
   fun:allocateWithKey<llvm::MallocAllocator>
   fun:create<llvm::MallocAllocator, llvm::cl::Option*>
   fun:_ZN4llvm9StringMapIPNS_2cl6OptionENS_15MallocAllocatorEE11try_emplaceIJS3_EEESt4pairINS_17StringMapIteratorIS3_EEbENS_9StringRefEDpOT_
   fun:insert
   fun:_ZN12_GLOBAL__N_117CommandLineParser9addOptionEPN4llvm2cl6OptionEPNS2_10SubCommandE
   fun:addOption
   fun:ParseCommandLineOptions
   fun:_ZN4llvm2cl23ParseCommandLineOptionsEiPKPKcNS_9StringRefEPNS_11raw_ostreamES2_b
   fun:LLVMParseCommandLineOptions
   fun:ac_init_llvm_target
   fun:__pthread_once_slow.isra.0
   fun:pthread_once@@GLIBC_2.34
   fun:radeonsi_screen_create
   fun:pipe_radeonsi_create_screen
   fun:pipe_loader_create_screen_vk
   fun:dri2_init_screen
}
{
   <insert_a_suppression_name_here>
   Memcheck:Leak
   match-leak-kinds: reachable
   fun:_ZnwmSt11align_val_t
   fun:Allocate
   fun:allocateWithKey<llvm::MallocAllocator>
   fun:create<llvm::MallocAllocator, llvm::cl::Option*>
   fun:_ZN4llvm9StringMapIPNS_2cl6OptionENS_15MallocAllocatorEE11try_emplaceIJS3_EEESt4pairINS_17StringMapIteratorIS3_EEbENS_9StringRefEDpOT_
   fun:insert
   fun:_ZN12_GLOBAL__N_117CommandLineParser9addOptionEPN4llvm2cl6OptionEPNS2_10SubCommandE
   fun:addOption
   fun:_ZN4llvm2cl6Option11addArgumentEv
   fun:done
   fun:opt<char [4], llvm::cl::OptionHidden, llvm::cl::desc, llvm::cl::initializer<bool> >
   fun:_Z41__static_initialization_and_destruction_0v
   fun:call_init
   fun:call_init
   fun:_dl_init
   fun:_dl_catch_exception
   fun:dl_open_worker
   fun:_dl_catch_exception
   fun:_dl_open
   fun:dlopen_doit
}
{
   <insert_a_suppression_name_here>
   Memcheck:Leak
   match-leak-kinds: reachable
   fun:_ZnwmSt11align_val_t
   fun:Allocate
   fun:allocateWithKey<llvm::MallocAllocator>
   fun:create<llvm::MallocAllocator, llvm::cl::Option*>
   fun:_ZN4llvm9StringMapIPNS_2cl6OptionENS_15MallocAllocatorEE11try_emplaceIJS3_EEESt4pairINS_17StringMapIteratorIS3_EEbENS_9StringRefEDpOT_
   fun:insert
   fun:_ZN12_GLOBAL__N_117CommandLineParser9addOptionEPN4llvm2cl6OptionEPNS2_10SubCommandE
   fun:addOption
   fun:_ZN4llvm2cl6Option11addArgumentEv
   fun:done
   fun:opt<char [5], llvm::cl::OptionHidden, llvm::cl::initializer<bool>, llvm::cl::desc>
   fun:_Z41__static_initialization_and_destruction_0v
   fun:call_init
   fun:call_init
   fun:_dl_init
   fun:_dl_catch_exception
   fun:dl_open_worker
   fun:_dl_catch_exception
   fun:_dl_open
   fun:dlopen_doit
}
{
   <insert_a_suppression_name_here>
   Memcheck:Leak
   match-leak-kinds: reachable
   fun:_ZnwmSt11align_val_t
   fun:Allocate
   fun:allocateWithKey<llvm::MallocAllocator>
   fun:create<llvm::MallocAllocator, llvm::cl::Option*>
   fun:_ZN4llvm9StringMapIPNS_2cl6OptionENS_15MallocAllocatorEE11try_emplaceIJS3_EEESt4pairINS_17StringMapIteratorIS3_EEbENS_9StringRefEDpOT_
   fun:insert
   fun:_ZN12_GLOBAL__N_117CommandLineParser9addOptionEPN4llvm2cl6OptionEPNS2_10SubCommandE
   fun:addOption
   fun:_ZN4llvm2cl6Option11addArgumentEv
   fun:_Z41__static_initialization_and_destruction_0v
   fun:call_init
   fun:call_init
   fun:_dl_init
   fun:_dl_catch_exception
   fun:dl_open_worker
   fun:_dl_catch_exception
   fun:_dl_open
   fun:dlopen_doit
}
{
   <insert_a_suppression_name_here>
   Memcheck:Leak
   match-leak-kinds: reachable
   fun:_ZnwmSt11align_val_t
   fun:Allocate
   fun:allocateWithKey<llvm::MallocAllocator>
   fun:create<llvm::MallocAllocator, llvm::cl::Option*>
   fun:_ZN4llvm9StringMapIPNS_2cl6OptionENS_15MallocAllocatorEE11try_emplaceIJS3_EEESt4pairINS_17StringMapIteratorIS3_EEbENS_9StringRefEDpOT_
   fun:insert
   fun:_ZN12_GLOBAL__N_117CommandLineParser9addOptionEPN4llvm2cl6OptionEPNS2_10SubCommandE
   fun:operator()
   fun:callback_fn<(anonymous namespace)::CommandLineParser::addOption(llvm::cl::Option*, bool)::<lambda(llvm::cl::SubCommand&)> >
   fun:operator()
   fun:_ZN12_GLOBAL__N_117CommandLineParser17forEachSubCommandERN4llvm2cl6OptionENS1_12function_refIFvRNS2_10SubCommandEEEE.constprop.2
   fun:addOption
   fun:_ZN4llvm2cl6Option11addArgumentEv
   fun:done
   fun:opt<char [5], llvm::cl::desc, llvm::cl::LocationClass<(anonymous namespace)::HelpPrinterWrapper>, llvm::cl::ValueExpected, llvm::cl::cat, llvm::cl::sub>
   fun:_ZN12_GLOBAL__N_124CommandLineCommonOptionsC1Ev
   fun:_ZN4llvm14object_creatorIN12_GLOBAL__N_124CommandLineCommonOptionsEE4callEv
   fun:_ZNK4llvm17ManagedStaticBase21RegisterManagedStaticEPFPvvEPFvS1_E
   fun:operator*
   fun:initCommonOptions
   fun:_ZN4llvm2cl23ParseCommandLineOptionsEiPKPKcNS_9StringRefEPNS_11raw_ostreamES2_b
   fun:LLVMParseCommandLineOptions
   fun:ac_init_llvm_target
   fun:__pthread_once_slow.isra.0
}
{
   <insert_a_suppression_name_here>
   Memcheck:Leak
   match-leak-kinds: reachable
   fun:_ZnwmSt11align_val_t
   fun:Allocate
   fun:allocateWithKey<llvm::MallocAllocator>
   fun:create<llvm::MallocAllocator, llvm::cl::Option*>
   fun:_ZN4llvm9StringMapIPNS_2cl6OptionENS_15MallocAllocatorEE11try_emplaceIJS3_EEESt4pairINS_17StringMapIteratorIS3_EEbENS_9StringRefEDpOT_
   fun:insert
   fun:_ZN12_GLOBAL__N_117CommandLineParser9addOptionEPN4llvm2cl6OptionEPNS2_10SubCommandE
   fun:addOption
   fun:_ZN4llvm2cl6Option11addArgumentEv
   fun:done
   fun:opt<char [5], llvm::cl::desc, llvm::cl::LocationClass<(anonymous namespace)::HelpPrinterWrapper>, llvm::cl::ValueExpected, llvm::cl::cat, llvm::cl::sub>
   fun:_ZN12_GLOBAL__N_124CommandLineCommonOptionsC1Ev
   fun:_ZN4llvm14object_creatorIN12_GLOBAL__N_124CommandLineCommonOptionsEE4callEv
   fun:_ZNK4llvm17ManagedStaticBase21RegisterManagedStaticEPFPvvEPFvS1_E
   fun:operator*
   fun:initCommonOptions
   fun:_ZN4llvm2cl23ParseCommandLineOptionsEiPKPKcNS_9StringRefEPNS_11raw_ostreamES2_b
   fun:LLVMParseCommandLineOptions
   fun:ac_init_llvm_target
   fun:__pthread_once_slow.isra.0
   fun:pthread_once@@GLIBC_2.34
}
{
   <insert_a_suppression_name_here>
   Memcheck:Leak
   match-leak-kinds: reachable
   fun:_ZnwmSt11align_val_t
   fun:Allocate
   fun:allocateWithKey<llvm::MallocAllocator>
   fun:create<llvm::MallocAllocator, llvm::cl::Option*>
   fun:_ZN4llvm9StringMapIPNS_2cl6OptionENS_15MallocAllocatorEE11try_emplaceIJS3_EEESt4pairINS_17StringMapIteratorIS3_EEbENS_9StringRefEDpOT_
   fun:insert
   fun:_ZN12_GLOBAL__N_117CommandLineParser9addOptionEPN4llvm2cl6OptionEPNS2_10SubCommandE
   fun:addOption
   fun:_ZN4llvm2cl6Option11addArgumentEv
   fun:done
   fun:opt<char [6], llvm::cl::desc, llvm::cl::LocationClass<bool>, llvm::cl::OptionHidden>
   fun:_ZN4llvm20initStatisticOptionsEv
   fun:initCommonOptions
   fun:_ZN4llvm2cl23ParseCommandLineOptionsEiPKPKcNS_9StringRefEPNS_11raw_ostreamES2_b
   fun:LLVMParseCommandLineOptions
   fun:ac_init_llvm_target
   fun:__pthread_once_slow.isra.0
   fun:pthread_once@@GLIBC_2.34
   fun:radeonsi_screen_create
   fun:pipe_radeonsi_create_screen
}
{
   <insert_a_suppression_name_here>
   Memcheck:Leak
   match-leak-kinds: reachable
   fun:_ZnwmSt11align_val_t
   fun:Allocate
   fun:allocateWithKey<llvm::MallocAllocator>
   fun:create<llvm::MallocAllocator, llvm::cl::Option*>
   fun:_ZN4llvm9StringMapIPNS_2cl6OptionENS_15MallocAllocatorEE11try_emplaceIJS3_EEESt4pairINS_17StringMapIteratorIS3_EEbENS_9StringRefEDpOT_
   fun:insert
   fun:_ZN12_GLOBAL__N_117CommandLineParser9addOptionEPN4llvm2cl6OptionEPNS2_10SubCommandE
   fun:addOption
   fun:_ZN4llvm2cl6Option11addArgumentEv
   fun:done
   fun:opt<char [6], llvm::cl::cat, llvm::cl::desc, llvm::cl::initializer<llvm::cl::boolOrDefault> >
   fun:_ZN12_GLOBAL__N_114CreateUseColor4callEv
   fun:_ZNK4llvm17ManagedStaticBase21RegisterManagedStaticEPFPvvEPFvS1_E
   fun:operator*
   fun:_ZN4llvm20initWithColorOptionsEv
   fun:initCommonOptions
   fun:_ZN4llvm2cl23ParseCommandLineOptionsEiPKPKcNS_9StringRefEPNS_11raw_ostreamES2_b
   fun:LLVMParseCommandLineOptions
   fun:ac_init_llvm_target
   fun:__pthread_once_slow.isra.0
   fun:pthread_once@@GLIBC_2.34
}
{
   <insert_a_suppression_name_here>
   Memcheck:Leak
   match-leak-kinds: reachable
   fun:_ZnwmSt11align_val_t
   fun:Allocate
   fun:allocateWithKey<llvm::MallocAllocator>
   fun:create<llvm::MallocAllocator, llvm::cl::Option*>
   fun:_ZN4llvm9StringMapIPNS_2cl6OptionENS_15MallocAllocatorEE11try_emplaceIJS3_EEESt4pairINS_17StringMapIteratorIS3_EEbENS_9StringRefEDpOT_
   fun:insert
   fun:_ZN12_GLOBAL__N_117CommandLineParser9addOptionEPN4llvm2cl6OptionEPNS2_10SubCommandE
   fun:addOption
   fun:_ZN4llvm2cl6Option11addArgumentEv
   fun:__static_initialization_and_destruction_0
   fun:_GLOBAL__sub_I_HexagonVectorCombine.cpp
   fun:call_init
   fun:call_init
   fun:_dl_init
   fun:_dl_catch_exception
   fun:dl_open_worker
   fun:_dl_catch_exception
   fun:_dl_open
   fun:dlopen_doit
}
{
   <insert_a_suppression_name_here>
   Memcheck:Leak
   match-leak-kinds: reachable
   fun:_ZnwmSt11align_val_t
   fun:Allocate
   fun:allocateWithKey<llvm::MallocAllocator>
   fun:create<llvm::MallocAllocator, llvm::cl::Option*>
   fun:_ZN4llvm9StringMapIPNS_2cl6OptionENS_15MallocAllocatorEE11try_emplaceIJS3_EEESt4pairINS_17StringMapIteratorIS3_EEbENS_9StringRefEDpOT_
   fun:insert
   fun:_ZN12_GLOBAL__N_117CommandLineParser9addOptionEPN4llvm2cl6OptionEPNS2_10SubCommandE
   fun:addOption
   fun:_ZN4llvm2cl6Option11addArgumentEv
   fun:done
   fun:opt<char [7], llvm::cl::OptionHidden, llvm::cl::desc, llvm::cl::FormattingFlags, llvm::cl::initializer<int> >
   fun:__static_initialization_and_destruction_0
   fun:_GLOBAL__sub_I_HexagonMCELFStreamer.cpp
   fun:call_init
   fun:call_init
   fun:_dl_init
   fun:_dl_catch_exception
   fun:dl_open_worker
   fun:_dl_catch_exception
   fun:_dl_open
   fun:dlopen_doit
}
{
   <insert_a_suppression_name_here>
   Memcheck:Leak
   match-leak-kinds: reachable
   fun:_ZnwmSt11align_val_t
   fun:Allocate
   fun:allocateWithKey<llvm::MallocAllocator>
   fun:create<llvm::MallocAllocator, llvm::cl::Option*>
   fun:_ZN4llvm9StringMapIPNS_2cl6OptionENS_15MallocAllocatorEE11try_emplaceIJS3_EEESt4pairINS_17StringMapIteratorIS3_EEbENS_9StringRefEDpOT_
   fun:insert
   fun:_ZN12_GLOBAL__N_117CommandLineParser9addOptionEPN4llvm2cl6OptionEPNS2_10SubCommandE
   fun:addOption
   fun:_ZN4llvm2cl6Option11addArgumentEv
   fun:done
   fun:opt<char [7], llvm::cl::desc, llvm::cl::initializer<bool> >
   fun:_Z41__static_initialization_and_destruction_0v
   fun:call_init
   fun:call_init
   fun:_dl_init
   fun:_dl_catch_exception
   fun:dl_open_worker
   fun:_dl_catch_exception
   fun:_dl_open
   fun:dlopen_doit
}
{
   <insert_a_suppression_name_here>
   Memcheck:Leak
   match-leak-kinds: reachable
   fun:_ZnwmSt11align_val_t
   fun:Allocate
   fun:allocateWithKey<llvm::MallocAllocator>
   fun:create<llvm::MallocAllocator, llvm::cl::Option*>
   fun:_ZN4llvm9StringMapIPNS_2cl6OptionENS_15MallocAllocatorEE11try_emplaceIJS3_EEESt4pairINS_17StringMapIteratorIS3_EEbENS_9StringRefEDpOT_
   fun:insert
   fun:_ZN12_GLOBAL__N_117CommandLineParser9addOptionEPN4llvm2cl6OptionEPNS2_10SubCommandE
   fun:addOption
   fun:_ZN4llvm2cl6Option11addArgumentEv
   fun:done
   fun:opt<char [7], llvm::cl::OptionHidden, llvm::cl::desc>
   fun:__static_initialization_and_destruction_0
   fun:_GLOBAL__sub_I_MipsSubtarget.cpp
   fun:call_init
   fun:call_init
   fun:_dl_init
   fun:_dl_catch_exception
   fun:dl_open_worker
   fun:_dl_catch_exception
   fun:_dl_open
   fun:dlopen_doit
}
{
   <insert_a_suppression_name_here>
   Memcheck:Leak
   match-leak-kinds: reachable
   fun:_ZnwmSt11align_val_t
   fun:Allocate
   fun:allocateWithKey<llvm::MallocAllocator>
   fun:create<llvm::MallocAllocator>
   fun:try_emplace<>
   fun:operator[]
   fun:_ZNK4llvm16GCNTargetMachine16getSubtargetImplERKNS_8FunctionE
   fun:getSubtarget<llvm::GCNSubtarget>
   fun:_ZN4llvm16AMDGPUAsmPrinter18initializeTargetIDERKNS_6ModuleE
   fun:_ZN4llvm16AMDGPUAsmPrinter18initTargetStreamerERNS_6ModuleE
   fun:_ZN4llvm16AMDGPUAsmPrinter20runOnMachineFunctionERNS_15MachineFunctionE
   fun:_ZN4llvm19MachineFunctionPass13runOnFunctionERNS_8FunctionE.part.0
   fun:_ZN4llvm13FPPassManager13runOnFunctionERNS_8FunctionE
   fun:_ZN4llvm13FPPassManager11runOnModuleERNS_6ModuleE
   fun:runOnModule
   fun:_ZN4llvm6legacy15PassManagerImpl3runERNS_6ModuleE
   fun:ac_compile_module_to_elf
   fun:si_compile_llvm
   fun:si_llvm_build_shader_part
}
{
   <insert_a_suppression_name_here>
   Memcheck:Leak
   match-leak-kinds: reachable
   fun:calloc
   fun:create.lto_priv.0
   fun:_XlcCreateLC
   fun:_XlcDefaultLoader
   fun:_XOpenLC
   fun:XSetLocaleModifiers
   fun:X11_InitKeyboard
   fun:X11_VideoInit.lto_priv.0
   fun:SDL_VideoInit_REAL
   fun:SDL_InitSubSystem_REAL.part.0
   fun:engine.sdl_init
   fun:main.main
}
{
   <insert_a_suppression_name_here>
   Memcheck:Leak
   match-leak-kinds: reachable
   fun:calloc
   fun:create.lto_priv.0
   fun:_XlcCreateLC
   fun:_XlcUtf8Loader
   fun:_XOpenLC
   fun:XSetLocaleModifiers
   fun:X11_InitKeyboard
   fun:X11_VideoInit.lto_priv.0
   fun:SDL_VideoInit_REAL
   fun:SDL_InitSubSystem_REAL.part.0
   fun:engine.sdl_init
   fun:main.main
}
{
   <insert_a_suppression_name_here>
   Memcheck:Leak
   match-leak-kinds: reachable
   fun:realloc
   fun:_XlcResolveLocaleName
   fun:initialize.lto_priv.1
   fun:initialize.lto_priv.0
   fun:_XlcCreateLC
   fun:_XlcUtf8Loader
   fun:_XOpenLC
   fun:XSetLocaleModifiers
   fun:X11_InitKeyboard
   fun:X11_VideoInit.lto_priv.0
   fun:SDL_VideoInit_REAL
   fun:SDL_InitSubSystem_REAL.part.0
}
{
   <insert_a_suppression_name_here>
   Memcheck:Leak
   match-leak-kinds: reachable
   fun:_ZnwmSt11align_val_t
   fun:Allocate
   fun:allocateWithKey<llvm::MallocAllocator>
   fun:create<llvm::MallocAllocator, llvm::cl::Option*>
   fun:_ZN4llvm9StringMapIPNS_2cl6OptionENS_15MallocAllocatorEE11try_emplaceIJS3_EEESt4pairINS_17StringMapIteratorIS3_EEbENS_9StringRefEDpOT_
   fun:insert
   fun:_ZN12_GLOBAL__N_117CommandLineParser9addOptionEPN4llvm2cl6OptionEPNS2_10SubCommandE
   fun:addOption
   fun:_ZN4llvm2cl6Option11addArgumentEv
   fun:done
   fun:opt<char [8], llvm::cl::initializer<llvm::ScheduleDAGInstrs* (*)(llvm::MachineSchedContext*)>, llvm::cl::OptionHidden, llvm::cl::desc>
   fun:_Z41__static_initialization_and_destruction_0v
   fun:call_init
   fun:call_init
   fun:_dl_init
   fun:_dl_catch_exception
   fun:dl_open_worker
   fun:_dl_catch_exception
   fun:_dl_open
   fun:dlopen_doit
}
{
   <insert_a_suppression_name_here>
   Memcheck:Leak
   match-leak-kinds: reachable
   fun:_ZnwmSt11align_val_t
   fun:Allocate
   fun:allocateWithKey<llvm::MallocAllocator>
   fun:create<llvm::MallocAllocator, llvm::cl::Option*>
   fun:_ZN4llvm9StringMapIPNS_2cl6OptionENS_15MallocAllocatorEE11try_emplaceIJS3_EEESt4pairINS_17StringMapIteratorIS3_EEbENS_9StringRefEDpOT_
   fun:insert
   fun:_ZN12_GLOBAL__N_117CommandLineParser9addOptionEPN4llvm2cl6OptionEPNS2_10SubCommandE
   fun:addOption
   fun:_ZN4llvm2cl6Option11addArgumentEv
   fun:done
   fun:opt<char [8], llvm::cl::initializer<bool>, llvm::cl::OptionHidden, llvm::cl::desc>
   fun:__static_initialization_and_destruction_0
   fun:_GLOBAL__sub_I_IndirectCallPromotion.cpp
   fun:call_init
   fun:call_init
   fun:_dl_init
   fun:_dl_catch_exception
   fun:dl_open_worker
   fun:_dl_catch_exception
   fun:_dl_open
   fun:dlopen_doit
}
{
   <insert_a_suppression_name_here>
   Memcheck:Leak
   match-leak-kinds: reachable
   fun:_ZnwmSt11align_val_t
   fun:Allocate
   fun:allocateWithKey<llvm::MallocAllocator>
   fun:create<llvm::MallocAllocator, llvm::cl::Option*>
   fun:_ZN4llvm9StringMapIPNS_2cl6OptionENS_15MallocAllocatorEE11try_emplaceIJS3_EEESt4pairINS_17StringMapIteratorIS3_EEbENS_9StringRefEDpOT_
   fun:insert
   fun:_ZN12_GLOBAL__N_117CommandLineParser9addOptionEPN4llvm2cl6OptionEPNS2_10SubCommandE
   fun:addOption
   fun:_ZN4llvm2cl6Option11addArgumentEv
   fun:done
   fun:opt<char [8], llvm::cl::initializer<int> >
   fun:__static_initialization_and_destruction_0
   fun:_GLOBAL__sub_I_ThinLTOCodeGenerator.cpp
   fun:call_init
   fun:call_init
   fun:_dl_init
   fun:_dl_catch_exception
   fun:dl_open_worker
   fun:_dl_catch_exception
   fun:_dl_open
   fun:dlopen_doit
}
{
   <insert_a_suppression_name_here>
   Memcheck:Leak
   match-leak-kinds: reachable
   fun:_ZnwmSt11align_val_t
   fun:Allocate
   fun:allocateWithKey<llvm::MallocAllocator>
   fun:create<llvm::MallocAllocator, llvm::cl::Option*>
   fun:_ZN4llvm9StringMapIPNS_2cl6OptionENS_15MallocAllocatorEE11try_emplaceIJS3_EEESt4pairINS_17StringMapIteratorIS3_EEbENS_9StringRefEDpOT_
   fun:insert
   fun:_ZN12_GLOBAL__N_117CommandLineParser9addOptionEPN4llvm2cl6OptionEPNS2_10SubCommandE
   fun:addOption
   fun:_ZN4llvm2cl6Option11addArgumentEv
   fun:done
   fun:opt<char [8], llvm::cl::desc>
   fun:_ZN4llvm2mc28RegisterMCTargetOptionsFlagsC1Ev
   fun:call_init
   fun:call_init
   fun:_dl_init
   fun:_dl_catch_exception
   fun:dl_open_worker
   fun:_dl_catch_exception
   fun:_dl_open
   fun:dlopen_doit
}
{
   <insert_a_suppression_name_here>
   Memcheck:Leak
   match-leak-kinds: reachable
   fun:_ZnwmSt11align_val_t
   fun:Allocate
   fun:allocateWithKey<llvm::MallocAllocator>
   fun:create<llvm::MallocAllocator, llvm::cl::Option*>
   fun:_ZN4llvm9StringMapIPNS_2cl6OptionENS_15MallocAllocatorEE11try_emplaceIJS3_EEESt4pairINS_17StringMapIteratorIS3_EEbENS_9StringRefEDpOT_
   fun:insert
   fun:_ZN12_GLOBAL__N_117CommandLineParser9addOptionEPN4llvm2cl6OptionEPNS2_10SubCommandE
   fun:addOption
   fun:_ZN4llvm2cl6Option11addArgumentEv
   fun:done
   fun:opt<char [8], llvm::cl::OptionHidden, llvm::cl::initializer<bool>, llvm::cl::desc>
   fun:_Z41__static_initialization_and_destruction_0v
   fun:call_init
   fun:call_init
   fun:_dl_init
   fun:_dl_catch_exception
   fun:dl_open_worker
   fun:_dl_catch_exception
   fun:_dl_open
   fun:dlopen_doit
}
{
   <insert_a_suppression_name_here>
   Memcheck:Leak
   match-leak-kinds: reachable
   fun:_ZnwmSt11align_val_t
   fun:Allocate
   fun:allocateWithKey<llvm::MallocAllocator>
   fun:create<llvm::MallocAllocator, llvm::cl::Option*>
   fun:_ZN4llvm9StringMapIPNS_2cl6OptionENS_15MallocAllocatorEE11try_emplaceIJS3_EEESt4pairINS_17StringMapIteratorIS3_EEbENS_9StringRefEDpOT_
   fun:insert
   fun:_ZN12_GLOBAL__N_117CommandLineParser9addOptionEPN4llvm2cl6OptionEPNS2_10SubCommandE
   fun:addOption
   fun:_ZN4llvm2cl6Option11addArgumentEv
   fun:done
   fun:opt<char [8], llvm::cl::OptionHidden, llvm::cl::desc>
   fun:_Z41__static_initialization_and_destruction_0v
   fun:call_init
   fun:call_init
   fun:_dl_init
   fun:_dl_catch_exception
   fun:dl_open_worker
   fun:_dl_catch_exception
   fun:_dl_open
   fun:dlopen_doit
}
{
   <insert_a_suppression_name_here>
   Memcheck:Leak
   match-leak-kinds: reachable
   fun:_ZnwmSt11align_val_t
   fun:Allocate
   fun:allocateWithKey<llvm::MallocAllocator>
   fun:create<llvm::MallocAllocator, llvm::cl::Option*>
   fun:_ZN4llvm9StringMapIPNS_2cl6OptionENS_15MallocAllocatorEE11try_emplaceIJS3_EEESt4pairINS_17StringMapIteratorIS3_EEbENS_9StringRefEDpOT_
   fun:insert
   fun:_ZN12_GLOBAL__N_117CommandLineParser9addOptionEPN4llvm2cl6OptionEPNS2_10SubCommandE
   fun:addOption
   fun:_ZN4llvm2cl6Option11addArgumentEv
   fun:done
   fun:opt<char [8], llvm::cl::OptionHidden, llvm::cl::desc, llvm::cl::initializer<llvm::MSP430Subtarget::HWMultEnum>, llvm::cl::ValuesClass>
   fun:_Z41__static_initialization_and_destruction_0v
   fun:call_init
   fun:call_init
   fun:_dl_init
   fun:_dl_catch_exception
   fun:dl_open_worker
   fun:_dl_catch_exception
   fun:_dl_open
   fun:dlopen_doit
}
{
   <insert_a_suppression_name_here>
   Memcheck:Leak
   match-leak-kinds: reachable
   fun:_ZnwmSt11align_val_t
   fun:Allocate
   fun:allocateWithKey<llvm::MallocAllocator>
   fun:create<llvm::MallocAllocator, llvm::cl::Option*>
   fun:_ZN4llvm9StringMapIPNS_2cl6OptionENS_15MallocAllocatorEE11try_emplaceIJS3_EEESt4pairINS_17StringMapIteratorIS3_EEbENS_9StringRefEDpOT_
   fun:insert
   fun:_ZN12_GLOBAL__N_117CommandLineParser9addOptionEPN4llvm2cl6OptionEPNS2_10SubCommandE
   fun:addOption
   fun:_ZN4llvm2cl6Option11addArgumentEv
   fun:_ZN4llvm14object_creatorIN12_GLOBAL__N_124CommandLineCommonOptionsEE4callEv
   fun:_ZNK4llvm17ManagedStaticBase21RegisterManagedStaticEPFPvvEPFvS1_E
   fun:operator*
   fun:initCommonOptions
   fun:_ZN4llvm2cl23ParseCommandLineOptionsEiPKPKcNS_9StringRefEPNS_11raw_ostreamES2_b
   fun:LLVMParseCommandLineOptions
   fun:ac_init_llvm_target
   fun:__pthread_once_slow.isra.0
   fun:pthread_once@@GLIBC_2.34
   fun:radeonsi_screen_create
}
{
   <insert_a_suppression_name_here>
   Memcheck:Leak
   match-leak-kinds: reachable
   fun:_Znwm
   fun:_ZN4llvm24TargetLoweringObjectFile10InitializeERNS_9MCContextERKNS_13TargetMachineE
   fun:_ZN4llvm27TargetLoweringObjectFileELF10InitializeERNS_9MCContextERKNS_13TargetMachineE
   fun:_ZN4llvm10AsmPrinter16doInitializationERNS_6ModuleE
   fun:_ZN4llvm13FPPassManager16doInitializationERNS_6ModuleE
   fun:runOnModule
   fun:_ZN4llvm6legacy15PassManagerImpl3runERNS_6ModuleE
   fun:ac_compile_module_to_elf
   fun:si_compile_llvm
   fun:si_llvm_build_shader_part
   fun:si_get_shader_part.constprop.0
   fun:si_shader_select_ps_parts
   fun:si_create_shader_variant
   fun:_ZL23si_build_shader_variantP9si_shaderib
}
{
   <insert_a_suppression_name_here>
   Memcheck:Leak
   match-leak-kinds: reachable
   fun:_Znwm
   fun:_M_create<const llvm::LegalizeRuleSet::clampMaxNumElements(unsigned int, llvm::LLT, unsigned int)::<lambda(const llvm::LegalityQuery&)>&>
   fun:_M_init_functor<const llvm::LegalizeRuleSet::clampMaxNumElements(unsigned int, llvm::LLT, unsigned int)::<lambda(const llvm::LegalityQuery&)>&>
   fun:_M_manager
   fun:_M_manager
   fun:_ZNSt17_Function_handlerIFbRKN4llvm13LegalityQueryEEZNS0_15LegalizeRuleSet19clampMaxNumElementsEjNS0_3LLTEjEUlS3_E_E10_M_managerERSt9_Any_dataRKS9_St18_Manager_operation
   fun:function
   fun:LegalizeRule
   fun:push_back
   fun:add
   fun:actionIf
   fun:_ZN4llvm15LegalizeRuleSet19clampMaxNumElementsEjNS_3LLTEj
   fun:_ZN4llvm19AMDGPULegalizerInfoC1ERKNS_12GCNSubtargetERKNS_16GCNTargetMachineE
   fun:_ZN4llvm12GCNSubtargetC1ERKNS_6TripleENS_9StringRefES4_RKNS_16GCNTargetMachineE
   fun:make_unique<llvm::GCNSubtarget, const llvm::Triple&, llvm::StringRef&, llvm::StringRef&, const llvm::GCNTargetMachine&>
   fun:_ZNK4llvm16GCNTargetMachine16getSubtargetImplERKNS_8FunctionE
   fun:_ZN12_GLOBAL__N_127ExpandLargeDivRemLegacyPass13runOnFunctionERN4llvm8FunctionE
   fun:_ZN4llvm13FPPassManager13runOnFunctionERNS_8FunctionE
   fun:_ZN4llvm13FPPassManager11runOnModuleERNS_6ModuleE
   fun:runOnModule
   fun:_ZN4llvm6legacy15PassManagerImpl3runERNS_6ModuleE
   fun:ac_compile_module_to_elf
   fun:si_compile_llvm
}
{
   <insert_a_suppression_name_here>
   Memcheck:Leak
   match-leak-kinds: reachable
   fun:_Znwm
   fun:_M_create<const llvm::LegalizeRuleSet::alignNumElementsTo(unsigned int, llvm::LLT, unsigned int)::<lambda(const llvm::LegalityQuery&)>&>
   fun:_M_init_functor<const llvm::LegalizeRuleSet::alignNumElementsTo(unsigned int, llvm::LLT, unsigned int)::<lambda(const llvm::LegalityQuery&)>&>
   fun:_M_manager
   fun:_M_manager
   fun:_ZNSt17_Function_handlerIFbRKN4llvm13LegalityQueryEEZNS0_15LegalizeRuleSet18alignNumElementsToEjNS0_3LLTEjEUlS3_E_E10_M_managerERSt9_Any_dataRKS9_St18_Manager_operation
   fun:function
   fun:LegalizeRule
   fun:push_back
   fun:add
   fun:actionIf
   fun:alignNumElementsTo
   fun:_ZN4llvm15LegalizeRuleSet25clampMaxNumElementsStrictEjNS_3LLTEj
   fun:_ZN4llvm19AMDGPULegalizerInfoC1ERKNS_12GCNSubtargetERKNS_16GCNTargetMachineE
   fun:_ZN4llvm12GCNSubtargetC1ERKNS_6TripleENS_9StringRefES4_RKNS_16GCNTargetMachineE
   fun:make_unique<llvm::GCNSubtarget, const llvm::Triple&, llvm::StringRef&, llvm::StringRef&, const llvm::GCNTargetMachine&>
   fun:_ZNK4llvm16GCNTargetMachine16getSubtargetImplERKNS_8FunctionE
   fun:_ZN12_GLOBAL__N_127ExpandLargeDivRemLegacyPass13runOnFunctionERN4llvm8FunctionE
   fun:_ZN4llvm13FPPassManager13runOnFunctionERNS_8FunctionE
   fun:_ZN4llvm13FPPassManager11runOnModuleERNS_6ModuleE
   fun:runOnModule
   fun:_ZN4llvm6legacy15PassManagerImpl3runERNS_6ModuleE
   fun:ac_compile_module_to_elf
   fun:si_compile_llvm
}
{
   <insert_a_suppression_name_here>
   Memcheck:Leak
   match-leak-kinds: reachable
   fun:_Znwm
   fun:_M_create<const llvm::LegalizeRuleSet::clampMaxNumElements(unsigned int, llvm::LLT, unsigned int)::<lambda(const llvm::LegalityQuery&)>&>
   fun:_M_init_functor<const llvm::LegalizeRuleSet::clampMaxNumElements(unsigned int, llvm::LLT, unsigned int)::<lambda(const llvm::LegalityQuery&)>&>
   fun:_M_manager
   fun:_M_manager
   fun:_ZNSt17_Function_handlerIFbRKN4llvm13LegalityQueryEEZNS0_15LegalizeRuleSet19clampMaxNumElementsEjNS0_3LLTEjEUlS3_E_E10_M_managerERSt9_Any_dataRKS9_St18_Manager_operation
   fun:function
   fun:LegalizeRule
   fun:push_back
   fun:add
   fun:_ZN4llvm15LegalizeRuleSet8actionIfENS_15LegalizeActions14LegalizeActionESt8functionIFbRKNS_13LegalityQueryEEES3_IFSt4pairIjNS_3LLTEES6_EE
   fun:clampMaxNumElements
   fun:_ZN4llvm15LegalizeRuleSet25clampMaxNumElementsStrictEjNS_3LLTEj
   fun:_ZN4llvm19AMDGPULegalizerInfoC1ERKNS_12GCNSubtargetERKNS_16GCNTargetMachineE
   fun:_ZN4llvm12GCNSubtargetC1ERKNS_6TripleENS_9StringRefES4_RKNS_16GCNTargetMachineE
   fun:make_unique<llvm::GCNSubtarget, const llvm::Triple&, llvm::StringRef&, llvm::StringRef&, const llvm::GCNTargetMachine&>
   fun:_ZNK4llvm16GCNTargetMachine16getSubtargetImplERKNS_8FunctionE
   fun:_ZN12_GLOBAL__N_127ExpandLargeDivRemLegacyPass13runOnFunctionERN4llvm8FunctionE
   fun:_ZN4llvm13FPPassManager13runOnFunctionERNS_8FunctionE
   fun:_ZN4llvm13FPPassManager11runOnModuleERNS_6ModuleE
   fun:runOnModule
   fun:_ZN4llvm6legacy15PassManagerImpl3runERNS_6ModuleE
   fun:ac_compile_module_to_elf
}
{
   <insert_a_suppression_name_here>
   Memcheck:Leak
   match-leak-kinds: reachable
   fun:_Znwm
   fun:_M_create<const llvm::LegalizeRuleSet::clampMinNumElements(unsigned int, llvm::LLT, unsigned int)::<lambda(const llvm::LegalityQuery&)>&>
   fun:_M_init_functor<const llvm::LegalizeRuleSet::clampMinNumElements(unsigned int, llvm::LLT, unsigned int)::<lambda(const llvm::LegalityQuery&)>&>
   fun:_M_manager
   fun:_M_manager
   fun:_ZNSt17_Function_handlerIFbRKN4llvm13LegalityQueryEEZNS0_15LegalizeRuleSet19clampMinNumElementsEjNS0_3LLTEjEUlS3_E_E10_M_managerERSt9_Any_dataRKS9_St18_Manager_operation
   fun:function
   fun:LegalizeRule
   fun:push_back
   fun:add
   fun:_ZN4llvm15LegalizeRuleSet8actionIfENS_15LegalizeActions14LegalizeActionESt8functionIFbRKNS_13LegalityQueryEEES3_IFSt4pairIjNS_3LLTEES6_EE
   fun:clampMinNumElements
   fun:clampNumElements
   fun:_ZN4llvm19AMDGPULegalizerInfoC1ERKNS_12GCNSubtargetERKNS_16GCNTargetMachineE
   fun:_ZN4llvm12GCNSubtargetC1ERKNS_6TripleENS_9StringRefES4_RKNS_16GCNTargetMachineE
   fun:make_unique<llvm::GCNSubtarget, const llvm::Triple&, llvm::StringRef&, llvm::StringRef&, const llvm::GCNTargetMachine&>
   fun:_ZNK4llvm16GCNTargetMachine16getSubtargetImplERKNS_8FunctionE
   fun:_ZN12_GLOBAL__N_127ExpandLargeDivRemLegacyPass13runOnFunctionERN4llvm8FunctionE
   fun:_ZN4llvm13FPPassManager13runOnFunctionERNS_8FunctionE
   fun:_ZN4llvm13FPPassManager11runOnModuleERNS_6ModuleE
   fun:runOnModule
   fun:_ZN4llvm6legacy15PassManagerImpl3runERNS_6ModuleE
   fun:ac_compile_module_to_elf
   fun:si_compile_llvm
}
{
   <insert_a_suppression_name_here>
   Memcheck:Leak
   match-leak-kinds: reachable
   fun:_Znwm
   fun:_M_create<const llvm::LegalizeRuleSet::clampMaxNumElements(unsigned int, llvm::LLT, unsigned int)::<lambda(const llvm::LegalityQuery&)>&>
   fun:_M_init_functor<const llvm::LegalizeRuleSet::clampMaxNumElements(unsigned int, llvm::LLT, unsigned int)::<lambda(const llvm::LegalityQuery&)>&>
   fun:_M_manager
   fun:_M_manager
   fun:_ZNSt17_Function_handlerIFbRKN4llvm13LegalityQueryEEZNS0_15LegalizeRuleSet19clampMaxNumElementsEjNS0_3LLTEjEUlS3_E_E10_M_managerERSt9_Any_dataRKS9_St18_Manager_operation
   fun:function
   fun:LegalizeRule
   fun:push_back
   fun:add
   fun:actionIf
   fun:_ZN4llvm15LegalizeRuleSet19clampMaxNumElementsEjNS_3LLTEj
   fun:clampNumElements
   fun:_ZN4llvm19AMDGPULegalizerInfoC1ERKNS_12GCNSubtargetERKNS_16GCNTargetMachineE
   fun:_ZN4llvm12GCNSubtargetC1ERKNS_6TripleENS_9StringRefES4_RKNS_16GCNTargetMachineE
   fun:make_unique<llvm::GCNSubtarget, const llvm::Triple&, llvm::StringRef&, llvm::StringRef&, const llvm::GCNTargetMachine&>
   fun:_ZNK4llvm16GCNTargetMachine16getSubtargetImplERKNS_8FunctionE
   fun:_ZN12_GLOBAL__N_127ExpandLargeDivRemLegacyPass13runOnFunctionERN4llvm8FunctionE
   fun:_ZN4llvm13FPPassManager13runOnFunctionERNS_8FunctionE
   fun:_ZN4llvm13FPPassManager11runOnModuleERNS_6ModuleE
   fun:runOnModule
   fun:_ZN4llvm6legacy15PassManagerImpl3runERNS_6ModuleE
   fun:ac_compile_module_to_elf
   fun:si_compile_llvm
}
{
   <insert_a_suppression_name_here>
   Memcheck:Leak
   match-leak-kinds: reachable
   fun:_Znwm
   fun:_M_create<const llvm::LegalizeRuleSet::clampMaxNumElements(unsigned int, llvm::LLT, unsigned int)::<lambda(const llvm::LegalityQuery&)>&>
   fun:_M_init_functor<const llvm::LegalizeRuleSet::clampMaxNumElements(unsigned int, llvm::LLT, unsigned int)::<lambda(const llvm::LegalityQuery&)>&>
   fun:_M_manager
   fun:_M_manager
   fun:_ZNSt17_Function_handlerIFbRKN4llvm13LegalityQueryEEZNS0_15LegalizeRuleSet19clampMaxNumElementsEjNS0_3LLTEjEUlS3_E_E10_M_managerERSt9_Any_dataRKS9_St18_Manager_operation
   fun:function
   fun:LegalizeRule
   fun:push_back
   fun:add
   fun:actionIf
   fun:_ZN4llvm15LegalizeRuleSet19clampMaxNumElementsEjNS_3LLTEj
   fun:_ZN4llvm19AMDGPULegalizerInfoC1ERKNS_12GCNSubtargetERKNS_16GCNTargetMachineE
   fun:_ZN4llvm12GCNSubtargetC1ERKNS_6TripleENS_9StringRefES4_RKNS_16GCNTargetMachineE
   fun:make_unique<llvm::GCNSubtarget, const llvm::Triple&, llvm::StringRef&, llvm::StringRef&, const llvm::GCNTargetMachine&>
   fun:_ZNK4llvm16GCNTargetMachine16getSubtargetImplERKNS_8FunctionE
   fun:getSubtarget<llvm::GCNSubtarget>
   fun:_ZN4llvm16AMDGPUAsmPrinter18initializeTargetIDERKNS_6ModuleE
   fun:_ZN4llvm16AMDGPUAsmPrinter18initTargetStreamerERNS_6ModuleE
   fun:_ZN4llvm16AMDGPUAsmPrinter20runOnMachineFunctionERNS_15MachineFunctionE
   fun:_ZN4llvm19MachineFunctionPass13runOnFunctionERNS_8FunctionE.part.0
   fun:_ZN4llvm13FPPassManager13runOnFunctionERNS_8FunctionE
   fun:_ZN4llvm13FPPassManager11runOnModuleERNS_6ModuleE
}
{
   <insert_a_suppression_name_here>
   Memcheck:Leak
   match-leak-kinds: reachable
   fun:_Znwm
   fun:_M_create<const llvm::LegalizeRuleSet::alignNumElementsTo(unsigned int, llvm::LLT, unsigned int)::<lambda(const llvm::LegalityQuery&)>&>
   fun:_M_init_functor<const llvm::LegalizeRuleSet::alignNumElementsTo(unsigned int, llvm::LLT, unsigned int)::<lambda(const llvm::LegalityQuery&)>&>
   fun:_M_manager
   fun:_M_manager
   fun:_ZNSt17_Function_handlerIFbRKN4llvm13LegalityQueryEEZNS0_15LegalizeRuleSet18alignNumElementsToEjNS0_3LLTEjEUlS3_E_E10_M_managerERSt9_Any_dataRKS9_St18_Manager_operation
   fun:function
   fun:LegalizeRule
   fun:push_back
   fun:add
   fun:actionIf
   fun:alignNumElementsTo
   fun:_ZN4llvm15LegalizeRuleSet25clampMaxNumElementsStrictEjNS_3LLTEj
   fun:_ZN4llvm19AMDGPULegalizerInfoC1ERKNS_12GCNSubtargetERKNS_16GCNTargetMachineE
   fun:_ZN4llvm12GCNSubtargetC1ERKNS_6TripleENS_9StringRefES4_RKNS_16GCNTargetMachineE
   fun:make_unique<llvm::GCNSubtarget, const llvm::Triple&, llvm::StringRef&, llvm::StringRef&, const llvm::GCNTargetMachine&>
   fun:_ZNK4llvm16GCNTargetMachine16getSubtargetImplERKNS_8FunctionE
   fun:getSubtarget<llvm::GCNSubtarget>
   fun:_ZN4llvm16AMDGPUAsmPrinter18initializeTargetIDERKNS_6ModuleE
   fun:_ZN4llvm16AMDGPUAsmPrinter18initTargetStreamerERNS_6ModuleE
   fun:_ZN4llvm16AMDGPUAsmPrinter20runOnMachineFunctionERNS_15MachineFunctionE
   fun:_ZN4llvm19MachineFunctionPass13runOnFunctionERNS_8FunctionE.part.0
   fun:_ZN4llvm13FPPassManager13runOnFunctionERNS_8FunctionE
   fun:_ZN4llvm13FPPassManager11runOnModuleERNS_6ModuleE
}
{
   <insert_a_suppression_name_here>
   Memcheck:Leak
   match-leak-kinds: reachable
   fun:_Znwm
   fun:_M_create<const llvm::LegalizeRuleSet::clampMaxNumElements(unsigned int, llvm::LLT, unsigned int)::<lambda(const llvm::LegalityQuery&)>&>
   fun:_M_init_functor<const llvm::LegalizeRuleSet::clampMaxNumElements(unsigned int, llvm::LLT, unsigned int)::<lambda(const llvm::LegalityQuery&)>&>
   fun:_M_manager
   fun:_M_manager
   fun:_ZNSt17_Function_handlerIFbRKN4llvm13LegalityQueryEEZNS0_15LegalizeRuleSet19clampMaxNumElementsEjNS0_3LLTEjEUlS3_E_E10_M_managerERSt9_Any_dataRKS9_St18_Manager_operation
   fun:function
   fun:LegalizeRule
   fun:push_back
   fun:add
   fun:_ZN4llvm15LegalizeRuleSet8actionIfENS_15LegalizeActions14LegalizeActionESt8functionIFbRKNS_13LegalityQueryEEES3_IFSt4pairIjNS_3LLTEES6_EE
   fun:clampMaxNumElements
   fun:_ZN4llvm15LegalizeRuleSet25clampMaxNumElementsStrictEjNS_3LLTEj
   fun:_ZN4llvm19AMDGPULegalizerInfoC1ERKNS_12GCNSubtargetERKNS_16GCNTargetMachineE
   fun:_ZN4llvm12GCNSubtargetC1ERKNS_6TripleENS_9StringRefES4_RKNS_16GCNTargetMachineE
   fun:make_unique<llvm::GCNSubtarget, const llvm::Triple&, llvm::StringRef&, llvm::StringRef&, const llvm::GCNTargetMachine&>
   fun:_ZNK4llvm16GCNTargetMachine16getSubtargetImplERKNS_8FunctionE
   fun:getSubtarget<llvm::GCNSubtarget>
   fun:_ZN4llvm16AMDGPUAsmPrinter18initializeTargetIDERKNS_6ModuleE
   fun:_ZN4llvm16AMDGPUAsmPrinter18initTargetStreamerERNS_6ModuleE
   fun:_ZN4llvm16AMDGPUAsmPrinter20runOnMachineFunctionERNS_15MachineFunctionE
   fun:_ZN4llvm19MachineFunctionPass13runOnFunctionERNS_8FunctionE.part.0
   fun:_ZN4llvm13FPPassManager13runOnFunctionERNS_8FunctionE
}
{
   <insert_a_suppression_name_here>
   Memcheck:Leak
   match-leak-kinds: reachable
   fun:_Znwm
   fun:_M_create<const llvm::LegalizeRuleSet::clampMinNumElements(unsigned int, llvm::LLT, unsigned int)::<lambda(const llvm::LegalityQuery&)>&>
   fun:_M_init_functor<const llvm::LegalizeRuleSet::clampMinNumElements(unsigned int, llvm::LLT, unsigned int)::<lambda(const llvm::LegalityQuery&)>&>
   fun:_M_manager
   fun:_M_manager
   fun:_ZNSt17_Function_handlerIFbRKN4llvm13LegalityQueryEEZNS0_15LegalizeRuleSet19clampMinNumElementsEjNS0_3LLTEjEUlS3_E_E10_M_managerERSt9_Any_dataRKS9_St18_Manager_operation
   fun:function
   fun:LegalizeRule
   fun:push_back
   fun:add
   fun:_ZN4llvm15LegalizeRuleSet8actionIfENS_15LegalizeActions14LegalizeActionESt8functionIFbRKNS_13LegalityQueryEEES3_IFSt4pairIjNS_3LLTEES6_EE
   fun:clampMinNumElements
   fun:clampNumElements
   fun:_ZN4llvm19AMDGPULegalizerInfoC1ERKNS_12GCNSubtargetERKNS_16GCNTargetMachineE
   fun:_ZN4llvm12GCNSubtargetC1ERKNS_6TripleENS_9StringRefES4_RKNS_16GCNTargetMachineE
   fun:make_unique<llvm::GCNSubtarget, const llvm::Triple&, llvm::StringRef&, llvm::StringRef&, const llvm::GCNTargetMachine&>
   fun:_ZNK4llvm16GCNTargetMachine16getSubtargetImplERKNS_8FunctionE
   fun:getSubtarget<llvm::GCNSubtarget>
   fun:_ZN4llvm16AMDGPUAsmPrinter18initializeTargetIDERKNS_6ModuleE
   fun:_ZN4llvm16AMDGPUAsmPrinter18initTargetStreamerERNS_6ModuleE
   fun:_ZN4llvm16AMDGPUAsmPrinter20runOnMachineFunctionERNS_15MachineFunctionE
   fun:_ZN4llvm19MachineFunctionPass13runOnFunctionERNS_8FunctionE.part.0
   fun:_ZN4llvm13FPPassManager13runOnFunctionERNS_8FunctionE
   fun:_ZN4llvm13FPPassManager11runOnModuleERNS_6ModuleE
}
{
   <insert_a_suppression_name_here>
   Memcheck:Leak
   match-leak-kinds: reachable
   fun:_Znwm
   fun:_M_create<const llvm::LegalizeRuleSet::clampMaxNumElements(unsigned int, llvm::LLT, unsigned int)::<lambda(const llvm::LegalityQuery&)>&>
   fun:_M_init_functor<const llvm::LegalizeRuleSet::clampMaxNumElements(unsigned int, llvm::LLT, unsigned int)::<lambda(const llvm::LegalityQuery&)>&>
   fun:_M_manager
   fun:_M_manager
   fun:_ZNSt17_Function_handlerIFbRKN4llvm13LegalityQueryEEZNS0_15LegalizeRuleSet19clampMaxNumElementsEjNS0_3LLTEjEUlS3_E_E10_M_managerERSt9_Any_dataRKS9_St18_Manager_operation
   fun:function
   fun:LegalizeRule
   fun:push_back
   fun:add
   fun:actionIf
   fun:_ZN4llvm15LegalizeRuleSet19clampMaxNumElementsEjNS_3LLTEj
   fun:clampNumElements
   fun:_ZN4llvm19AMDGPULegalizerInfoC1ERKNS_12GCNSubtargetERKNS_16GCNTargetMachineE
   fun:_ZN4llvm12GCNSubtargetC1ERKNS_6TripleENS_9StringRefES4_RKNS_16GCNTargetMachineE
   fun:make_unique<llvm::GCNSubtarget, const llvm::Triple&, llvm::StringRef&, llvm::StringRef&, const llvm::GCNTargetMachine&>
   fun:_ZNK4llvm16GCNTargetMachine16getSubtargetImplERKNS_8FunctionE
   fun:getSubtarget<llvm::GCNSubtarget>
   fun:_ZN4llvm16AMDGPUAsmPrinter18initializeTargetIDERKNS_6ModuleE
   fun:_ZN4llvm16AMDGPUAsmPrinter18initTargetStreamerERNS_6ModuleE
   fun:_ZN4llvm16AMDGPUAsmPrinter20runOnMachineFunctionERNS_15MachineFunctionE
   fun:_ZN4llvm19MachineFunctionPass13runOnFunctionERNS_8FunctionE.part.0
   fun:_ZN4llvm13FPPassManager13runOnFunctionERNS_8FunctionE
   fun:_ZN4llvm13FPPassManager11runOnModuleERNS_6ModuleE
}
{
   <insert_a_suppression_name_here>
   Memcheck:Leak
   match-leak-kinds: possible
   fun:calloc
   fun:_mesa_new_program_cache
   fun:_mesa_init_program
   fun:init_attrib_groups
   fun:_mesa_initialize_context
   fun:st_create_context
   fun:st_api_create_context
   fun:dri_create_context
   fun:driCreateContextAttribs
   fun:dri3_create_context_attribs
   fun:dri_common_create_context
   fun:CreateContext
   fun:glXCreateContext
}
{
   <insert_a_suppression_name_here>
   Memcheck:Leak
   match-leak-kinds: possible
   fun:_Znwm
   fun:_ZN4llvm25createAMDGPUMCCodeEmitterERKNS_11MCInstrInfoERNS_9MCContextE
   fun:createMCCodeEmitter
   fun:_ZN4llvm17LLVMTargetMachine16createMCStreamerERNS_17raw_pwrite_streamEPS1_NS_15CodeGenFileTypeERNS_9MCContextE
   fun:_ZN4llvm17LLVMTargetMachine13addAsmPrinterERNS_6legacy15PassManagerBaseERNS_17raw_pwrite_streamEPS4_NS_15CodeGenFileTypeERNS_9MCContextE
   fun:_ZN4llvm17LLVMTargetMachine19addPassesToEmitFileERNS_6legacy15PassManagerBaseERNS_17raw_pwrite_streamEPS4_NS_15CodeGenFileTypeEbPNS_28MachineModuleInfoWrapperPassE
   fun:ac_create_llvm_passes
   fun:si_create_llvm_compiler
   fun:si_shader_select_with_key<false, si_shader_key_ge>
   fun:si_shader_select
   fun:_Z17si_update_shadersIL13amd_gfx_level11EL11si_has_tess0EL9si_has_gs0EL10si_has_ngg0EEbP10si_context
   fun:si_draw<(amd_gfx_level)11, (si_has_tess)0, (si_has_gs)0, (si_has_ngg)0, (si_is_draw_vertex_state)0, (si_has_sh_pairs_packed)0, (util_popcnt)0>
   fun:_Z11si_draw_vboIL13amd_gfx_level11EL11si_has_tess0EL9si_has_gs0EL10si_has_ngg0EL22si_has_sh_pairs_packed0EEvP12pipe_contextPK14pipe_draw_infojPK23pipe_draw_indirect_infoPK26pipe_draw_start_count_biasj
   fun:_ZL17si_draw_rectangleP15blitter_contextPvPFS1_S0_Eiiiifj19blitter_attrib_typePK14blitter_attrib
   fun:util_blitter_custom_color
}
{
   <insert_a_suppression_name_here>
   Memcheck:Leak
   match-leak-kinds: possible
   fun:_Znwm
   fun:_ZN4llvm22createAMDGPUAsmBackendERKNS_6TargetERKNS_15MCSubtargetInfoERKNS_14MCRegisterInfoERKNS_15MCTargetOptionsE
   fun:createMCAsmBackend
   fun:_ZN4llvm17LLVMTargetMachine16createMCStreamerERNS_17raw_pwrite_streamEPS1_NS_15CodeGenFileTypeERNS_9MCContextE
   fun:_ZN4llvm17LLVMTargetMachine13addAsmPrinterERNS_6legacy15PassManagerBaseERNS_17raw_pwrite_streamEPS4_NS_15CodeGenFileTypeERNS_9MCContextE
   fun:_ZN4llvm17LLVMTargetMachine19addPassesToEmitFileERNS_6legacy15PassManagerBaseERNS_17raw_pwrite_streamEPS4_NS_15CodeGenFileTypeEbPNS_28MachineModuleInfoWrapperPassE
   fun:ac_create_llvm_passes
   fun:si_create_llvm_compiler
   fun:si_shader_select_with_key<false, si_shader_key_ge>
   fun:si_shader_select
   fun:_Z17si_update_shadersIL13amd_gfx_level11EL11si_has_tess0EL9si_has_gs0EL10si_has_ngg0EEbP10si_context
   fun:si_draw<(amd_gfx_level)11, (si_has_tess)0, (si_has_gs)0, (si_has_ngg)0, (si_is_draw_vertex_state)0, (si_has_sh_pairs_packed)0, (util_popcnt)0>
   fun:_Z11si_draw_vboIL13amd_gfx_level11EL11si_has_tess0EL9si_has_gs0EL10si_has_ngg0EL22si_has_sh_pairs_packed0EEvP12pipe_contextPK14pipe_draw_infojPK23pipe_draw_indirect_infoPK26pipe_draw_start_count_biasj
   fun:_ZL17si_draw_rectangleP15blitter_contextPvPFS1_S0_Eiiiifj19blitter_attrib_typePK14blitter_attrib
   fun:util_blitter_custom_color
}
{
   <insert_a_suppression_name_here>
   Memcheck:Leak
   match-leak-kinds: possible
   fun:_Znwm
   fun:make_unique<llvm::OptimizationRemarkEmitter, llvm::Function*, llvm::BlockFrequencyInfo*&>
   fun:_ZN4llvm36OptimizationRemarkEmitterWrapperPass13runOnFunctionERNS_8FunctionE
   fun:_ZN4llvm13FPPassManager13runOnFunctionERNS_8FunctionE
   fun:_ZN4llvm13FPPassManager11runOnModuleERNS_6ModuleE
   fun:runOnModule
   fun:_ZN4llvm6legacy15PassManagerImpl3runERNS_6ModuleE
   fun:LLVMRunPassManager
   fun:si_llvm_optimize_module
   fun:si_llvm_build_shader_part
   fun:si_get_shader_part.constprop.0
   fun:si_shader_select_ps_parts
   fun:si_create_shader_variant
   fun:_ZL23si_build_shader_variantP9si_shaderib
   fun:si_shader_select_with_key<false, si_shader_key_ge>
   fun:si_shader_select
   fun:_Z17si_update_shadersIL13amd_gfx_level11EL11si_has_tess0EL9si_has_gs0EL10si_has_ngg0EEbP10si_context
}
{
   <insert_a_suppression_name_here>
   Memcheck:Leak
   match-leak-kinds: possible
   fun:_Znwm
   fun:make_unique<llvm::OptimizationRemarkEmitter, const llvm::Function*>
   fun:_ZN4llvm16SelectionDAGISel20runOnMachineFunctionERNS_15MachineFunctionE.part.0
   fun:_ZN4llvm16SelectionDAGISel20runOnMachineFunctionERNS_15MachineFunctionE
   fun:_ZN4llvm19MachineFunctionPass13runOnFunctionERNS_8FunctionE.part.0
   fun:_ZN4llvm13FPPassManager13runOnFunctionERNS_8FunctionE
   fun:RunPassOnSCC
   fun:RunAllPassesOnSCC
   fun:_ZN12_GLOBAL__N_113CGPassManager11runOnModuleERN4llvm6ModuleE
   fun:runOnModule
   fun:_ZN4llvm6legacy15PassManagerImpl3runERNS_6ModuleE
   fun:ac_compile_module_to_elf
   fun:si_compile_llvm
   fun:si_llvm_build_shader_part
   fun:si_get_shader_part.constprop.0
   fun:si_shader_select_ps_parts
   fun:si_create_shader_variant
}
{
   <insert_a_suppression_name_here>
   Memcheck:Leak
   match-leak-kinds: possible
   fun:malloc
   fun:safe_malloc
   fun:_ZN4llvm15SmallVectorBaseIjE13mallocForGrowEPvmmRm
   fun:mallocForGrow
   fun:growAndEmplaceBack<const std::piecewise_construct_t&, std::tuple<llvm::MachineBasicBlock*&&>, std::tuple<(anonymous namespace)::SIInsertWaitcnts::BlockInfo&&> >
   fun:emplace_back<const std::piecewise_construct_t&, std::tuple<llvm::MachineBasicBlock*&&>, std::tuple<(anonymous namespace)::SIInsertWaitcnts::BlockInfo&&> >
   fun:try_emplace<(anonymous namespace)::SIInsertWaitcnts::BlockInfo>
   fun:insert
   fun:_ZN12_GLOBAL__N_116SIInsertWaitcnts20runOnMachineFunctionERN4llvm15MachineFunctionE
   fun:_ZN4llvm19MachineFunctionPass13runOnFunctionERNS_8FunctionE.part.0
   fun:_ZN4llvm13FPPassManager13runOnFunctionERNS_8FunctionE
   fun:RunPassOnSCC
   fun:RunAllPassesOnSCC
   fun:_ZN12_GLOBAL__N_113CGPassManager11runOnModuleERN4llvm6ModuleE
   fun:runOnModule
   fun:_ZN4llvm6legacy15PassManagerImpl3runERNS_6ModuleE
   fun:ac_compile_module_to_elf
   fun:si_compile_llvm
   fun:si_llvm_build_shader_part
   fun:si_get_shader_part.constprop.0
   fun:si_shader_select_ps_parts
   fun:si_create_shader_variant
}
{
   <insert_a_suppression_name_here>
   Memcheck:Leak
   match-leak-kinds: possible
   fun:malloc
   fun:safe_malloc
   fun:_ZN4llvm15SmallVectorBaseIjE8grow_podEPvmm
   fun:grow_pod
   fun:grow
   fun:reserveForParamAndGetAddressImpl<llvm::SmallVectorTemplateBase<std::pair<unsigned int, llvm::AsmPrinter::MBBSectionRange>, true> >
   fun:reserveForParamAndGetAddress
   fun:push_back
   fun:operator[]
   fun:_ZN4llvm10AsmPrinter16emitFunctionBodyEv
   fun:_ZN4llvm16AMDGPUAsmPrinter20runOnMachineFunctionERNS_15MachineFunctionE
   fun:_ZN4llvm19MachineFunctionPass13runOnFunctionERNS_8FunctionE.part.0
   fun:_ZN4llvm13FPPassManager13runOnFunctionERNS_8FunctionE
   fun:_ZN4llvm13FPPassManager11runOnModuleERNS_6ModuleE
   fun:runOnModule
   fun:_ZN4llvm6legacy15PassManagerImpl3runERNS_6ModuleE
   fun:ac_compile_module_to_elf
   fun:si_compile_llvm
   fun:si_llvm_build_shader_part
   fun:si_get_shader_part.constprop.0
}
{
   <insert_a_suppression_name_here>
   Memcheck:Leak
   match-leak-kinds: possible
   fun:_Znam
   fun:_ZN4llvm17RegisterClassInfo20runOnMachineFunctionERKNS_15MachineFunctionE
   fun:_ZN4llvm8RAGreedy20runOnMachineFunctionERNS_15MachineFunctionE
   fun:_ZN4llvm19MachineFunctionPass13runOnFunctionERNS_8FunctionE.part.0
   fun:_ZN4llvm13FPPassManager13runOnFunctionERNS_8FunctionE
   fun:RunPassOnSCC
   fun:RunAllPassesOnSCC
   fun:_ZN12_GLOBAL__N_113CGPassManager11runOnModuleERN4llvm6ModuleE
   fun:runOnModule
   fun:_ZN4llvm6legacy15PassManagerImpl3runERNS_6ModuleE
   fun:ac_compile_module_to_elf
   fun:si_compile_llvm
   fun:si_llvm_build_shader_part
   fun:si_get_shader_part.constprop.0
   fun:si_shader_select_ps_parts
   fun:si_create_shader_variant
}
{
   <insert_a_suppression_name_here>
   Memcheck:Leak
   match-leak-kinds: indirect
   fun:malloc
   obj:*
   fun:SDL_DBus_Init_Spinlocked.lto_priv.0
   fun:UnknownInlinedFun
   fun:SDL_InitSubSystem_REAL.part.0
   fun:engine.sdl_init
   fun:main.main
   fun:main
}
{
   <insert_a_suppression_name_here>
   Memcheck:Leak
   match-leak-kinds: indirect
   fun:malloc
   obj:*
   obj:*
   fun:SDL_DBus_Init_Spinlocked.lto_priv.0
   fun:UnknownInlinedFun
   fun:SDL_InitSubSystem_REAL.part.0
   fun:engine.sdl_init
   fun:main.main
   fun:main
}
{
   <insert_a_suppression_name_here>
   Memcheck:Leak
   match-leak-kinds: reachable
   fun:_ZnwmSt11align_val_t
   fun:Allocate
   fun:allocateWithKey<llvm::MallocAllocator>
   fun:create<llvm::MallocAllocator, llvm::cl::Option*>
   fun:_ZN4llvm9StringMapIPNS_2cl6OptionENS_15MallocAllocatorEE11try_emplaceIJS3_EEESt4pairINS_17StringMapIteratorIS3_EEbENS_9StringRefEDpOT_
   fun:insert
   fun:_ZN12_GLOBAL__N_117CommandLineParser9addOptionEPN4llvm2cl6OptionEPNS2_10SubCommandE
   fun:addOption
   fun:_ZN4llvm2cl6Option11addArgumentEv
   fun:done
   fun:_ZN4llvm2cl3optIPFPNS_12FunctionPassEvELb0ENS_18RegisterPassParserINS_16RegisterRegAllocEEEEC1IJA9_cNS0_12OptionHiddenENS0_11initializerIS5_EENS0_4descEEEEDpRKT_
   fun:_Z41__static_initialization_and_destruction_0v
   fun:call_init
   fun:call_init
   fun:_dl_init
   fun:_dl_catch_exception
   fun:dl_open_worker
   fun:_dl_catch_exception
   fun:_dl_open
}
{
   <insert_a_suppression_name_here>
   Memcheck:Leak
   match-leak-kinds: reachable
   fun:_ZnwmSt11align_val_t
   fun:Allocate
   fun:allocateWithKey<llvm::MallocAllocator>
   fun:create<llvm::MallocAllocator, llvm::cl::Option*>
   fun:_ZN4llvm9StringMapIPNS_2cl6OptionENS_15MallocAllocatorEE11try_emplaceIJS3_EEESt4pairINS_17StringMapIteratorIS3_EEbENS_9StringRefEDpOT_
   fun:insert
   fun:_ZN12_GLOBAL__N_117CommandLineParser9addOptionEPN4llvm2cl6OptionEPNS2_10SubCommandE
   fun:addOption
   fun:_ZN4llvm2cl6Option11addArgumentEv
   fun:done
   fun:opt<char [9], llvm::cl::desc, llvm::cl::initializer<bool>, llvm::cl::OptionHidden>
   fun:__static_initialization_and_destruction_0
   fun:_GLOBAL__sub_I_SelectionDAGISel.cpp
   fun:call_init
   fun:call_init
   fun:_dl_init
   fun:_dl_catch_exception
   fun:dl_open_worker
   fun:_dl_catch_exception
   fun:_dl_open
   fun:dlopen_doit
}
{
   <insert_a_suppression_name_here>
   Memcheck:Leak
   match-leak-kinds: reachable
   fun:_ZnwmSt11align_val_t
   fun:Allocate
   fun:allocateWithKey<llvm::MallocAllocator>
   fun:create<llvm::MallocAllocator, llvm::cl::Option*>
   fun:_ZN4llvm9StringMapIPNS_2cl6OptionENS_15MallocAllocatorEE11try_emplaceIJS3_EEESt4pairINS_17StringMapIteratorIS3_EEbENS_9StringRefEDpOT_
   fun:insert
   fun:_ZN12_GLOBAL__N_117CommandLineParser9addOptionEPN4llvm2cl6OptionEPNS2_10SubCommandE
   fun:addOption
   fun:_ZN4llvm2cl6Option11addArgumentEv
   fun:done
   fun:opt<char [9], llvm::cl::desc, llvm::cl::OptionHidden, llvm::cl::initializer<bool> >
   fun:_Z41__static_initialization_and_destruction_0v
   fun:call_init
   fun:call_init
   fun:_dl_init
   fun:_dl_catch_exception
   fun:dl_open_worker
   fun:_dl_catch_exception
   fun:_dl_open
   fun:dlopen_doit
}
{
   <insert_a_suppression_name_here>
   Memcheck:Leak
   match-leak-kinds: reachable
   fun:_ZnwmSt11align_val_t
   fun:Allocate
   fun:allocateWithKey<llvm::MallocAllocator>
   fun:create<llvm::MallocAllocator, llvm::cl::Option*>
   fun:_ZN4llvm9StringMapIPNS_2cl6OptionENS_15MallocAllocatorEE11try_emplaceIJS3_EEESt4pairINS_17StringMapIteratorIS3_EEbENS_9StringRefEDpOT_
   fun:insert
   fun:_ZN12_GLOBAL__N_117CommandLineParser9addOptionEPN4llvm2cl6OptionEPNS2_10SubCommandE
   fun:addOption
   fun:_ZN4llvm2cl6Option11addArgumentEv
   fun:done
   fun:opt<char [9], llvm::cl::OptionHidden, llvm::cl::initializer<int>, llvm::cl::desc>
   fun:__static_initialization_and_destruction_0
   fun:_GLOBAL__sub_I_HexagonSplitDouble.cpp
   fun:call_init
   fun:call_init
   fun:_dl_init
   fun:_dl_catch_exception
   fun:dl_open_worker
   fun:_dl_catch_exception
   fun:_dl_open
   fun:dlopen_doit
}
{
   <insert_a_suppression_name_here>
   Memcheck:Leak
   match-leak-kinds: reachable
   fun:_ZnwmSt11align_val_t
   fun:Allocate
   fun:allocateWithKey<llvm::MallocAllocator>
   fun:create<llvm::MallocAllocator, llvm::cl::Option*>
   fun:_ZN4llvm9StringMapIPNS_2cl6OptionENS_15MallocAllocatorEE11try_emplaceIJS3_EEESt4pairINS_17StringMapIteratorIS3_EEbENS_9StringRefEDpOT_
   fun:insert
   fun:_ZN12_GLOBAL__N_117CommandLineParser9addOptionEPN4llvm2cl6OptionEPNS2_10SubCommandE
   fun:addOption
   fun:_ZN4llvm2cl6Option11addArgumentEv
   fun:done
   fun:opt<char [9], llvm::cl::initializer<bool>, llvm::cl::desc, llvm::cl::OptionHidden>
   fun:__static_initialization_and_destruction_0
   fun:_GLOBAL__sub_I_MipsTargetMachine.cpp
   fun:call_init
   fun:call_init
   fun:_dl_init
   fun:_dl_catch_exception
   fun:dl_open_worker
   fun:_dl_catch_exception
   fun:_dl_open
   fun:dlopen_doit
}
{
   <insert_a_suppression_name_here>
   Memcheck:Leak
   match-leak-kinds: reachable
   fun:_ZnwmSt11align_val_t
   fun:Allocate
   fun:allocateWithKey<llvm::MallocAllocator>
   fun:create<llvm::MallocAllocator, llvm::cl::Option*>
   fun:_ZN4llvm9StringMapIPNS_2cl6OptionENS_15MallocAllocatorEE11try_emplaceIJS3_EEESt4pairINS_17StringMapIteratorIS3_EEbENS_9StringRefEDpOT_
   fun:insert
   fun:_ZN12_GLOBAL__N_117CommandLineParser9addOptionEPN4llvm2cl6OptionEPNS2_10SubCommandE
   fun:addOption
   fun:_ZN4llvm2cl6Option11addArgumentEv
   fun:done
   fun:opt<char [9], llvm::cl::value_desc, llvm::cl::OptionHidden, llvm::cl::desc, llvm::cl::initializer<int> >
   fun:_ZN12_GLOBAL__N_110CreateSeed4callEv
   fun:_ZNK4llvm17ManagedStaticBase21RegisterManagedStaticEPFPvvEPFvS1_E
   fun:operator*
   fun:_ZN4llvm21initRandomSeedOptionsEv
   fun:initCommonOptions
   fun:_ZN4llvm2cl23ParseCommandLineOptionsEiPKPKcNS_9StringRefEPNS_11raw_ostreamES2_b
   fun:LLVMParseCommandLineOptions
   fun:ac_init_llvm_target
   fun:__pthread_once_slow.isra.0
   fun:pthread_once@@GLIBC_2.34
}
{
   <insert_a_suppression_name_here>
   Memcheck:Leak
   match-leak-kinds: reachable
   fun:_ZnwmSt11align_val_t
   fun:Allocate
   fun:allocateWithKey<llvm::MallocAllocator>
   fun:create<llvm::MallocAllocator, llvm::cl::Option*>
   fun:_ZN4llvm9StringMapIPNS_2cl6OptionENS_15MallocAllocatorEE11try_emplaceIJS3_EEESt4pairINS_17StringMapIteratorIS3_EEbENS_9StringRefEDpOT_
   fun:insert
   fun:_ZN12_GLOBAL__N_117CommandLineParser9addOptionEPN4llvm2cl6OptionEPNS2_10SubCommandE
   fun:addOption
   fun:_ZN4llvm2cl6Option11addArgumentEv
   fun:done
   fun:opt<char [10], llvm::cl::OptionHidden, llvm::cl::desc>
   fun:_Z41__static_initialization_and_destruction_0v
   fun:call_init
   fun:call_init
   fun:_dl_init
   fun:_dl_catch_exception
   fun:dl_open_worker
   fun:_dl_catch_exception
   fun:_dl_open
   fun:dlopen_doit
}
{
   <insert_a_suppression_name_here>
   Memcheck:Leak
   match-leak-kinds: reachable
   fun:_ZnwmSt11align_val_t
   fun:Allocate
   fun:allocateWithKey<llvm::MallocAllocator>
   fun:create<llvm::MallocAllocator, llvm::cl::Option*>
   fun:_ZN4llvm9StringMapIPNS_2cl6OptionENS_15MallocAllocatorEE11try_emplaceIJS3_EEESt4pairINS_17StringMapIteratorIS3_EEbENS_9StringRefEDpOT_
   fun:insert
   fun:_ZN12_GLOBAL__N_117CommandLineParser9addOptionEPN4llvm2cl6OptionEPNS2_10SubCommandE
   fun:addOption
   fun:_ZN4llvm2cl6Option11addArgumentEv
   fun:done
   fun:opt<char [10], llvm::cl::initializer<bool>, llvm::cl::OptionHidden, llvm::cl::desc>
   fun:__static_initialization_and_destruction_0
   fun:_GLOBAL__sub_I_ControlHeightReduction.cpp
   fun:call_init
   fun:call_init
   fun:_dl_init
   fun:_dl_catch_exception
   fun:dl_open_worker
   fun:_dl_catch_exception
   fun:_dl_open
   fun:dlopen_doit
}
{
   <insert_a_suppression_name_here>
   Memcheck:Leak
   match-leak-kinds: reachable
   fun:_ZnwmSt11align_val_t
   fun:Allocate
   fun:allocateWithKey<llvm::MallocAllocator>
   fun:create<llvm::MallocAllocator, llvm::cl::Option*>
   fun:_ZN4llvm9StringMapIPNS_2cl6OptionENS_15MallocAllocatorEE11try_emplaceIJS3_EEESt4pairINS_17StringMapIteratorIS3_EEbENS_9StringRefEDpOT_
   fun:insert
   fun:_ZN12_GLOBAL__N_117CommandLineParser9addOptionEPN4llvm2cl6OptionEPNS2_10SubCommandE
   fun:addOption
   fun:_ZN4llvm2cl6Option11addArgumentEv
   fun:__static_initialization_and_destruction_0
   fun:_GLOBAL__sub_I_AliasAnalysisEvaluator.cpp
   fun:call_init
   fun:call_init
   fun:_dl_init
   fun:_dl_catch_exception
   fun:dl_open_worker
   fun:_dl_catch_exception
   fun:_dl_open
   fun:dlopen_doit
}
{
   <insert_a_suppression_name_here>
   Memcheck:Leak
   match-leak-kinds: reachable
   fun:_ZnwmSt11align_val_t
   fun:Allocate
   fun:allocateWithKey<llvm::MallocAllocator>
   fun:create<llvm::MallocAllocator, llvm::cl::Option*>
   fun:_ZN4llvm9StringMapIPNS_2cl6OptionENS_15MallocAllocatorEE11try_emplaceIJS3_EEESt4pairINS_17StringMapIteratorIS3_EEbENS_9StringRefEDpOT_
   fun:insert
   fun:_ZN12_GLOBAL__N_117CommandLineParser9addOptionEPN4llvm2cl6OptionEPNS2_10SubCommandE
   fun:addOption
   fun:_ZN4llvm2cl6Option11addArgumentEv
   fun:done
   fun:opt<char [10], llvm::cl::initializer<bool>, llvm::cl::OptionHidden, llvm::cl::desc>
   fun:_Z41__static_initialization_and_destruction_0v
   fun:call_init
   fun:call_init
   fun:_dl_init
   fun:_dl_catch_exception
   fun:dl_open_worker
   fun:_dl_catch_exception
   fun:_dl_open
   fun:dlopen_doit
}
{
   <insert_a_suppression_name_here>
   Memcheck:Leak
   match-leak-kinds: reachable
   fun:_ZnwmSt11align_val_t
   fun:Allocate
   fun:allocateWithKey<llvm::MallocAllocator>
   fun:create<llvm::MallocAllocator, llvm::cl::Option*>
   fun:_ZN4llvm9StringMapIPNS_2cl6OptionENS_15MallocAllocatorEE11try_emplaceIJS3_EEESt4pairINS_17StringMapIteratorIS3_EEbENS_9StringRefEDpOT_
   fun:insert
   fun:_ZN12_GLOBAL__N_117CommandLineParser9addOptionEPN4llvm2cl6OptionEPNS2_10SubCommandE
   fun:addOption
   fun:_ZN4llvm2cl6Option11addArgumentEv
   fun:done
   fun:opt<char [10], llvm::cl::desc, llvm::cl::initializer<llvm::TargetTransformInfo::TargetCostKind>, llvm::cl::ValuesClass>
   fun:_Z41__static_initialization_and_destruction_0v
   fun:call_init
   fun:call_init
   fun:_dl_init
   fun:_dl_catch_exception
   fun:dl_open_worker
   fun:_dl_catch_exception
   fun:_dl_open
   fun:dlopen_doit
}
{
   <insert_a_suppression_name_here>
   Memcheck:Leak
   match-leak-kinds: reachable
   fun:_ZnwmSt11align_val_t
   fun:Allocate
   fun:allocateWithKey<llvm::MallocAllocator>
   fun:create<llvm::MallocAllocator, llvm::cl::Option*>
   fun:_ZN4llvm9StringMapIPNS_2cl6OptionENS_15MallocAllocatorEE11try_emplaceIJS3_EEESt4pairINS_17StringMapIteratorIS3_EEbENS_9StringRefEDpOT_
   fun:insert
   fun:_ZN12_GLOBAL__N_117CommandLineParser9addOptionEPN4llvm2cl6OptionEPNS2_10SubCommandE
   fun:addOption
   fun:_ZN4llvm2cl6Option11addArgumentEv
   fun:done
   fun:opt<char [10], llvm::cl::initializer<int>, llvm::cl::OptionHidden, llvm::cl::desc>
   fun:__static_initialization_and_destruction_0
   fun:_GLOBAL__sub_I_HexagonEarlyIfConv.cpp
   fun:call_init
   fun:call_init
   fun:_dl_init
   fun:_dl_catch_exception
   fun:dl_open_worker
   fun:_dl_catch_exception
   fun:_dl_open
   fun:dlopen_doit
}
{
   <insert_a_suppression_name_here>
   Memcheck:Leak
   match-leak-kinds: reachable
   fun:_ZnwmSt11align_val_t
   fun:Allocate
   fun:allocateWithKey<llvm::MallocAllocator>
   fun:create<llvm::MallocAllocator, llvm::cl::Option*>
   fun:_ZN4llvm9StringMapIPNS_2cl6OptionENS_15MallocAllocatorEE11try_emplaceIJS3_EEESt4pairINS_17StringMapIteratorIS3_EEbENS_9StringRefEDpOT_
   fun:insert
   fun:_ZN12_GLOBAL__N_117CommandLineParser9addOptionEPN4llvm2cl6OptionEPNS2_10SubCommandE
   fun:addOption
   fun:_ZN4llvm2cl6Option11addArgumentEv
   fun:done
   fun:opt<char [10], llvm::cl::initializer<int>, llvm::cl::OptionHidden, llvm::cl::desc>
   fun:__static_initialization_and_destruction_0
   fun:_GLOBAL__sub_I_HexagonNewValueJump.cpp
   fun:call_init
   fun:call_init
   fun:_dl_init
   fun:_dl_catch_exception
   fun:dl_open_worker
   fun:_dl_catch_exception
   fun:_dl_open
   fun:dlopen_doit
}
{
   <insert_a_suppression_name_here>
   Memcheck:Leak
   match-leak-kinds: reachable
   fun:_ZnwmSt11align_val_t
   fun:Allocate
   fun:allocateWithKey<llvm::MallocAllocator>
   fun:create<llvm::MallocAllocator, llvm::cl::Option*>
   fun:_ZN4llvm9StringMapIPNS_2cl6OptionENS_15MallocAllocatorEE11try_emplaceIJS3_EEESt4pairINS_17StringMapIteratorIS3_EEbENS_9StringRefEDpOT_
   fun:insert
   fun:_ZN12_GLOBAL__N_117CommandLineParser9addOptionEPN4llvm2cl6OptionEPNS2_10SubCommandE
   fun:addOption
   fun:_ZN4llvm2cl6Option11addArgumentEv
   fun:done
   fun:opt<char [10], llvm::cl::desc>
   fun:__static_initialization_and_destruction_0
   fun:_GLOBAL__sub_I_HexagonAsmBackend.cpp
   fun:call_init
   fun:call_init
   fun:_dl_init
   fun:_dl_catch_exception
   fun:dl_open_worker
   fun:_dl_catch_exception
   fun:_dl_open
   fun:dlopen_doit
}
{
   <insert_a_suppression_name_here>
   Memcheck:Leak
   match-leak-kinds: reachable
   fun:_ZnwmSt11align_val_t
   fun:Allocate
   fun:allocateWithKey<llvm::MallocAllocator>
   fun:create<llvm::MallocAllocator, llvm::cl::Option*>
   fun:_ZN4llvm9StringMapIPNS_2cl6OptionENS_15MallocAllocatorEE11try_emplaceIJS3_EEESt4pairINS_17StringMapIteratorIS3_EEbENS_9StringRefEDpOT_
   fun:insert
   fun:_ZN12_GLOBAL__N_117CommandLineParser9addOptionEPN4llvm2cl6OptionEPNS2_10SubCommandE
   fun:addOption
   fun:_ZN4llvm2cl6Option11addArgumentEv
   fun:done
   fun:opt<char [10], llvm::cl::initializer<bool>, llvm::cl::desc, llvm::cl::OptionHidden>
   fun:__static_initialization_and_destruction_0
   fun:_GLOBAL__sub_I_MipsSubtarget.cpp
   fun:call_init
   fun:call_init
   fun:_dl_init
   fun:_dl_catch_exception
   fun:dl_open_worker
   fun:_dl_catch_exception
   fun:_dl_open
   fun:dlopen_doit
}
{
   <insert_a_suppression_name_here>
   Memcheck:Leak
   match-leak-kinds: reachable
   fun:_ZnwmSt11align_val_t
   fun:Allocate
   fun:allocateWithKey<llvm::MallocAllocator>
   fun:create<llvm::MallocAllocator, llvm::cl::Option*>
   fun:_ZN4llvm9StringMapIPNS_2cl6OptionENS_15MallocAllocatorEE11try_emplaceIJS3_EEESt4pairINS_17StringMapIteratorIS3_EEbENS_9StringRefEDpOT_
   fun:insert
   fun:_ZN12_GLOBAL__N_117CommandLineParser9addOptionEPN4llvm2cl6OptionEPNS2_10SubCommandE
   fun:operator()
   fun:callback_fn<(anonymous namespace)::CommandLineParser::addOption(llvm::cl::Option*, bool)::<lambda(llvm::cl::SubCommand&)> >
   fun:operator()
   fun:_ZN12_GLOBAL__N_117CommandLineParser17forEachSubCommandERN4llvm2cl6OptionENS1_12function_refIFvRNS2_10SubCommandEEEE.constprop.2
   fun:addOption
   fun:_ZN4llvm2cl6Option11addArgumentEv
   fun:done
   fun:opt<char [10], llvm::cl::desc, llvm::cl::LocationClass<(anonymous namespace)::HelpPrinter>, llvm::cl::OptionHidden, llvm::cl::ValueExpected, llvm::cl::cat, llvm::cl::sub>
   fun:_ZN12_GLOBAL__N_124CommandLineCommonOptionsC1Ev
   fun:_ZN4llvm14object_creatorIN12_GLOBAL__N_124CommandLineCommonOptionsEE4callEv
   fun:_ZNK4llvm17ManagedStaticBase21RegisterManagedStaticEPFPvvEPFvS1_E
   fun:operator*
   fun:initCommonOptions
   fun:_ZN4llvm2cl23ParseCommandLineOptionsEiPKPKcNS_9StringRefEPNS_11raw_ostreamES2_b
   fun:LLVMParseCommandLineOptions
   fun:ac_init_llvm_target
   fun:__pthread_once_slow.isra.0
}
{
   <insert_a_suppression_name_here>
   Memcheck:Leak
   match-leak-kinds: reachable
   fun:_ZnwmSt11align_val_t
   fun:Allocate
   fun:allocateWithKey<llvm::MallocAllocator>
   fun:create<llvm::MallocAllocator, llvm::cl::Option*>
   fun:_ZN4llvm9StringMapIPNS_2cl6OptionENS_15MallocAllocatorEE11try_emplaceIJS3_EEESt4pairINS_17StringMapIteratorIS3_EEbENS_9StringRefEDpOT_
   fun:insert
   fun:_ZN12_GLOBAL__N_117CommandLineParser9addOptionEPN4llvm2cl6OptionEPNS2_10SubCommandE
   fun:addOption
   fun:_ZN4llvm2cl6Option11addArgumentEv
   fun:done
   fun:opt<char [10], llvm::cl::desc, llvm::cl::LocationClass<(anonymous namespace)::HelpPrinter>, llvm::cl::OptionHidden, llvm::cl::ValueExpected, llvm::cl::cat, llvm::cl::sub>
   fun:_ZN12_GLOBAL__N_124CommandLineCommonOptionsC1Ev
   fun:_ZN4llvm14object_creatorIN12_GLOBAL__N_124CommandLineCommonOptionsEE4callEv
   fun:_ZNK4llvm17ManagedStaticBase21RegisterManagedStaticEPFPvvEPFvS1_E
   fun:operator*
   fun:initCommonOptions
   fun:_ZN4llvm2cl23ParseCommandLineOptionsEiPKPKcNS_9StringRefEPNS_11raw_ostreamES2_b
   fun:LLVMParseCommandLineOptions
   fun:ac_init_llvm_target
   fun:__pthread_once_slow.isra.0
   fun:pthread_once@@GLIBC_2.34
}
{
   <insert_a_suppression_name_here>
   Memcheck:Leak
   match-leak-kinds: reachable
   fun:_ZnwmSt11align_val_t
   fun:Allocate
   fun:allocateWithKey<llvm::MallocAllocator>
   fun:create<llvm::MallocAllocator, llvm::cl::Option*>
   fun:_ZN4llvm9StringMapIPNS_2cl6OptionENS_15MallocAllocatorEE11try_emplaceIJS3_EEESt4pairINS_17StringMapIteratorIS3_EEbENS_9StringRefEDpOT_
   fun:insert
   fun:_ZN12_GLOBAL__N_117CommandLineParser9addOptionEPN4llvm2cl6OptionEPNS2_10SubCommandE
   fun:addOption
   fun:_ZN4llvm2cl6Option11addArgumentEv
   fun:done
   fun:opt<char [11], llvm::cl::OptionHidden, llvm::cl::desc, llvm::cl::ValuesClass>
   fun:_Z41__static_initialization_and_destruction_0v
   fun:call_init
   fun:call_init
   fun:_dl_init
   fun:_dl_catch_exception
   fun:dl_open_worker
   fun:_dl_catch_exception
   fun:_dl_open
   fun:dlopen_doit
}
{
   <insert_a_suppression_name_here>
   Memcheck:Leak
   match-leak-kinds: reachable
   fun:_ZnwmSt11align_val_t
   fun:Allocate
   fun:allocateWithKey<llvm::MallocAllocator>
   fun:create<llvm::MallocAllocator, llvm::cl::Option*>
   fun:_ZN4llvm9StringMapIPNS_2cl6OptionENS_15MallocAllocatorEE11try_emplaceIJS3_EEESt4pairINS_17StringMapIteratorIS3_EEbENS_9StringRefEDpOT_
   fun:insert
   fun:_ZN12_GLOBAL__N_117CommandLineParser9addOptionEPN4llvm2cl6OptionEPNS2_10SubCommandE
   fun:addOption
   fun:_ZN4llvm2cl6Option11addArgumentEv
   fun:__static_initialization_and_destruction_0
   fun:_GLOBAL__sub_I_TargetSchedule.cpp
   fun:call_init
   fun:call_init
   fun:_dl_init
   fun:_dl_catch_exception
   fun:dl_open_worker
   fun:_dl_catch_exception
   fun:_dl_open
   fun:dlopen_doit
}
{
   <insert_a_suppression_name_here>
   Memcheck:Leak
   match-leak-kinds: reachable
   fun:_ZnwmSt11align_val_t
   fun:Allocate
   fun:allocateWithKey<llvm::MallocAllocator>
   fun:create<llvm::MallocAllocator, llvm::cl::Option*>
   fun:_ZN4llvm9StringMapIPNS_2cl6OptionENS_15MallocAllocatorEE11try_emplaceIJS3_EEESt4pairINS_17StringMapIteratorIS3_EEbENS_9StringRefEDpOT_
   fun:insert
   fun:_ZN12_GLOBAL__N_117CommandLineParser9addOptionEPN4llvm2cl6OptionEPNS2_10SubCommandE
   fun:addOption
   fun:_ZN4llvm2cl6Option11addArgumentEv
   fun:done
   fun:opt<char [11], llvm::cl::OptionHidden, llvm::cl::initializer<bool>, llvm::cl::desc>
   fun:_Z41__static_initialization_and_destruction_0v
   fun:call_init
   fun:call_init
   fun:_dl_init
   fun:_dl_catch_exception
   fun:dl_open_worker
   fun:_dl_catch_exception
   fun:_dl_open
   fun:dlopen_doit
}
{
   <insert_a_suppression_name_here>
   Memcheck:Leak
   match-leak-kinds: reachable
   fun:_ZnwmSt11align_val_t
   fun:Allocate
   fun:allocateWithKey<llvm::MallocAllocator>
   fun:create<llvm::MallocAllocator, llvm::cl::Option*>
   fun:_ZN4llvm9StringMapIPNS_2cl6OptionENS_15MallocAllocatorEE11try_emplaceIJS3_EEESt4pairINS_17StringMapIteratorIS3_EEbENS_9StringRefEDpOT_
   fun:insert
   fun:_ZN12_GLOBAL__N_117CommandLineParser9addOptionEPN4llvm2cl6OptionEPNS2_10SubCommandE
   fun:addOption
   fun:_ZN4llvm2cl6Option11addArgumentEv
   fun:done
   fun:opt<char [11], llvm::cl::desc, llvm::cl::OptionHidden, llvm::cl::initializer<bool> >
   fun:_Z41__static_initialization_and_destruction_0v
   fun:call_init
   fun:call_init
   fun:_dl_init
   fun:_dl_catch_exception
   fun:dl_open_worker
   fun:_dl_catch_exception
   fun:_dl_open
   fun:dlopen_doit
}
{
   <insert_a_suppression_name_here>
   Memcheck:Leak
   match-leak-kinds: reachable
   fun:_ZnwmSt11align_val_t
   fun:Allocate
   fun:allocateWithKey<llvm::MallocAllocator>
   fun:create<llvm::MallocAllocator, llvm::cl::Option*>
   fun:_ZN4llvm9StringMapIPNS_2cl6OptionENS_15MallocAllocatorEE11try_emplaceIJS3_EEESt4pairINS_17StringMapIteratorIS3_EEbENS_9StringRefEDpOT_
   fun:insert
   fun:_ZN12_GLOBAL__N_117CommandLineParser9addOptionEPN4llvm2cl6OptionEPNS2_10SubCommandE
   fun:addOption
   fun:_ZN4llvm2cl6Option11addArgumentEv
   fun:done
   fun:opt<char [11], llvm::cl::desc, llvm::cl::OptionHidden, llvm::cl::initializer<int> >
   fun:_Z41__static_initialization_and_destruction_0v
   fun:call_init
   fun:call_init
   fun:_dl_init
   fun:_dl_catch_exception
   fun:dl_open_worker
   fun:_dl_catch_exception
   fun:_dl_open
   fun:dlopen_doit
}
{
   <insert_a_suppression_name_here>
   Memcheck:Leak
   match-leak-kinds: reachable
   fun:_ZnwmSt11align_val_t
   fun:Allocate
   fun:allocateWithKey<llvm::MallocAllocator>
   fun:create<llvm::MallocAllocator, llvm::cl::Option*>
   fun:_ZN4llvm9StringMapIPNS_2cl6OptionENS_15MallocAllocatorEE11try_emplaceIJS3_EEESt4pairINS_17StringMapIteratorIS3_EEbENS_9StringRefEDpOT_
   fun:insert
   fun:_ZN12_GLOBAL__N_117CommandLineParser9addOptionEPN4llvm2cl6OptionEPNS2_10SubCommandE
   fun:addOption
   fun:_ZN4llvm2cl6Option11addArgumentEv
   fun:__static_initialization_and_destruction_0
   fun:_GLOBAL__sub_I_IndirectCallPromotion.cpp
   fun:call_init
   fun:call_init
   fun:_dl_init
   fun:_dl_catch_exception
   fun:dl_open_worker
   fun:_dl_catch_exception
   fun:_dl_open
   fun:dlopen_doit
}
{
   <insert_a_suppression_name_here>
   Memcheck:Leak
   match-leak-kinds: reachable
   fun:_ZnwmSt11align_val_t
   fun:Allocate
   fun:allocateWithKey<llvm::MallocAllocator>
   fun:create<llvm::MallocAllocator, llvm::cl::Option*>
   fun:_ZN4llvm9StringMapIPNS_2cl6OptionENS_15MallocAllocatorEE11try_emplaceIJS3_EEESt4pairINS_17StringMapIteratorIS3_EEbENS_9StringRefEDpOT_
   fun:insert
   fun:_ZN12_GLOBAL__N_117CommandLineParser9addOptionEPN4llvm2cl6OptionEPNS2_10SubCommandE
   fun:addOption
   fun:_ZN4llvm2cl6Option11addArgumentEv
   fun:done
   fun:opt<char [11], llvm::cl::initializer<bool>, llvm::cl::OptionHidden, llvm::cl::desc>
   fun:_Z41__static_initialization_and_destruction_0v
   fun:call_init
   fun:call_init
   fun:_dl_init
   fun:_dl_catch_exception
   fun:dl_open_worker
   fun:_dl_catch_exception
   fun:_dl_open
   fun:dlopen_doit
}
{
   <insert_a_suppression_name_here>
   Memcheck:Leak
   match-leak-kinds: reachable
   fun:_ZnwmSt11align_val_t
   fun:Allocate
   fun:allocateWithKey<llvm::MallocAllocator>
   fun:create<llvm::MallocAllocator, llvm::cl::Option*>
   fun:_ZN4llvm9StringMapIPNS_2cl6OptionENS_15MallocAllocatorEE11try_emplaceIJS3_EEESt4pairINS_17StringMapIteratorIS3_EEbENS_9StringRefEDpOT_
   fun:insert
   fun:_ZN12_GLOBAL__N_117CommandLineParser9addOptionEPN4llvm2cl6OptionEPNS2_10SubCommandE
   fun:addOption
   fun:_ZN4llvm2cl6Option11addArgumentEv
   fun:done
   fun:opt<char [11], llvm::cl::initializer<bool>, llvm::cl::OptionHidden>
   fun:__static_initialization_and_destruction_0
   fun:_GLOBAL__sub_I_GVN.cpp
   fun:call_init
   fun:call_init
   fun:_dl_init
   fun:_dl_catch_exception
   fun:dl_open_worker
   fun:_dl_catch_exception
   fun:_dl_open
   fun:dlopen_doit
}
{
   <insert_a_suppression_name_here>
   Memcheck:Leak
   match-leak-kinds: reachable
   fun:_ZnwmSt11align_val_t
   fun:Allocate
   fun:allocateWithKey<llvm::MallocAllocator>
   fun:create<llvm::MallocAllocator, llvm::cl::Option*>
   fun:_ZN4llvm9StringMapIPNS_2cl6OptionENS_15MallocAllocatorEE11try_emplaceIJS3_EEESt4pairINS_17StringMapIteratorIS3_EEbENS_9StringRefEDpOT_
   fun:insert
   fun:_ZN12_GLOBAL__N_117CommandLineParser9addOptionEPN4llvm2cl6OptionEPNS2_10SubCommandE
   fun:addOption
   fun:_ZN4llvm2cl6Option11addArgumentEv
   fun:done
   fun:opt<char [11], llvm::cl::OptionHidden, llvm::cl::initializer<bool>, llvm::cl::desc>
   fun:__static_initialization_and_destruction_0
   fun:_GLOBAL__sub_I_SimplifyCFGPass.cpp
   fun:call_init
   fun:call_init
   fun:_dl_init
   fun:_dl_catch_exception
   fun:dl_open_worker
   fun:_dl_catch_exception
   fun:_dl_open
   fun:dlopen_doit
}
{
   <insert_a_suppression_name_here>
   Memcheck:Leak
   match-leak-kinds: reachable
   fun:_ZnwmSt11align_val_t
   fun:Allocate
   fun:allocateWithKey<llvm::MallocAllocator>
   fun:create<llvm::MallocAllocator, llvm::cl::Option*>
   fun:_ZN4llvm9StringMapIPNS_2cl6OptionENS_15MallocAllocatorEE11try_emplaceIJS3_EEESt4pairINS_17StringMapIteratorIS3_EEbENS_9StringRefEDpOT_
   fun:insert
   fun:_ZN12_GLOBAL__N_117CommandLineParser9addOptionEPN4llvm2cl6OptionEPNS2_10SubCommandE
   fun:addOption
   fun:_ZN4llvm2cl6Option11addArgumentEv
   fun:done
   fun:opt<char [11], llvm::cl::OptionHidden, llvm::cl::initializer<bool>, llvm::cl::desc>
   fun:__static_initialization_and_destruction_0
   fun:_GLOBAL__sub_I_GlobalDCE.cpp
   fun:call_init
   fun:call_init
   fun:_dl_init
   fun:_dl_catch_exception
   fun:dl_open_worker
   fun:_dl_catch_exception
   fun:_dl_open
   fun:dlopen_doit
}
{
   <insert_a_suppression_name_here>
   Memcheck:Leak
   match-leak-kinds: reachable
   fun:_ZnwmSt11align_val_t
   fun:Allocate
   fun:allocateWithKey<llvm::MallocAllocator>
   fun:create<llvm::MallocAllocator, llvm::cl::Option*>
   fun:_ZN4llvm9StringMapIPNS_2cl6OptionENS_15MallocAllocatorEE11try_emplaceIJS3_EEESt4pairINS_17StringMapIteratorIS3_EEbENS_9StringRefEDpOT_
   fun:insert
   fun:_ZN12_GLOBAL__N_117CommandLineParser9addOptionEPN4llvm2cl6OptionEPNS2_10SubCommandE
   fun:addOption
   fun:_ZN4llvm2cl6Option11addArgumentEv
   fun:done
   fun:opt<char [11], llvm::cl::initializer<int>, llvm::cl::OptionHidden, llvm::cl::desc>
   fun:_Z41__static_initialization_and_destruction_0v
   fun:call_init
   fun:call_init
   fun:_dl_init
   fun:_dl_catch_exception
   fun:dl_open_worker
   fun:_dl_catch_exception
   fun:_dl_open
   fun:dlopen_doit
}
{
   <insert_a_suppression_name_here>
   Memcheck:Leak
   match-leak-kinds: reachable
   fun:_ZnwmSt11align_val_t
   fun:Allocate
   fun:allocateWithKey<llvm::MallocAllocator>
   fun:create<llvm::MallocAllocator, llvm::cl::Option*>
   fun:_ZN4llvm9StringMapIPNS_2cl6OptionENS_15MallocAllocatorEE11try_emplaceIJS3_EEESt4pairINS_17StringMapIteratorIS3_EEbENS_9StringRefEDpOT_
   fun:insert
   fun:_ZN12_GLOBAL__N_117CommandLineParser9addOptionEPN4llvm2cl6OptionEPNS2_10SubCommandE
   fun:addOption
   fun:_ZN4llvm2cl6Option11addArgumentEv
   fun:done
   fun:opt<char [11], llvm::cl::OptionHidden, llvm::cl::desc, llvm::cl::initializer<char [1]> >
   fun:_ZN4llvm2mc28RegisterMCTargetOptionsFlagsC1Ev
   fun:call_init
   fun:call_init
   fun:_dl_init
   fun:_dl_catch_exception
   fun:dl_open_worker
   fun:_dl_catch_exception
   fun:_dl_open
   fun:dlopen_doit
}
{
   <insert_a_suppression_name_here>
   Memcheck:Leak
   match-leak-kinds: reachable
   fun:_ZnwmSt11align_val_t
   fun:Allocate
   fun:allocateWithKey<llvm::MallocAllocator>
   fun:create<llvm::MallocAllocator, llvm::cl::Option*>
   fun:_ZN4llvm9StringMapIPNS_2cl6OptionENS_15MallocAllocatorEE11try_emplaceIJS3_EEESt4pairINS_17StringMapIteratorIS3_EEbENS_9StringRefEDpOT_
   fun:insert
   fun:_ZN12_GLOBAL__N_117CommandLineParser9addOptionEPN4llvm2cl6OptionEPNS2_10SubCommandE
   fun:addOption
   fun:_ZN4llvm2cl6Option11addArgumentEv
   fun:done
   fun:opt<char [11], llvm::cl::OptionHidden, llvm::cl::desc>
   fun:_Z41__static_initialization_and_destruction_0v
   fun:call_init
   fun:call_init
   fun:_dl_init
   fun:_dl_catch_exception
   fun:dl_open_worker
   fun:_dl_catch_exception
   fun:_dl_open
   fun:dlopen_doit
}
{
   <insert_a_suppression_name_here>
   Memcheck:Leak
   match-leak-kinds: reachable
   fun:_ZnwmSt11align_val_t
   fun:Allocate
   fun:allocateWithKey<llvm::MallocAllocator>
   fun:create<llvm::MallocAllocator, llvm::cl::Option*>
   fun:_ZN4llvm9StringMapIPNS_2cl6OptionENS_15MallocAllocatorEE11try_emplaceIJS3_EEESt4pairINS_17StringMapIteratorIS3_EEbENS_9StringRefEDpOT_
   fun:insert
   fun:_ZN12_GLOBAL__N_117CommandLineParser9addOptionEPN4llvm2cl6OptionEPNS2_10SubCommandE
   fun:addOption
   fun:_ZN4llvm2cl6Option11addArgumentEv
   fun:done
   fun:opt<char [11], llvm::cl::desc, llvm::cl::initializer<bool>, llvm::cl::OptionHidden>
   fun:__static_initialization_and_destruction_0
   fun:_GLOBAL__sub_I_X86SpeculativeLoadHardening.cpp
   fun:call_init
   fun:call_init
   fun:_dl_init
   fun:_dl_catch_exception
   fun:dl_open_worker
   fun:_dl_catch_exception
   fun:_dl_open
   fun:dlopen_doit
}
{
   <insert_a_suppression_name_here>
   Memcheck:Leak
   match-leak-kinds: reachable
   fun:_ZnwmSt11align_val_t
   fun:Allocate
   fun:allocateWithKey<llvm::MallocAllocator>
   fun:create<llvm::MallocAllocator, llvm::cl::Option*>
   fun:_ZN4llvm9StringMapIPNS_2cl6OptionENS_15MallocAllocatorEE11try_emplaceIJS3_EEESt4pairINS_17StringMapIteratorIS3_EEbENS_9StringRefEDpOT_
   fun:insert
   fun:_ZN12_GLOBAL__N_117CommandLineParser9addOptionEPN4llvm2cl6OptionEPNS2_10SubCommandE
   fun:addOption
   fun:_ZN4llvm2cl6Option11addArgumentEv
   fun:done
   fun:opt<char [11], llvm::cl::desc, llvm::cl::LocationClass<bool>, llvm::cl::OptionHidden>
   fun:_ZN4llvm20initStatisticOptionsEv
   fun:initCommonOptions
   fun:_ZN4llvm2cl23ParseCommandLineOptionsEiPKPKcNS_9StringRefEPNS_11raw_ostreamES2_b
   fun:LLVMParseCommandLineOptions
   fun:ac_init_llvm_target
   fun:__pthread_once_slow.isra.0
   fun:pthread_once@@GLIBC_2.34
   fun:radeonsi_screen_create
   fun:pipe_radeonsi_create_screen
}
{
   <insert_a_suppression_name_here>
   Memcheck:Leak
   match-leak-kinds: reachable
   fun:_ZnwmSt11align_val_t
   fun:Allocate
   fun:allocateWithKey<llvm::MallocAllocator>
   fun:create<llvm::MallocAllocator, llvm::cl::Option*>
   fun:_ZN4llvm9StringMapIPNS_2cl6OptionENS_15MallocAllocatorEE11try_emplaceIJS3_EEESt4pairINS_17StringMapIteratorIS3_EEbENS_9StringRefEDpOT_
   fun:insert
   fun:_ZN12_GLOBAL__N_117CommandLineParser9addOptionEPN4llvm2cl6OptionEPNS2_10SubCommandE
   fun:addOption
   fun:_ZN4llvm2cl6Option11addArgumentEv
   fun:done
   fun:opt<char [12], llvm::cl::LocationClass<bool>, llvm::cl::OptionHidden, llvm::cl::desc>
   fun:__static_initialization_and_destruction_0
   fun:_GLOBAL__sub_I_PassTimingInfo.cpp
   fun:call_init
   fun:call_init
   fun:_dl_init
   fun:_dl_catch_exception
   fun:dl_open_worker
   fun:_dl_catch_exception
   fun:_dl_open
   fun:dlopen_doit
}
{
   <insert_a_suppression_name_here>
   Memcheck:Leak
   match-leak-kinds: reachable
   fun:_ZnwmSt11align_val_t
   fun:Allocate
   fun:allocateWithKey<llvm::MallocAllocator>
   fun:create<llvm::MallocAllocator, llvm::cl::Option*>
   fun:_ZN4llvm9StringMapIPNS_2cl6OptionENS_15MallocAllocatorEE11try_emplaceIJS3_EEESt4pairINS_17StringMapIteratorIS3_EEbENS_9StringRefEDpOT_
   fun:insert
   fun:_ZN12_GLOBAL__N_117CommandLineParser9addOptionEPN4llvm2cl6OptionEPNS2_10SubCommandE
   fun:addOption
   fun:_ZN4llvm2cl6Option11addArgumentEv
   fun:done
   fun:list<char [12], llvm::cl::desc, llvm::cl::MiscFlags, llvm::cl::OptionHidden>
   fun:_Z41__static_initialization_and_destruction_0v
   fun:call_init
   fun:call_init
   fun:_dl_init
   fun:_dl_catch_exception
   fun:dl_open_worker
   fun:_dl_catch_exception
   fun:_dl_open
   fun:dlopen_doit
}
{
   <insert_a_suppression_name_here>
   Memcheck:Leak
   match-leak-kinds: reachable
   fun:_ZnwmSt11align_val_t
   fun:Allocate
   fun:allocateWithKey<llvm::MallocAllocator>
   fun:create<llvm::MallocAllocator, llvm::cl::Option*>
   fun:_ZN4llvm9StringMapIPNS_2cl6OptionENS_15MallocAllocatorEE11try_emplaceIJS3_EEESt4pairINS_17StringMapIteratorIS3_EEbENS_9StringRefEDpOT_
   fun:insert
   fun:_ZN12_GLOBAL__N_117CommandLineParser9addOptionEPN4llvm2cl6OptionEPNS2_10SubCommandE
   fun:addOption
   fun:_ZN4llvm2cl6Option11addArgumentEv
   fun:done
   fun:opt<char [12], llvm::cl::initializer<int>, llvm::cl::OptionHidden>
   fun:__static_initialization_and_destruction_0
   fun:_GLOBAL__sub_I_IfConversion.cpp
   fun:call_init
   fun:call_init
   fun:_dl_init
   fun:_dl_catch_exception
   fun:dl_open_worker
   fun:_dl_catch_exception
   fun:_dl_open
   fun:dlopen_doit
}
{
   <insert_a_suppression_name_here>
   Memcheck:Leak
   match-leak-kinds: reachable
   fun:_ZnwmSt11align_val_t
   fun:Allocate
   fun:allocateWithKey<llvm::MallocAllocator>
   fun:create<llvm::MallocAllocator, llvm::cl::Option*>
   fun:_ZN4llvm9StringMapIPNS_2cl6OptionENS_15MallocAllocatorEE11try_emplaceIJS3_EEESt4pairINS_17StringMapIteratorIS3_EEbENS_9StringRefEDpOT_
   fun:insert
   fun:_ZN12_GLOBAL__N_117CommandLineParser9addOptionEPN4llvm2cl6OptionEPNS2_10SubCommandE
   fun:addOption
   fun:_ZN4llvm2cl6Option11addArgumentEv
   fun:done
   fun:opt<char [12], llvm::cl::initializer<bool>, llvm::cl::OptionHidden, llvm::cl::desc>
   fun:_Z41__static_initialization_and_destruction_0v
   fun:call_init
   fun:call_init
   fun:_dl_init
   fun:_dl_catch_exception
   fun:dl_open_worker
   fun:_dl_catch_exception
   fun:_dl_open
   fun:dlopen_doit
}
{
   <insert_a_suppression_name_here>
   Memcheck:Leak
   match-leak-kinds: reachable
   fun:_ZnwmSt11align_val_t
   fun:Allocate
   fun:allocateWithKey<llvm::MallocAllocator>
   fun:create<llvm::MallocAllocator, llvm::cl::Option*>
   fun:_ZN4llvm9StringMapIPNS_2cl6OptionENS_15MallocAllocatorEE11try_emplaceIJS3_EEESt4pairINS_17StringMapIteratorIS3_EEbENS_9StringRefEDpOT_
   fun:insert
   fun:_ZN12_GLOBAL__N_117CommandLineParser9addOptionEPN4llvm2cl6OptionEPNS2_10SubCommandE
   fun:addOption
   fun:_ZN4llvm2cl6Option11addArgumentEv
   fun:done
   fun:opt<char [12], llvm::cl::OptionHidden, llvm::cl::desc>
   fun:_Z41__static_initialization_and_destruction_0v
   fun:call_init
   fun:call_init
   fun:_dl_init
   fun:_dl_catch_exception
   fun:dl_open_worker
   fun:_dl_catch_exception
   fun:_dl_open
   fun:dlopen_doit
}
{
   <insert_a_suppression_name_here>
   Memcheck:Leak
   match-leak-kinds: reachable
   fun:_ZnwmSt11align_val_t
   fun:Allocate
   fun:allocateWithKey<llvm::MallocAllocator>
   fun:create<llvm::MallocAllocator, llvm::cl::Option*>
   fun:_ZN4llvm9StringMapIPNS_2cl6OptionENS_15MallocAllocatorEE11try_emplaceIJS3_EEESt4pairINS_17StringMapIteratorIS3_EEbENS_9StringRefEDpOT_
   fun:insert
   fun:_ZN12_GLOBAL__N_117CommandLineParser9addOptionEPN4llvm2cl6OptionEPNS2_10SubCommandE
   fun:addOption
   fun:_ZN4llvm2cl6Option11addArgumentEv
   fun:done
   fun:opt<char [12], llvm::cl::desc, llvm::cl::OptionHidden, llvm::cl::initializer<bool> >
   fun:_Z41__static_initialization_and_destruction_0v
   fun:call_init
   fun:call_init
   fun:_dl_init
   fun:_dl_catch_exception
   fun:dl_open_worker
   fun:_dl_catch_exception
   fun:_dl_open
   fun:dlopen_doit
}
{
   <insert_a_suppression_name_here>
   Memcheck:Leak
   match-leak-kinds: reachable
   fun:_ZnwmSt11align_val_t
   fun:Allocate
   fun:allocateWithKey<llvm::MallocAllocator>
   fun:create<llvm::MallocAllocator, llvm::cl::Option*>
   fun:_ZN4llvm9StringMapIPNS_2cl6OptionENS_15MallocAllocatorEE11try_emplaceIJS3_EEESt4pairINS_17StringMapIteratorIS3_EEbENS_9StringRefEDpOT_
   fun:insert
   fun:_ZN12_GLOBAL__N_117CommandLineParser9addOptionEPN4llvm2cl6OptionEPNS2_10SubCommandE
   fun:addOption
   fun:_ZN4llvm2cl6Option11addArgumentEv
   fun:done
   fun:opt<char [12], llvm::cl::initializer<bool>, llvm::cl::OptionHidden, llvm::cl::desc>
   fun:__static_initialization_and_destruction_0
   fun:_GLOBAL__sub_I_ControlHeightReduction.cpp
   fun:call_init
   fun:call_init
   fun:_dl_init
   fun:_dl_catch_exception
   fun:dl_open_worker
   fun:_dl_catch_exception
   fun:_dl_open
   fun:dlopen_doit
}
{
   <insert_a_suppression_name_here>
   Memcheck:Leak
   match-leak-kinds: reachable
   fun:_ZnwmSt11align_val_t
   fun:Allocate
   fun:allocateWithKey<llvm::MallocAllocator>
   fun:create<llvm::MallocAllocator, llvm::cl::Option*>
   fun:_ZN4llvm9StringMapIPNS_2cl6OptionENS_15MallocAllocatorEE11try_emplaceIJS3_EEESt4pairINS_17StringMapIteratorIS3_EEbENS_9StringRefEDpOT_
   fun:insert
   fun:_ZN12_GLOBAL__N_117CommandLineParser9addOptionEPN4llvm2cl6OptionEPNS2_10SubCommandE
   fun:addOption
   fun:_ZN4llvm2cl6Option11addArgumentEv
   fun:done
   fun:opt<char [12], llvm::cl::initializer<bool>, llvm::cl::OptionHidden, llvm::cl::desc>
   fun:__static_initialization_and_destruction_0
   fun:_GLOBAL__sub_I_IndirectCallPromotion.cpp
   fun:call_init
   fun:call_init
   fun:_dl_init
   fun:_dl_catch_exception
   fun:dl_open_worker
   fun:_dl_catch_exception
   fun:_dl_open
   fun:dlopen_doit
}
{
   <insert_a_suppression_name_here>
   Memcheck:Leak
   match-leak-kinds: reachable
   fun:_ZnwmSt11align_val_t
   fun:Allocate
   fun:allocateWithKey<llvm::MallocAllocator>
   fun:create<llvm::MallocAllocator, llvm::cl::Option*>
   fun:_ZN4llvm9StringMapIPNS_2cl6OptionENS_15MallocAllocatorEE11try_emplaceIJS3_EEESt4pairINS_17StringMapIteratorIS3_EEbENS_9StringRefEDpOT_
   fun:insert
   fun:_ZN12_GLOBAL__N_117CommandLineParser9addOptionEPN4llvm2cl6OptionEPNS2_10SubCommandE
   fun:addOption
   fun:_ZN4llvm2cl6Option11addArgumentEv
   fun:done
   fun:opt<char [12], llvm::cl::OptionHidden, llvm::cl::initializer<llvm::ReplaceExitVal>, llvm::cl::desc, llvm::cl::ValuesClass>
   fun:_Z41__static_initialization_and_destruction_0v
   fun:call_init
   fun:call_init
   fun:_dl_init
   fun:_dl_catch_exception
   fun:dl_open_worker
   fun:_dl_catch_exception
   fun:_dl_open
   fun:dlopen_doit
}
{
   <insert_a_suppression_name_here>
   Memcheck:Leak
   match-leak-kinds: reachable
   fun:_ZnwmSt11align_val_t
   fun:Allocate
   fun:allocateWithKey<llvm::MallocAllocator>
   fun:create<llvm::MallocAllocator, llvm::cl::Option*>
   fun:_ZN4llvm9StringMapIPNS_2cl6OptionENS_15MallocAllocatorEE11try_emplaceIJS3_EEESt4pairINS_17StringMapIteratorIS3_EEbENS_9StringRefEDpOT_
   fun:insert
   fun:_ZN12_GLOBAL__N_117CommandLineParser9addOptionEPN4llvm2cl6OptionEPNS2_10SubCommandE
   fun:addOption
   fun:_ZN4llvm2cl6Option11addArgumentEv
   fun:done
   fun:opt<char [12], llvm::cl::OptionHidden, llvm::cl::initializer<bool> >
   fun:__static_initialization_and_destruction_0
   fun:_GLOBAL__sub_I_PlaceSafepoints.cpp
   fun:call_init
   fun:call_init
   fun:_dl_init
   fun:_dl_catch_exception
   fun:dl_open_worker
   fun:_dl_catch_exception
   fun:_dl_open
   fun:dlopen_doit
}
{
   <insert_a_suppression_name_here>
   Memcheck:Leak
   match-leak-kinds: reachable
   fun:_ZnwmSt11align_val_t
   fun:Allocate
   fun:allocateWithKey<llvm::MallocAllocator>
   fun:create<llvm::MallocAllocator, llvm::cl::Option*>
   fun:_ZN4llvm9StringMapIPNS_2cl6OptionENS_15MallocAllocatorEE11try_emplaceIJS3_EEESt4pairINS_17StringMapIteratorIS3_EEbENS_9StringRefEDpOT_
   fun:insert
   fun:_ZN12_GLOBAL__N_117CommandLineParser9addOptionEPN4llvm2cl6OptionEPNS2_10SubCommandE
   fun:addOption
   fun:_ZN4llvm2cl6Option11addArgumentEv
   fun:done
   fun:opt<char [12], llvm::cl::initializer<bool>, llvm::cl::OptionHidden, llvm::cl::desc>
   fun:__static_initialization_and_destruction_0
   fun:_GLOBAL__sub_I_CFGPrinter.cpp
   fun:call_init
   fun:call_init
   fun:_dl_init
   fun:_dl_catch_exception
   fun:dl_open_worker
   fun:_dl_catch_exception
   fun:_dl_open
   fun:dlopen_doit
}
{
   <insert_a_suppression_name_here>
   Memcheck:Leak
   match-leak-kinds: reachable
   fun:_ZnwmSt11align_val_t
   fun:Allocate
   fun:allocateWithKey<llvm::MallocAllocator>
   fun:create<llvm::MallocAllocator, llvm::cl::Option*>
   fun:_ZN4llvm9StringMapIPNS_2cl6OptionENS_15MallocAllocatorEE11try_emplaceIJS3_EEESt4pairINS_17StringMapIteratorIS3_EEbENS_9StringRefEDpOT_
   fun:insert
   fun:_ZN12_GLOBAL__N_117CommandLineParser9addOptionEPN4llvm2cl6OptionEPNS2_10SubCommandE
   fun:addOption
   fun:_ZN4llvm2cl6Option11addArgumentEv
   fun:done
   fun:opt<char [12], llvm::cl::OptionHidden, llvm::cl::LocationClass<bool>, llvm::cl::desc>
   fun:_Z41__static_initialization_and_destruction_0v
   fun:call_init
   fun:call_init
   fun:_dl_init
   fun:_dl_catch_exception
   fun:dl_open_worker
   fun:_dl_catch_exception
   fun:_dl_open
   fun:dlopen_doit
}
{
   <insert_a_suppression_name_here>
   Memcheck:Leak
   match-leak-kinds: reachable
   fun:_ZnwmSt11align_val_t
   fun:Allocate
   fun:allocateWithKey<llvm::MallocAllocator>
   fun:create<llvm::MallocAllocator, llvm::cl::Option*>
   fun:_ZN4llvm9StringMapIPNS_2cl6OptionENS_15MallocAllocatorEE11try_emplaceIJS3_EEESt4pairINS_17StringMapIteratorIS3_EEbENS_9StringRefEDpOT_
   fun:insert
   fun:_ZN12_GLOBAL__N_117CommandLineParser9addOptionEPN4llvm2cl6OptionEPNS2_10SubCommandE
   fun:addOption
   fun:_ZN4llvm2cl6Option11addArgumentEv
   fun:done
   fun:opt<char [12], llvm::cl::initializer<bool>, llvm::cl::OptionHidden>
   fun:__static_initialization_and_destruction_0
   fun:_GLOBAL__sub_I_TypeBasedAliasAnalysis.cpp
   fun:call_init
   fun:call_init
   fun:_dl_init
   fun:_dl_catch_exception
   fun:dl_open_worker
   fun:_dl_catch_exception
   fun:_dl_open
   fun:dlopen_doit
}
{
   <insert_a_suppression_name_here>
   Memcheck:Leak
   match-leak-kinds: reachable
   fun:_ZnwmSt11align_val_t
   fun:Allocate
   fun:allocateWithKey<llvm::MallocAllocator>
   fun:create<llvm::MallocAllocator, llvm::cl::Option*>
   fun:_ZN4llvm9StringMapIPNS_2cl6OptionENS_15MallocAllocatorEE11try_emplaceIJS3_EEESt4pairINS_17StringMapIteratorIS3_EEbENS_9StringRefEDpOT_
   fun:insert
   fun:_ZN12_GLOBAL__N_117CommandLineParser9addOptionEPN4llvm2cl6OptionEPNS2_10SubCommandE
   fun:addOption
   fun:_ZN4llvm2cl6Option11addArgumentEv
   fun:done
   fun:opt<char [12], llvm::cl::initializer<bool>, llvm::cl::OptionHidden>
   fun:__static_initialization_and_destruction_0
   fun:_GLOBAL__sub_I_HexagonCommonGEP.cpp
   fun:call_init
   fun:call_init
   fun:_dl_init
   fun:_dl_catch_exception
   fun:dl_open_worker
   fun:_dl_catch_exception
   fun:_dl_open
   fun:dlopen_doit
}
{
   <insert_a_suppression_name_here>
   Memcheck:Leak
   match-leak-kinds: reachable
   fun:_ZnwmSt11align_val_t
   fun:Allocate
   fun:allocateWithKey<llvm::MallocAllocator>
   fun:create<llvm::MallocAllocator, llvm::cl::Option*>
   fun:_ZN4llvm9StringMapIPNS_2cl6OptionENS_15MallocAllocatorEE11try_emplaceIJS3_EEESt4pairINS_17StringMapIteratorIS3_EEbENS_9StringRefEDpOT_
   fun:insert
   fun:_ZN12_GLOBAL__N_117CommandLineParser9addOptionEPN4llvm2cl6OptionEPNS2_10SubCommandE
   fun:addOption
   fun:_ZN4llvm2cl6Option11addArgumentEv
   fun:__static_initialization_and_destruction_0
   fun:_GLOBAL__sub_I_HexagonGenInsert.cpp
   fun:call_init
   fun:call_init
   fun:_dl_init
   fun:_dl_catch_exception
   fun:dl_open_worker
   fun:_dl_catch_exception
   fun:_dl_open
   fun:dlopen_doit
}
{
   <insert_a_suppression_name_here>
   Memcheck:Leak
   match-leak-kinds: reachable
   fun:_ZnwmSt11align_val_t
   fun:Allocate
   fun:allocateWithKey<llvm::MallocAllocator>
   fun:create<llvm::MallocAllocator, llvm::cl::Option*>
   fun:_ZN4llvm9StringMapIPNS_2cl6OptionENS_15MallocAllocatorEE11try_emplaceIJS3_EEESt4pairINS_17StringMapIteratorIS3_EEbENS_9StringRefEDpOT_
   fun:insert
   fun:_ZN12_GLOBAL__N_117CommandLineParser9addOptionEPN4llvm2cl6OptionEPNS2_10SubCommandE
   fun:addOption
   fun:_ZN4llvm2cl6Option11addArgumentEv
   fun:done
   fun:opt<char [12], llvm::cl::OptionHidden, llvm::cl::initializer<bool>, llvm::cl::desc>
   fun:__static_initialization_and_destruction_0
   fun:_GLOBAL__sub_I_HexagonSplitDouble.cpp
   fun:call_init
   fun:call_init
   fun:_dl_init
   fun:_dl_catch_exception
   fun:dl_open_worker
   fun:_dl_catch_exception
   fun:_dl_open
   fun:dlopen_doit
}
{
   <insert_a_suppression_name_here>
   Memcheck:Leak
   match-leak-kinds: reachable
   fun:_ZnwmSt11align_val_t
   fun:Allocate
   fun:allocateWithKey<llvm::MallocAllocator>
   fun:create<llvm::MallocAllocator, llvm::cl::Option*>
   fun:_ZN4llvm9StringMapIPNS_2cl6OptionENS_15MallocAllocatorEE11try_emplaceIJS3_EEESt4pairINS_17StringMapIteratorIS3_EEbENS_9StringRefEDpOT_
   fun:insert
   fun:_ZN12_GLOBAL__N_117CommandLineParser9addOptionEPN4llvm2cl6OptionEPNS2_10SubCommandE
   fun:addOption
   fun:_ZN4llvm2cl6Option11addArgumentEv
   fun:done
   fun:opt<char [12], llvm::cl::desc>
   fun:_Z41__static_initialization_and_destruction_0v
   fun:call_init
   fun:call_init
   fun:_dl_init
   fun:_dl_catch_exception
   fun:dl_open_worker
   fun:_dl_catch_exception
   fun:_dl_open
   fun:dlopen_doit
}
{
   <insert_a_suppression_name_here>
   Memcheck:Leak
   match-leak-kinds: reachable
   fun:_ZnwmSt11align_val_t
   fun:Allocate
   fun:allocateWithKey<llvm::MallocAllocator>
   fun:create<llvm::MallocAllocator, llvm::cl::Option*>
   fun:_ZN4llvm9StringMapIPNS_2cl6OptionENS_15MallocAllocatorEE11try_emplaceIJS3_EEESt4pairINS_17StringMapIteratorIS3_EEbENS_9StringRefEDpOT_
   fun:insert
   fun:_ZN12_GLOBAL__N_117CommandLineParser9addOptionEPN4llvm2cl6OptionEPNS2_10SubCommandE
   fun:addOption
   fun:_ZN4llvm2cl6Option11addArgumentEv
   fun:done
   fun:opt<char [12], llvm::cl::initializer<bool>, llvm::cl::desc, llvm::cl::OptionHidden>
   fun:_Z41__static_initialization_and_destruction_0v
   fun:call_init
   fun:call_init
   fun:_dl_init
   fun:_dl_catch_exception
   fun:dl_open_worker
   fun:_dl_catch_exception
   fun:_dl_open
   fun:dlopen_doit
}
{
   <insert_a_suppression_name_here>
   Memcheck:Leak
   match-leak-kinds: reachable
   fun:_ZnwmSt11align_val_t
   fun:Allocate
   fun:allocateWithKey<llvm::MallocAllocator>
   fun:create<llvm::MallocAllocator, llvm::cl::Option*>
   fun:_ZN4llvm9StringMapIPNS_2cl6OptionENS_15MallocAllocatorEE11try_emplaceIJS3_EEESt4pairINS_17StringMapIteratorIS3_EEbENS_9StringRefEDpOT_
   fun:insert
   fun:_ZN12_GLOBAL__N_117CommandLineParser9addOptionEPN4llvm2cl6OptionEPNS2_10SubCommandE
   fun:addOption
   fun:_ZN4llvm2cl6Option11addArgumentEv
   fun:done
   fun:opt<char [12], llvm::cl::OptionHidden, llvm::cl::desc, llvm::cl::initializer<bool> >
   fun:_Z41__static_initialization_and_destruction_0v
   fun:call_init
   fun:call_init
   fun:_dl_init
   fun:_dl_catch_exception
   fun:dl_open_worker
   fun:_dl_catch_exception
   fun:_dl_open
   fun:dlopen_doit
}
{
   <insert_a_suppression_name_here>
   Memcheck:Leak
   match-leak-kinds: reachable
   fun:_ZnwmSt11align_val_t
   fun:Allocate
   fun:allocateWithKey<llvm::MallocAllocator>
   fun:create<llvm::MallocAllocator, llvm::cl::Option*>
   fun:_ZN4llvm9StringMapIPNS_2cl6OptionENS_15MallocAllocatorEE11try_emplaceIJS3_EEESt4pairINS_17StringMapIteratorIS3_EEbENS_9StringRefEDpOT_
   fun:insert
   fun:_ZN12_GLOBAL__N_117CommandLineParser9addOptionEPN4llvm2cl6OptionEPNS2_10SubCommandE
   fun:addOption
   fun:_ZN4llvm2cl6Option11addArgumentEv
   fun:done
   fun:opt<char [12], llvm::cl::desc, llvm::cl::initializer<bool>, llvm::cl::OptionHidden>
   fun:__static_initialization_and_destruction_0
   fun:_GLOBAL__sub_I_X86TargetMachine.cpp
   fun:call_init
   fun:call_init
   fun:_dl_init
   fun:_dl_catch_exception
   fun:dl_open_worker
   fun:_dl_catch_exception
   fun:_dl_open
   fun:dlopen_doit
}
{
   <insert_a_suppression_name_here>
   Memcheck:Leak
   match-leak-kinds: reachable
   fun:_ZnwmSt11align_val_t
   fun:Allocate
   fun:allocateWithKey<llvm::MallocAllocator>
   fun:create<llvm::MallocAllocator, llvm::cl::Option*>
   fun:_ZN4llvm9StringMapIPNS_2cl6OptionENS_15MallocAllocatorEE11try_emplaceIJS3_EEESt4pairINS_17StringMapIteratorIS3_EEbENS_9StringRefEDpOT_
   fun:insert
   fun:_ZN12_GLOBAL__N_117CommandLineParser9addOptionEPN4llvm2cl6OptionEPNS2_10SubCommandE
   fun:addOption
   fun:_ZN4llvm2cl6Option11addArgumentEv
   fun:done
   fun:opt<char [12], llvm::cl::desc, llvm::cl::OptionHidden, llvm::cl::initializer<char [3]> >
   fun:_Z41__static_initialization_and_destruction_0v
   fun:call_init
   fun:call_init
   fun:_dl_init
   fun:_dl_catch_exception
   fun:dl_open_worker
   fun:_dl_catch_exception
   fun:_dl_open
   fun:dlopen_doit
}
{
   <insert_a_suppression_name_here>
   Memcheck:Leak
   match-leak-kinds: reachable
   fun:_ZnwmSt11align_val_t
   fun:Allocate
   fun:allocateWithKey<llvm::MallocAllocator>
   fun:create<llvm::MallocAllocator, llvm::cl::Option*>
   fun:_ZN4llvm9StringMapIPNS_2cl6OptionENS_15MallocAllocatorEE11try_emplaceIJS3_EEESt4pairINS_17StringMapIteratorIS3_EEbENS_9StringRefEDpOT_
   fun:insert
   fun:_ZN12_GLOBAL__N_117CommandLineParser9addOptionEPN4llvm2cl6OptionEPNS2_10SubCommandE
   fun:operator()
   fun:callback_fn<(anonymous namespace)::CommandLineParser::addOption(llvm::cl::Option*, bool)::<lambda(llvm::cl::SubCommand&)> >
   fun:operator()
   fun:_ZN12_GLOBAL__N_117CommandLineParser17forEachSubCommandERN4llvm2cl6OptionENS1_12function_refIFvRNS2_10SubCommandEEEE.constprop.2
   fun:addOption
   fun:_ZN4llvm2cl6Option11addArgumentEv
   fun:done
   fun:opt<char [12], llvm::cl::desc, llvm::cl::LocationClass<(anonymous namespace)::HelpPrinterWrapper>, llvm::cl::OptionHidden, llvm::cl::ValueExpected, llvm::cl::cat, llvm::cl::sub>
   fun:_ZN12_GLOBAL__N_124CommandLineCommonOptionsC1Ev
   fun:_ZN4llvm14object_creatorIN12_GLOBAL__N_124CommandLineCommonOptionsEE4callEv
   fun:_ZNK4llvm17ManagedStaticBase21RegisterManagedStaticEPFPvvEPFvS1_E
   fun:operator*
   fun:initCommonOptions
   fun:_ZN4llvm2cl23ParseCommandLineOptionsEiPKPKcNS_9StringRefEPNS_11raw_ostreamES2_b
   fun:LLVMParseCommandLineOptions
   fun:ac_init_llvm_target
   fun:__pthread_once_slow.isra.0
}
{
   <insert_a_suppression_name_here>
   Memcheck:Leak
   match-leak-kinds: reachable
   fun:_ZnwmSt11align_val_t
   fun:Allocate
   fun:allocateWithKey<llvm::MallocAllocator>
   fun:create<llvm::MallocAllocator, llvm::cl::Option*>
   fun:_ZN4llvm9StringMapIPNS_2cl6OptionENS_15MallocAllocatorEE11try_emplaceIJS3_EEESt4pairINS_17StringMapIteratorIS3_EEbENS_9StringRefEDpOT_
   fun:insert
   fun:_ZN12_GLOBAL__N_117CommandLineParser9addOptionEPN4llvm2cl6OptionEPNS2_10SubCommandE
   fun:addOption
   fun:_ZN4llvm2cl6Option11addArgumentEv
   fun:done
   fun:opt<char [12], llvm::cl::desc, llvm::cl::LocationClass<(anonymous namespace)::HelpPrinterWrapper>, llvm::cl::OptionHidden, llvm::cl::ValueExpected, llvm::cl::cat, llvm::cl::sub>
   fun:_ZN12_GLOBAL__N_124CommandLineCommonOptionsC1Ev
   fun:_ZN4llvm14object_creatorIN12_GLOBAL__N_124CommandLineCommonOptionsEE4callEv
   fun:_ZNK4llvm17ManagedStaticBase21RegisterManagedStaticEPFPvvEPFvS1_E
   fun:operator*
   fun:initCommonOptions
   fun:_ZN4llvm2cl23ParseCommandLineOptionsEiPKPKcNS_9StringRefEPNS_11raw_ostreamES2_b
   fun:LLVMParseCommandLineOptions
   fun:ac_init_llvm_target
   fun:__pthread_once_slow.isra.0
   fun:pthread_once@@GLIBC_2.34
}
{
   <insert_a_suppression_name_here>
   Memcheck:Leak
   match-leak-kinds: reachable
   fun:_ZnwmSt11align_val_t
   fun:Allocate
   fun:allocateWithKey<llvm::MallocAllocator>
   fun:create<llvm::MallocAllocator, llvm::cl::Option*>
   fun:_ZN4llvm9StringMapIPNS_2cl6OptionENS_15MallocAllocatorEE11try_emplaceIJS3_EEESt4pairINS_17StringMapIteratorIS3_EEbENS_9StringRefEDpOT_
   fun:insert
   fun:_ZN12_GLOBAL__N_117CommandLineParser9addOptionEPN4llvm2cl6OptionEPNS2_10SubCommandE
   fun:addOption
   fun:_ZN4llvm2cl6Option11addArgumentEv
   fun:done
   fun:opt<char [12], llvm::cl::desc, llvm::cl::initializer<bool>, llvm::cl::OptionHidden>
   fun:_ZN12_GLOBAL__N_116CreateSortTimers4callEv
   fun:_ZNK4llvm17ManagedStaticBase21RegisterManagedStaticEPFPvvEPFvS1_E
   fun:operator*
   fun:_ZN4llvm16initTimerOptionsEv
   fun:initCommonOptions
   fun:_ZN4llvm2cl23ParseCommandLineOptionsEiPKPKcNS_9StringRefEPNS_11raw_ostreamES2_b
   fun:LLVMParseCommandLineOptions
   fun:ac_init_llvm_target
   fun:__pthread_once_slow.isra.0
   fun:pthread_once@@GLIBC_2.34
}
{
   <insert_a_suppression_name_here>
   Memcheck:Leak
   match-leak-kinds: reachable
   fun:_ZnwmSt11align_val_t
   fun:Allocate
   fun:allocateWithKey<llvm::MallocAllocator>
   fun:create<llvm::MallocAllocator, llvm::cl::Option*>
   fun:_ZN4llvm9StringMapIPNS_2cl6OptionENS_15MallocAllocatorEE11try_emplaceIJS3_EEESt4pairINS_17StringMapIteratorIS3_EEbENS_9StringRefEDpOT_
   fun:insert
   fun:_ZN12_GLOBAL__N_117CommandLineParser9addOptionEPN4llvm2cl6OptionEPNS2_10SubCommandE
   fun:addOption
   fun:_ZN4llvm2cl6Option11addArgumentEv
   fun:__static_initialization_and_destruction_0
   fun:_GLOBAL__sub_I_DiagnosticHandler.cpp
   fun:call_init
   fun:call_init
   fun:_dl_init
   fun:_dl_catch_exception
   fun:dl_open_worker
   fun:_dl_catch_exception
   fun:_dl_open
   fun:dlopen_doit
}
{
   <insert_a_suppression_name_here>
   Memcheck:Leak
   match-leak-kinds: reachable
   fun:_ZnwmSt11align_val_t
   fun:Allocate
   fun:allocateWithKey<llvm::MallocAllocator>
   fun:create<llvm::MallocAllocator, llvm::cl::Option*>
   fun:_ZN4llvm9StringMapIPNS_2cl6OptionENS_15MallocAllocatorEE11try_emplaceIJS3_EEESt4pairINS_17StringMapIteratorIS3_EEbENS_9StringRefEDpOT_
   fun:insert
   fun:_ZN12_GLOBAL__N_117CommandLineParser9addOptionEPN4llvm2cl6OptionEPNS2_10SubCommandE
   fun:addOption
   fun:_ZN4llvm2cl6Option11addArgumentEv
   fun:done
   fun:list<char [13], llvm::cl::desc, llvm::cl::MiscFlags, llvm::cl::OptionHidden>
   fun:_Z41__static_initialization_and_destruction_0v
   fun:call_init
   fun:call_init
   fun:_dl_init
   fun:_dl_catch_exception
   fun:dl_open_worker
   fun:_dl_catch_exception
   fun:_dl_open
   fun:dlopen_doit
}
{
   <insert_a_suppression_name_here>
   Memcheck:Leak
   match-leak-kinds: reachable
   fun:_ZnwmSt11align_val_t
   fun:Allocate
   fun:allocateWithKey<llvm::MallocAllocator>
   fun:create<llvm::MallocAllocator, llvm::cl::Option*>
   fun:_ZN4llvm9StringMapIPNS_2cl6OptionENS_15MallocAllocatorEE11try_emplaceIJS3_EEESt4pairINS_17StringMapIteratorIS3_EEbENS_9StringRefEDpOT_
   fun:insert
   fun:_ZN12_GLOBAL__N_117CommandLineParser9addOptionEPN4llvm2cl6OptionEPNS2_10SubCommandE
   fun:addOption
   fun:_ZN4llvm2cl6Option11addArgumentEv
   fun:done
   fun:opt<char [13], llvm::cl::OptionHidden, llvm::cl::desc>
   fun:_Z41__static_initialization_and_destruction_0v
   fun:call_init
   fun:call_init
   fun:_dl_init
   fun:_dl_catch_exception
   fun:dl_open_worker
   fun:_dl_catch_exception
   fun:_dl_open
   fun:dlopen_doit
}
{
   <insert_a_suppression_name_here>
   Memcheck:Leak
   match-leak-kinds: reachable
   fun:_ZnwmSt11align_val_t
   fun:Allocate
   fun:allocateWithKey<llvm::MallocAllocator>
   fun:create<llvm::MallocAllocator, llvm::cl::Option*>
   fun:_ZN4llvm9StringMapIPNS_2cl6OptionENS_15MallocAllocatorEE11try_emplaceIJS3_EEESt4pairINS_17StringMapIteratorIS3_EEbENS_9StringRefEDpOT_
   fun:insert
   fun:_ZN12_GLOBAL__N_117CommandLineParser9addOptionEPN4llvm2cl6OptionEPNS2_10SubCommandE
   fun:addOption
   fun:_ZN4llvm2cl6Option11addArgumentEv
   fun:done
   fun:opt<char [13], llvm::cl::OptionHidden, llvm::cl::desc>
   fun:__static_initialization_and_destruction_0
   fun:_GLOBAL__sub_I_MIRPrinter.cpp
   fun:call_init
   fun:call_init
   fun:_dl_init
   fun:_dl_catch_exception
   fun:dl_open_worker
   fun:_dl_catch_exception
   fun:_dl_open
   fun:dlopen_doit
}
{
   <insert_a_suppression_name_here>
   Memcheck:Leak
   match-leak-kinds: reachable
   fun:_ZnwmSt11align_val_t
   fun:Allocate
   fun:allocateWithKey<llvm::MallocAllocator>
   fun:create<llvm::MallocAllocator, llvm::cl::Option*>
   fun:_ZN4llvm9StringMapIPNS_2cl6OptionENS_15MallocAllocatorEE11try_emplaceIJS3_EEESt4pairINS_17StringMapIteratorIS3_EEbENS_9StringRefEDpOT_
   fun:insert
   fun:_ZN12_GLOBAL__N_117CommandLineParser9addOptionEPN4llvm2cl6OptionEPNS2_10SubCommandE
   fun:addOption
   fun:_ZN4llvm2cl6Option11addArgumentEv
   fun:done
   fun:opt<char [13], llvm::cl::initializer<llvm::ScheduleDAGSDNodes* (*)(llvm::SelectionDAGISel*, llvm::CodeGenOptLevel)>, llvm::cl::OptionHidden, llvm::cl::desc>
   fun:__static_initialization_and_destruction_0
   fun:_GLOBAL__sub_I_SelectionDAGISel.cpp
   fun:call_init
   fun:call_init
   fun:_dl_init
   fun:_dl_catch_exception
   fun:dl_open_worker
   fun:_dl_catch_exception
   fun:_dl_open
   fun:dlopen_doit
}
{
   <insert_a_suppression_name_here>
   Memcheck:Leak
   match-leak-kinds: reachable
   fun:_ZnwmSt11align_val_t
   fun:Allocate
   fun:allocateWithKey<llvm::MallocAllocator>
   fun:create<llvm::MallocAllocator, llvm::cl::Option*>
   fun:_ZN4llvm9StringMapIPNS_2cl6OptionENS_15MallocAllocatorEE11try_emplaceIJS3_EEESt4pairINS_17StringMapIteratorIS3_EEbENS_9StringRefEDpOT_
   fun:insert
   fun:_ZN12_GLOBAL__N_117CommandLineParser9addOptionEPN4llvm2cl6OptionEPNS2_10SubCommandE
   fun:addOption
   fun:_ZN4llvm2cl6Option11addArgumentEv
   fun:done
   fun:opt<char [13], llvm::cl::OptionHidden, llvm::cl::initializer<bool>, llvm::cl::desc>
   fun:_Z41__static_initialization_and_destruction_0v
   fun:call_init
   fun:call_init
   fun:_dl_init
   fun:_dl_catch_exception
   fun:dl_open_worker
   fun:_dl_catch_exception
   fun:_dl_open
   fun:dlopen_doit
}
{
   <insert_a_suppression_name_here>
   Memcheck:Leak
   match-leak-kinds: reachable
   fun:_ZnwmSt11align_val_t
   fun:Allocate
   fun:allocateWithKey<llvm::MallocAllocator>
   fun:create<llvm::MallocAllocator, llvm::cl::Option*>
   fun:_ZN4llvm9StringMapIPNS_2cl6OptionENS_15MallocAllocatorEE11try_emplaceIJS3_EEESt4pairINS_17StringMapIteratorIS3_EEbENS_9StringRefEDpOT_
   fun:insert
   fun:_ZN12_GLOBAL__N_117CommandLineParser9addOptionEPN4llvm2cl6OptionEPNS2_10SubCommandE
   fun:addOption
   fun:_ZN4llvm2cl6Option11addArgumentEv
   fun:done
   fun:opt<char [13], llvm::cl::OptionHidden, llvm::cl::initializer<bool> >
   fun:__static_initialization_and_destruction_0
   fun:_GLOBAL__sub_I_PlaceSafepoints.cpp
   fun:call_init
   fun:call_init
   fun:_dl_init
   fun:_dl_catch_exception
   fun:dl_open_worker
   fun:_dl_catch_exception
   fun:_dl_open
   fun:dlopen_doit
}
{
   <insert_a_suppression_name_here>
   Memcheck:Leak
   match-leak-kinds: reachable
   fun:_ZnwmSt11align_val_t
   fun:Allocate
   fun:allocateWithKey<llvm::MallocAllocator>
   fun:create<llvm::MallocAllocator, llvm::cl::Option*>
   fun:_ZN4llvm9StringMapIPNS_2cl6OptionENS_15MallocAllocatorEE11try_emplaceIJS3_EEESt4pairINS_17StringMapIteratorIS3_EEbENS_9StringRefEDpOT_
   fun:insert
   fun:_ZN12_GLOBAL__N_117CommandLineParser9addOptionEPN4llvm2cl6OptionEPNS2_10SubCommandE
   fun:addOption
   fun:_ZN4llvm2cl6Option11addArgumentEv
   fun:done
   fun:opt<char [13], llvm::cl::initializer<bool>, llvm::cl::OptionHidden, llvm::cl::desc>
   fun:_Z41__static_initialization_and_destruction_0v
   fun:call_init
   fun:call_init
   fun:_dl_init
   fun:_dl_catch_exception
   fun:dl_open_worker
   fun:_dl_catch_exception
   fun:_dl_open
   fun:dlopen_doit
}
{
   <insert_a_suppression_name_here>
   Memcheck:Leak
   match-leak-kinds: reachable
   fun:_ZnwmSt11align_val_t
   fun:Allocate
   fun:allocateWithKey<llvm::MallocAllocator>
   fun:create<llvm::MallocAllocator, llvm::cl::Option*>
   fun:_ZN4llvm9StringMapIPNS_2cl6OptionENS_15MallocAllocatorEE11try_emplaceIJS3_EEESt4pairINS_17StringMapIteratorIS3_EEbENS_9StringRefEDpOT_
   fun:insert
   fun:_ZN12_GLOBAL__N_117CommandLineParser9addOptionEPN4llvm2cl6OptionEPNS2_10SubCommandE
   fun:addOption
   fun:_ZN4llvm2cl6Option11addArgumentEv
   fun:done
   fun:opt<char [13], llvm::cl::desc>
   fun:_Z41__static_initialization_and_destruction_0v
   fun:call_init
   fun:call_init
   fun:_dl_init
   fun:_dl_catch_exception
   fun:dl_open_worker
   fun:_dl_catch_exception
   fun:_dl_open
   fun:dlopen_doit
}
{
   <insert_a_suppression_name_here>
   Memcheck:Leak
   match-leak-kinds: reachable
   fun:_ZnwmSt11align_val_t
   fun:Allocate
   fun:allocateWithKey<llvm::MallocAllocator>
   fun:create<llvm::MallocAllocator, llvm::cl::Option*>
   fun:_ZN4llvm9StringMapIPNS_2cl6OptionENS_15MallocAllocatorEE11try_emplaceIJS3_EEESt4pairINS_17StringMapIteratorIS3_EEbENS_9StringRefEDpOT_
   fun:insert
   fun:_ZN12_GLOBAL__N_117CommandLineParser9addOptionEPN4llvm2cl6OptionEPNS2_10SubCommandE
   fun:addOption
   fun:_ZN4llvm2cl6Option11addArgumentEv
   fun:done
   fun:opt<char [13], llvm::cl::OptionHidden>
   fun:__static_initialization_and_destruction_0
   fun:_GLOBAL__sub_I_AliasAnalysisEvaluator.cpp
   fun:call_init
   fun:call_init
   fun:_dl_init
   fun:_dl_catch_exception
   fun:dl_open_worker
   fun:_dl_catch_exception
   fun:_dl_open
   fun:dlopen_doit
}
{
   <insert_a_suppression_name_here>
   Memcheck:Leak
   match-leak-kinds: reachable
   fun:_ZnwmSt11align_val_t
   fun:Allocate
   fun:allocateWithKey<llvm::MallocAllocator>
   fun:create<llvm::MallocAllocator, llvm::cl::Option*>
   fun:_ZN4llvm9StringMapIPNS_2cl6OptionENS_15MallocAllocatorEE11try_emplaceIJS3_EEESt4pairINS_17StringMapIteratorIS3_EEbENS_9StringRefEDpOT_
   fun:insert
   fun:_ZN12_GLOBAL__N_117CommandLineParser9addOptionEPN4llvm2cl6OptionEPNS2_10SubCommandE
   fun:addOption
   fun:_ZN4llvm2cl6Option11addArgumentEv
   fun:done
   fun:opt<char [13], llvm::cl::initializer<bool>, llvm::cl::OptionHidden, llvm::cl::desc>
   fun:__static_initialization_and_destruction_0
   fun:_GLOBAL__sub_I_DDG.cpp
   fun:call_init
   fun:call_init
   fun:_dl_init
   fun:_dl_catch_exception
   fun:dl_open_worker
   fun:_dl_catch_exception
   fun:_dl_open
   fun:dlopen_doit
}
{
   <insert_a_suppression_name_here>
   Memcheck:Leak
   match-leak-kinds: reachable
   fun:_ZnwmSt11align_val_t
   fun:Allocate
   fun:allocateWithKey<llvm::MallocAllocator>
   fun:create<llvm::MallocAllocator, llvm::cl::Option*>
   fun:_ZN4llvm9StringMapIPNS_2cl6OptionENS_15MallocAllocatorEE11try_emplaceIJS3_EEESt4pairINS_17StringMapIteratorIS3_EEbENS_9StringRefEDpOT_
   fun:insert
   fun:_ZN12_GLOBAL__N_117CommandLineParser9addOptionEPN4llvm2cl6OptionEPNS2_10SubCommandE
   fun:addOption
   fun:_ZN4llvm2cl6Option11addArgumentEv
   fun:done
   fun:opt<char [13], llvm::cl::OptionHidden, llvm::cl::desc>
   fun:__static_initialization_and_destruction_0
   fun:_GLOBAL__sub_I_DDGPrinter.cpp
   fun:call_init
   fun:call_init
   fun:_dl_init
   fun:_dl_catch_exception
   fun:dl_open_worker
   fun:_dl_catch_exception
   fun:_dl_open
   fun:dlopen_doit
}
{
   <insert_a_suppression_name_here>
   Memcheck:Leak
   match-leak-kinds: reachable
   fun:_ZnwmSt11align_val_t
   fun:Allocate
   fun:allocateWithKey<llvm::MallocAllocator>
   fun:create<llvm::MallocAllocator, llvm::cl::Option*>
   fun:_ZN4llvm9StringMapIPNS_2cl6OptionENS_15MallocAllocatorEE11try_emplaceIJS3_EEESt4pairINS_17StringMapIteratorIS3_EEbENS_9StringRefEDpOT_
   fun:insert
   fun:_ZN12_GLOBAL__N_117CommandLineParser9addOptionEPN4llvm2cl6OptionEPNS2_10SubCommandE
   fun:addOption
   fun:_ZN4llvm2cl6Option11addArgumentEv
   fun:done
   fun:opt<char [13], llvm::cl::initializer<int>, llvm::cl::OptionHidden, llvm::cl::desc>
   fun:__static_initialization_and_destruction_0
   fun:_GLOBAL__sub_I_IndirectCallPromotionAnalysis.cpp
   fun:call_init
   fun:call_init
   fun:_dl_init
   fun:_dl_catch_exception
   fun:dl_open_worker
   fun:_dl_catch_exception
   fun:_dl_open
   fun:dlopen_doit
}
{
   <insert_a_suppression_name_here>
   Memcheck:Leak
   match-leak-kinds: reachable
   fun:_ZnwmSt11align_val_t
   fun:Allocate
   fun:allocateWithKey<llvm::MallocAllocator>
   fun:create<llvm::MallocAllocator, llvm::cl::Option*>
   fun:_ZN4llvm9StringMapIPNS_2cl6OptionENS_15MallocAllocatorEE11try_emplaceIJS3_EEESt4pairINS_17StringMapIteratorIS3_EEbENS_9StringRefEDpOT_
   fun:insert
   fun:_ZN12_GLOBAL__N_117CommandLineParser9addOptionEPN4llvm2cl6OptionEPNS2_10SubCommandE
   fun:addOption
   fun:_ZN4llvm2cl6Option11addArgumentEv
   fun:done
   fun:opt<char [13], llvm::cl::value_desc, llvm::cl::desc, llvm::cl::initializer<char [1]> >
   fun:__static_initialization_and_destruction_0
   fun:_GLOBAL__sub_I_MemorySSA.cpp
   fun:call_init
   fun:call_init
   fun:_dl_init
   fun:_dl_catch_exception
   fun:dl_open_worker
   fun:_dl_catch_exception
   fun:_dl_open
   fun:dlopen_doit
}
{
   <insert_a_suppression_name_here>
   Memcheck:Leak
   match-leak-kinds: reachable
   fun:_ZnwmSt11align_val_t
   fun:Allocate
   fun:allocateWithKey<llvm::MallocAllocator>
   fun:create<llvm::MallocAllocator, llvm::cl::Option*>
   fun:_ZN4llvm9StringMapIPNS_2cl6OptionENS_15MallocAllocatorEE11try_emplaceIJS3_EEESt4pairINS_17StringMapIteratorIS3_EEbENS_9StringRefEDpOT_
   fun:insert
   fun:_ZN12_GLOBAL__N_117CommandLineParser9addOptionEPN4llvm2cl6OptionEPNS2_10SubCommandE
   fun:addOption
   fun:_ZN4llvm2cl6Option11addArgumentEv
   fun:done
   fun:opt<char [13], llvm::cl::desc>
   fun:_ZN4llvm2mc28RegisterMCTargetOptionsFlagsC1Ev
   fun:call_init
   fun:call_init
   fun:_dl_init
   fun:_dl_catch_exception
   fun:dl_open_worker
   fun:_dl_catch_exception
   fun:_dl_open
   fun:dlopen_doit
}
{
   <insert_a_suppression_name_here>
   Memcheck:Leak
   match-leak-kinds: reachable
   fun:_ZnwmSt11align_val_t
   fun:Allocate
   fun:allocateWithKey<llvm::MallocAllocator>
   fun:create<llvm::MallocAllocator, llvm::cl::Option*>
   fun:_ZN4llvm9StringMapIPNS_2cl6OptionENS_15MallocAllocatorEE11try_emplaceIJS3_EEESt4pairINS_17StringMapIteratorIS3_EEbENS_9StringRefEDpOT_
   fun:insert
   fun:_ZN12_GLOBAL__N_117CommandLineParser9addOptionEPN4llvm2cl6OptionEPNS2_10SubCommandE
   fun:addOption
   fun:_ZN4llvm2cl6Option11addArgumentEv
   fun:done
   fun:opt<char [13], llvm::cl::initializer<unsigned int>, llvm::cl::OptionHidden>
   fun:__static_initialization_and_destruction_0
   fun:_GLOBAL__sub_I_MLxExpansionPass.cpp
   fun:call_init
   fun:call_init
   fun:_dl_init
   fun:_dl_catch_exception
   fun:dl_open_worker
   fun:_dl_catch_exception
   fun:_dl_open
   fun:dlopen_doit
}
{
   <insert_a_suppression_name_here>
   Memcheck:Leak
   match-leak-kinds: reachable
   fun:_ZnwmSt11align_val_t
   fun:Allocate
   fun:allocateWithKey<llvm::MallocAllocator>
   fun:create<llvm::MallocAllocator, llvm::cl::Option*>
   fun:_ZN4llvm9StringMapIPNS_2cl6OptionENS_15MallocAllocatorEE11try_emplaceIJS3_EEESt4pairINS_17StringMapIteratorIS3_EEbENS_9StringRefEDpOT_
   fun:insert
   fun:_ZN12_GLOBAL__N_117CommandLineParser9addOptionEPN4llvm2cl6OptionEPNS2_10SubCommandE
   fun:addOption
   fun:_ZN4llvm2cl6Option11addArgumentEv
   fun:done
   fun:opt<char [13], llvm::cl::OptionHidden, llvm::cl::initializer<bool>, llvm::cl::desc>
   fun:__static_initialization_and_destruction_0
   fun:_GLOBAL__sub_I_BPFSubtarget.cpp
   fun:call_init
   fun:call_init
   fun:_dl_init
   fun:_dl_catch_exception
   fun:dl_open_worker
   fun:_dl_catch_exception
   fun:_dl_open
   fun:dlopen_doit
}
{
   <insert_a_suppression_name_here>
   Memcheck:Leak
   match-leak-kinds: reachable
   fun:_ZnwmSt11align_val_t
   fun:Allocate
   fun:allocateWithKey<llvm::MallocAllocator>
   fun:create<llvm::MallocAllocator, llvm::cl::Option*>
   fun:_ZN4llvm9StringMapIPNS_2cl6OptionENS_15MallocAllocatorEE11try_emplaceIJS3_EEESt4pairINS_17StringMapIteratorIS3_EEbENS_9StringRefEDpOT_
   fun:insert
   fun:_ZN12_GLOBAL__N_117CommandLineParser9addOptionEPN4llvm2cl6OptionEPNS2_10SubCommandE
   fun:addOption
   fun:_ZN4llvm2cl6Option11addArgumentEv
   fun:done
   fun:opt<char [13], llvm::cl::initializer<bool>, llvm::cl::OptionHidden>
   fun:__static_initialization_and_destruction_0
   fun:_GLOBAL__sub_I_HexagonGenInsert.cpp
   fun:call_init
   fun:call_init
   fun:_dl_init
   fun:_dl_catch_exception
   fun:dl_open_worker
   fun:_dl_catch_exception
   fun:_dl_open
   fun:dlopen_doit
}
{
   <insert_a_suppression_name_here>
   Memcheck:Leak
   match-leak-kinds: reachable
   fun:_ZnwmSt11align_val_t
   fun:Allocate
   fun:allocateWithKey<llvm::MallocAllocator>
   fun:create<llvm::MallocAllocator, llvm::cl::Option*>
   fun:_ZN4llvm9StringMapIPNS_2cl6OptionENS_15MallocAllocatorEE11try_emplaceIJS3_EEESt4pairINS_17StringMapIteratorIS3_EEbENS_9StringRefEDpOT_
   fun:insert
   fun:_ZN12_GLOBAL__N_117CommandLineParser9addOptionEPN4llvm2cl6OptionEPNS2_10SubCommandE
   fun:addOption
   fun:_ZN4llvm2cl6Option11addArgumentEv
   fun:done
   fun:opt<char [13], llvm::cl::initializer<bool>, llvm::cl::OptionHidden, llvm::cl::desc>
   fun:__static_initialization_and_destruction_0
   fun:_GLOBAL__sub_I_HexagonTargetObjectFile.cpp
   fun:call_init
   fun:call_init
   fun:_dl_init
   fun:_dl_catch_exception
   fun:dl_open_worker
   fun:_dl_catch_exception
   fun:_dl_open
   fun:dlopen_doit
}
{
   <insert_a_suppression_name_here>
   Memcheck:Leak
   match-leak-kinds: reachable
   fun:_ZnwmSt11align_val_t
   fun:Allocate
   fun:allocateWithKey<llvm::MallocAllocator>
   fun:create<llvm::MallocAllocator, llvm::cl::Option*>
   fun:_ZN4llvm9StringMapIPNS_2cl6OptionENS_15MallocAllocatorEE11try_emplaceIJS3_EEESt4pairINS_17StringMapIteratorIS3_EEbENS_9StringRefEDpOT_
   fun:insert
   fun:_ZN12_GLOBAL__N_117CommandLineParser9addOptionEPN4llvm2cl6OptionEPNS2_10SubCommandE
   fun:addOption
   fun:_ZN4llvm2cl6Option11addArgumentEv
   fun:done
   fun:opt<char [13], llvm::cl::OptionHidden, llvm::cl::desc, llvm::cl::initializer<bool> >
   fun:__static_initialization_and_destruction_0
   fun:_GLOBAL__sub_I_MipsTargetObjectFile.cpp
   fun:call_init
   fun:call_init
   fun:_dl_init
   fun:_dl_catch_exception
   fun:dl_open_worker
   fun:_dl_catch_exception
   fun:_dl_open
   fun:dlopen_doit
}
{
   <insert_a_suppression_name_here>
   Memcheck:Leak
   match-leak-kinds: reachable
   fun:_ZnwmSt11align_val_t
   fun:Allocate
   fun:allocateWithKey<llvm::MallocAllocator>
   fun:create<llvm::MallocAllocator, llvm::cl::Option*>
   fun:_ZN4llvm9StringMapIPNS_2cl6OptionENS_15MallocAllocatorEE11try_emplaceIJS3_EEESt4pairINS_17StringMapIteratorIS3_EEbENS_9StringRefEDpOT_
   fun:insert
   fun:_ZN12_GLOBAL__N_117CommandLineParser9addOptionEPN4llvm2cl6OptionEPNS2_10SubCommandE
   fun:addOption
   fun:_ZN4llvm2cl6Option11addArgumentEv
   fun:done
   fun:opt<char [13], llvm::cl::desc, llvm::cl::initializer<bool>, llvm::cl::OptionHidden>
   fun:__static_initialization_and_destruction_0
   fun:_GLOBAL__sub_I_PPCExpandISEL.cpp
   fun:call_init
   fun:call_init
   fun:_dl_init
   fun:_dl_catch_exception
   fun:dl_open_worker
   fun:_dl_catch_exception
   fun:_dl_open
   fun:dlopen_doit
}
{
   <insert_a_suppression_name_here>
   Memcheck:Leak
   match-leak-kinds: reachable
   fun:_ZnwmSt11align_val_t
   fun:Allocate
   fun:allocateWithKey<llvm::MallocAllocator>
   fun:create<llvm::MallocAllocator, llvm::cl::Option*>
   fun:_ZN4llvm9StringMapIPNS_2cl6OptionENS_15MallocAllocatorEE11try_emplaceIJS3_EEESt4pairINS_17StringMapIteratorIS3_EEbENS_9StringRefEDpOT_
   fun:insert
   fun:_ZN12_GLOBAL__N_117CommandLineParser9addOptionEPN4llvm2cl6OptionEPNS2_10SubCommandE
   fun:addOption
   fun:_ZN4llvm2cl6Option11addArgumentEv
   fun:done
   fun:opt<char [13], llvm::cl::OptionHidden, llvm::cl::desc>
   fun:__static_initialization_and_destruction_0
   fun:_GLOBAL__sub_I_PPCPreEmitPeephole.cpp
   fun:call_init
   fun:call_init
   fun:_dl_init
   fun:_dl_catch_exception
   fun:dl_open_worker
   fun:_dl_catch_exception
   fun:_dl_open
   fun:dlopen_doit
}
{
   <insert_a_suppression_name_here>
   Memcheck:Leak
   match-leak-kinds: reachable
   fun:_ZnwmSt11align_val_t
   fun:Allocate
   fun:allocateWithKey<llvm::MallocAllocator>
   fun:create<llvm::MallocAllocator, llvm::cl::Option*>
   fun:_ZN4llvm9StringMapIPNS_2cl6OptionENS_15MallocAllocatorEE11try_emplaceIJS3_EEESt4pairINS_17StringMapIteratorIS3_EEbENS_9StringRefEDpOT_
   fun:insert
   fun:_ZN12_GLOBAL__N_117CommandLineParser9addOptionEPN4llvm2cl6OptionEPNS2_10SubCommandE
   fun:addOption
   fun:_ZN4llvm2cl6Option11addArgumentEv
   fun:done
   fun:opt<char [13], llvm::cl::initializer<bool>, llvm::cl::desc>
   fun:__static_initialization_and_destruction_0
   fun:_GLOBAL__sub_I_RISCVSubtarget.cpp
   fun:call_init
   fun:call_init
   fun:_dl_init
   fun:_dl_catch_exception
   fun:dl_open_worker
   fun:_dl_catch_exception
   fun:_dl_open
   fun:dlopen_doit
}
{
   <insert_a_suppression_name_here>
   Memcheck:Leak
   match-leak-kinds: reachable
   fun:_ZnwmSt11align_val_t
   fun:Allocate
   fun:allocateWithKey<llvm::MallocAllocator>
   fun:create<llvm::MallocAllocator, llvm::cl::Option*>
   fun:_ZN4llvm9StringMapIPNS_2cl6OptionENS_15MallocAllocatorEE11try_emplaceIJS3_EEESt4pairINS_17StringMapIteratorIS3_EEbENS_9StringRefEDpOT_
   fun:insert
   fun:_ZN12_GLOBAL__N_117CommandLineParser9addOptionEPN4llvm2cl6OptionEPNS2_10SubCommandE
   fun:addOption
   fun:_ZN4llvm2cl6Option11addArgumentEv
   fun:done
   fun:opt<char [13], llvm::cl::OptionHidden, llvm::cl::initializer<bool>, llvm::cl::desc>
   fun:__static_initialization_and_destruction_0
   fun:_GLOBAL__sub_I_SampleProfReader.cpp
   fun:call_init
   fun:call_init
   fun:_dl_init
   fun:_dl_catch_exception
   fun:dl_open_worker
   fun:_dl_catch_exception
   fun:_dl_open
   fun:dlopen_doit
}
{
   <insert_a_suppression_name_here>
   Memcheck:Leak
   match-leak-kinds: reachable
   fun:_ZnwmSt11align_val_t
   fun:Allocate
   fun:allocateWithKey<llvm::MallocAllocator>
   fun:create<llvm::MallocAllocator, llvm::cl::Option*>
   fun:_ZN4llvm9StringMapIPNS_2cl6OptionENS_15MallocAllocatorEE11try_emplaceIJS3_EEESt4pairINS_17StringMapIteratorIS3_EEbENS_9StringRefEDpOT_
   fun:insert
   fun:_ZN12_GLOBAL__N_117CommandLineParser9addOptionEPN4llvm2cl6OptionEPNS2_10SubCommandE
   fun:addOption
   fun:_ZN4llvm2cl6Option11addArgumentEv
   fun:done
   fun:opt<char [13], llvm::cl::desc, llvm::cl::OptionHidden>
   fun:_ZN12_GLOBAL__N_116CreateTrackSpace4callEv
   fun:_ZNK4llvm17ManagedStaticBase21RegisterManagedStaticEPFPvvEPFvS1_E
   fun:operator*
   fun:_ZN4llvm16initTimerOptionsEv
   fun:initCommonOptions
   fun:_ZN4llvm2cl23ParseCommandLineOptionsEiPKPKcNS_9StringRefEPNS_11raw_ostreamES2_b
   fun:LLVMParseCommandLineOptions
   fun:ac_init_llvm_target
   fun:__pthread_once_slow.isra.0
   fun:pthread_once@@GLIBC_2.34
}
{
   <insert_a_suppression_name_here>
   Memcheck:Leak
   match-leak-kinds: definite
   fun:malloc
   obj:*
   obj:*
   fun:SDL_DBus_Init_Spinlocked.lto_priv.0
   fun:UnknownInlinedFun
   fun:SDL_InitSubSystem_REAL.part.0
   fun:engine.sdl_init
   fun:main.main
   fun:main
}
{
   <insert_a_suppression_name_here>
   Memcheck:Leak
   match-leak-kinds: reachable
   fun:_ZnwmSt11align_val_t
   fun:Allocate
   fun:allocateWithKey<llvm::MallocAllocator>
   fun:create<llvm::MallocAllocator, llvm::cl::Option*>
   fun:_ZN4llvm9StringMapIPNS_2cl6OptionENS_15MallocAllocatorEE11try_emplaceIJS3_EEESt4pairINS_17StringMapIteratorIS3_EEbENS_9StringRefEDpOT_
   fun:insert
   fun:_ZN12_GLOBAL__N_117CommandLineParser9addOptionEPN4llvm2cl6OptionEPNS2_10SubCommandE
   fun:addOption
   fun:_ZN4llvm2cl6Option11addArgumentEv
   fun:done
   fun:opt<char [14], llvm::cl::desc, llvm::cl::OptionHidden, llvm::cl::ValueExpected, llvm::cl::initializer<llvm::ChangePrinter>, llvm::cl::ValuesClass>
   fun:_Z41__static_initialization_and_destruction_0v
   fun:call_init
   fun:call_init
   fun:_dl_init
   fun:_dl_catch_exception
   fun:dl_open_worker
   fun:_dl_catch_exception
   fun:_dl_open
   fun:dlopen_doit
}
{
   <insert_a_suppression_name_here>
   Memcheck:Leak
   match-leak-kinds: reachable
   fun:_ZnwmSt11align_val_t
   fun:Allocate
   fun:allocateWithKey<llvm::MallocAllocator>
   fun:create<llvm::MallocAllocator, llvm::cl::Option*>
   fun:_ZN4llvm9StringMapIPNS_2cl6OptionENS_15MallocAllocatorEE11try_emplaceIJS3_EEESt4pairINS_17StringMapIteratorIS3_EEbENS_9StringRefEDpOT_
   fun:insert
   fun:_ZN12_GLOBAL__N_117CommandLineParser9addOptionEPN4llvm2cl6OptionEPNS2_10SubCommandE
   fun:addOption
   fun:_ZN4llvm2cl6Option11addArgumentEv
   fun:done
   fun:list<char [14], llvm::cl::value_desc, llvm::cl::desc, llvm::cl::MiscFlags, llvm::cl::OptionHidden>
   fun:_Z41__static_initialization_and_destruction_0v
   fun:call_init
   fun:call_init
   fun:_dl_init
   fun:_dl_catch_exception
   fun:dl_open_worker
   fun:_dl_catch_exception
   fun:_dl_open
   fun:dlopen_doit
}
{
   <insert_a_suppression_name_here>
   Memcheck:Leak
   match-leak-kinds: reachable
   fun:_ZnwmSt11align_val_t
   fun:Allocate
   fun:allocateWithKey<llvm::MallocAllocator>
   fun:create<llvm::MallocAllocator, llvm::cl::Option*>
   fun:_ZN4llvm9StringMapIPNS_2cl6OptionENS_15MallocAllocatorEE11try_emplaceIJS3_EEESt4pairINS_17StringMapIteratorIS3_EEbENS_9StringRefEDpOT_
   fun:insert
   fun:_ZN12_GLOBAL__N_117CommandLineParser9addOptionEPN4llvm2cl6OptionEPNS2_10SubCommandE
   fun:addOption
   fun:_ZN4llvm2cl6Option11addArgumentEv
   fun:done
   fun:opt<char [14], llvm::cl::initializer<int>, llvm::cl::OptionHidden>
   fun:__static_initialization_and_destruction_0
   fun:_GLOBAL__sub_I_IfConversion.cpp
   fun:call_init
   fun:call_init
   fun:_dl_init
   fun:_dl_catch_exception
   fun:dl_open_worker
   fun:_dl_catch_exception
   fun:_dl_open
   fun:dlopen_doit
}
{
   <insert_a_suppression_name_here>
   Memcheck:Leak
   match-leak-kinds: reachable
   fun:_ZnwmSt11align_val_t
   fun:Allocate
   fun:allocateWithKey<llvm::MallocAllocator>
   fun:create<llvm::MallocAllocator, llvm::cl::Option*>
   fun:_ZN4llvm9StringMapIPNS_2cl6OptionENS_15MallocAllocatorEE11try_emplaceIJS3_EEESt4pairINS_17StringMapIteratorIS3_EEbENS_9StringRefEDpOT_
   fun:insert
   fun:_ZN12_GLOBAL__N_117CommandLineParser9addOptionEPN4llvm2cl6OptionEPNS2_10SubCommandE
   fun:addOption
   fun:_ZN4llvm2cl6Option11addArgumentEv
   fun:done
   fun:opt<char [14], llvm::cl::desc, llvm::cl::initializer<int>, llvm::cl::OptionHidden>
   fun:_Z41__static_initialization_and_destruction_0v
   fun:call_init
   fun:call_init
   fun:_dl_init
   fun:_dl_catch_exception
   fun:dl_open_worker
   fun:_dl_catch_exception
   fun:_dl_open
   fun:dlopen_doit
}
{
   <insert_a_suppression_name_here>
   Memcheck:Leak
   match-leak-kinds: reachable
   fun:_ZnwmSt11align_val_t
   fun:Allocate
   fun:allocateWithKey<llvm::MallocAllocator>
   fun:create<llvm::MallocAllocator, llvm::cl::Option*>
   fun:_ZN4llvm9StringMapIPNS_2cl6OptionENS_15MallocAllocatorEE11try_emplaceIJS3_EEESt4pairINS_17StringMapIteratorIS3_EEbENS_9StringRefEDpOT_
   fun:insert
   fun:_ZN12_GLOBAL__N_117CommandLineParser9addOptionEPN4llvm2cl6OptionEPNS2_10SubCommandE
   fun:addOption
   fun:_ZN4llvm2cl6Option11addArgumentEv
   fun:done
   fun:opt<char [14], llvm::cl::initializer<bool>, llvm::cl::OptionHidden, llvm::cl::desc>
   fun:__static_initialization_and_destruction_0
   fun:_GLOBAL__sub_I_MachineCFGPrinter.cpp
   fun:call_init
   fun:call_init
   fun:_dl_init
   fun:_dl_catch_exception
   fun:dl_open_worker
   fun:_dl_catch_exception
   fun:_dl_open
   fun:dlopen_doit
}
{
   <insert_a_suppression_name_here>
   Memcheck:Leak
   match-leak-kinds: reachable
   fun:_ZnwmSt11align_val_t
   fun:Allocate
   fun:allocateWithKey<llvm::MallocAllocator>
   fun:create<llvm::MallocAllocator, llvm::cl::Option*>
   fun:_ZN4llvm9StringMapIPNS_2cl6OptionENS_15MallocAllocatorEE11try_emplaceIJS3_EEESt4pairINS_17StringMapIteratorIS3_EEbENS_9StringRefEDpOT_
   fun:insert
   fun:_ZN12_GLOBAL__N_117CommandLineParser9addOptionEPN4llvm2cl6OptionEPNS2_10SubCommandE
   fun:addOption
   fun:_ZN4llvm2cl6Option11addArgumentEv
   fun:done
   fun:list<char [14], llvm::cl::OptionHidden, llvm::cl::desc, llvm::cl::MiscFlags, llvm::cl::LocationClass<llvm::DebugCounter> >
   fun:DebugCounterList<char const (&)[14], llvm::cl::OptionHidden, llvm::cl::desc, llvm::cl::MiscFlags, llvm::cl::LocationClass<llvm::DebugCounter> >
   fun:DebugCounterOwner
   fun:_ZN4llvm12DebugCounter8instanceEv.part.0
   fun:_ZN4llvm12DebugCounter8instanceEv
   fun:registerCounter
   fun:__static_initialization_and_destruction_0
   fun:_GLOBAL__sub_I_MachineCopyPropagation.cpp
   fun:call_init
   fun:call_init
   fun:_dl_init
   fun:_dl_catch_exception
   fun:dl_open_worker
   fun:_dl_catch_exception
}
{
   <insert_a_suppression_name_here>
   Memcheck:Leak
   match-leak-kinds: reachable
   fun:_ZnwmSt11align_val_t
   fun:Allocate
   fun:allocateWithKey<llvm::MallocAllocator>
   fun:create<llvm::MallocAllocator, llvm::cl::Option*>
   fun:_ZN4llvm9StringMapIPNS_2cl6OptionENS_15MallocAllocatorEE11try_emplaceIJS3_EEESt4pairINS_17StringMapIteratorIS3_EEbENS_9StringRefEDpOT_
   fun:insert
   fun:_ZN12_GLOBAL__N_117CommandLineParser9addOptionEPN4llvm2cl6OptionEPNS2_10SubCommandE
   fun:addOption
   fun:_ZN4llvm2cl6Option11addArgumentEv
   fun:done
   fun:opt<char [14], llvm::cl::OptionHidden, llvm::cl::desc, llvm::cl::initializer<int> >
   fun:_Z41__static_initialization_and_destruction_0v
   fun:call_init
   fun:call_init
   fun:_dl_init
   fun:_dl_catch_exception
   fun:dl_open_worker
   fun:_dl_catch_exception
   fun:_dl_open
   fun:dlopen_doit
}
{
   <insert_a_suppression_name_here>
   Memcheck:Leak
   match-leak-kinds: reachable
   fun:_ZnwmSt11align_val_t
   fun:Allocate
   fun:allocateWithKey<llvm::MallocAllocator>
   fun:create<llvm::MallocAllocator, llvm::cl::Option*>
   fun:_ZN4llvm9StringMapIPNS_2cl6OptionENS_15MallocAllocatorEE11try_emplaceIJS3_EEESt4pairINS_17StringMapIteratorIS3_EEbENS_9StringRefEDpOT_
   fun:insert
   fun:_ZN12_GLOBAL__N_117CommandLineParser9addOptionEPN4llvm2cl6OptionEPNS2_10SubCommandE
   fun:addOption
   fun:_ZN4llvm2cl6Option11addArgumentEv
   fun:done
   fun:opt<char [14], llvm::cl::OptionHidden, llvm::cl::initializer<bool>, llvm::cl::desc>
   fun:__static_initialization_and_destruction_0
   fun:_GLOBAL__sub_I_MIRPrinter.cpp
   fun:call_init
   fun:call_init
   fun:_dl_init
   fun:_dl_catch_exception
   fun:dl_open_worker
   fun:_dl_catch_exception
   fun:_dl_open
   fun:dlopen_doit
}
{
   <insert_a_suppression_name_here>
   Memcheck:Leak
   match-leak-kinds: reachable
   fun:_ZnwmSt11align_val_t
   fun:Allocate
   fun:allocateWithKey<llvm::MallocAllocator>
   fun:create<llvm::MallocAllocator, llvm::cl::Option*>
   fun:_ZN4llvm9StringMapIPNS_2cl6OptionENS_15MallocAllocatorEE11try_emplaceIJS3_EEESt4pairINS_17StringMapIteratorIS3_EEbENS_9StringRefEDpOT_
   fun:insert
   fun:_ZN12_GLOBAL__N_117CommandLineParser9addOptionEPN4llvm2cl6OptionEPNS2_10SubCommandE
   fun:addOption
   fun:_ZN4llvm2cl6Option11addArgumentEv
   fun:done
   fun:opt<char [14], llvm::cl::desc, llvm::cl::initializer<bool>, llvm::cl::OptionHidden>
   fun:__static_initialization_and_destruction_0
   fun:_GLOBAL__sub_I_RegisterCoalescer.cpp
   fun:call_init
   fun:call_init
   fun:_dl_init
   fun:_dl_catch_exception
   fun:dl_open_worker
   fun:_dl_catch_exception
   fun:_dl_open
   fun:dlopen_doit
}
{
   <insert_a_suppression_name_here>
   Memcheck:Leak
   match-leak-kinds: reachable
   fun:_ZnwmSt11align_val_t
   fun:Allocate
   fun:allocateWithKey<llvm::MallocAllocator>
   fun:create<llvm::MallocAllocator, llvm::cl::Option*>
   fun:_ZN4llvm9StringMapIPNS_2cl6OptionENS_15MallocAllocatorEE11try_emplaceIJS3_EEESt4pairINS_17StringMapIteratorIS3_EEbENS_9StringRefEDpOT_
   fun:insert
   fun:_ZN12_GLOBAL__N_117CommandLineParser9addOptionEPN4llvm2cl6OptionEPNS2_10SubCommandE
   fun:addOption
   fun:_ZN4llvm2cl6Option11addArgumentEv
   fun:done
   fun:opt<char [14], llvm::cl::initializer<int>, llvm::cl::OptionHidden>
   fun:__static_initialization_and_destruction_0
   fun:_GLOBAL__sub_I_StackSlotColoring.cpp
   fun:call_init
   fun:call_init
   fun:_dl_init
   fun:_dl_catch_exception
   fun:dl_open_worker
   fun:_dl_catch_exception
   fun:_dl_open
   fun:dlopen_doit
}
{
   <insert_a_suppression_name_here>
   Memcheck:Leak
   match-leak-kinds: reachable
   fun:_ZnwmSt11align_val_t
   fun:Allocate
   fun:allocateWithKey<llvm::MallocAllocator>
   fun:create<llvm::MallocAllocator, llvm::cl::Option*>
   fun:_ZN4llvm9StringMapIPNS_2cl6OptionENS_15MallocAllocatorEE11try_emplaceIJS3_EEESt4pairINS_17StringMapIteratorIS3_EEbENS_9StringRefEDpOT_
   fun:insert
   fun:_ZN12_GLOBAL__N_117CommandLineParser9addOptionEPN4llvm2cl6OptionEPNS2_10SubCommandE
   fun:addOption
   fun:_ZN4llvm2cl6Option11addArgumentEv
   fun:done
   fun:opt<char [14], llvm::cl::desc, llvm::cl::initializer<int>, llvm::cl::OptionHidden>
   fun:__static_initialization_and_destruction_0
   fun:_GLOBAL__sub_I_TailDuplicator.cpp
   fun:call_init
   fun:call_init
   fun:_dl_init
   fun:_dl_catch_exception
   fun:dl_open_worker
   fun:_dl_catch_exception
   fun:_dl_open
   fun:dlopen_doit
}
{
   <insert_a_suppression_name_here>
   Memcheck:Leak
   match-leak-kinds: reachable
   fun:_ZnwmSt11align_val_t
   fun:Allocate
   fun:allocateWithKey<llvm::MallocAllocator>
   fun:create<llvm::MallocAllocator, llvm::cl::Option*>
   fun:_ZN4llvm9StringMapIPNS_2cl6OptionENS_15MallocAllocatorEE11try_emplaceIJS3_EEESt4pairINS_17StringMapIteratorIS3_EEbENS_9StringRefEDpOT_
   fun:insert
   fun:_ZN12_GLOBAL__N_117CommandLineParser9addOptionEPN4llvm2cl6OptionEPNS2_10SubCommandE
   fun:addOption
   fun:_ZN4llvm2cl6Option11addArgumentEv
   fun:done
   fun:opt<char [14], llvm::cl::OptionHidden, llvm::cl::initializer<int>, llvm::cl::desc>
   fun:_Z41__static_initialization_and_destruction_0v
   fun:call_init
   fun:call_init
   fun:_dl_init
   fun:_dl_catch_exception
   fun:dl_open_worker
   fun:_dl_catch_exception
   fun:_dl_open
   fun:dlopen_doit
}
{
   <insert_a_suppression_name_here>
   Memcheck:Leak
   match-leak-kinds: reachable
   fun:_ZnwmSt11align_val_t
   fun:Allocate
   fun:allocateWithKey<llvm::MallocAllocator>
   fun:create<llvm::MallocAllocator, llvm::cl::Option*>
   fun:_ZN4llvm9StringMapIPNS_2cl6OptionENS_15MallocAllocatorEE11try_emplaceIJS3_EEESt4pairINS_17StringMapIteratorIS3_EEbENS_9StringRefEDpOT_
   fun:insert
   fun:_ZN12_GLOBAL__N_117CommandLineParser9addOptionEPN4llvm2cl6OptionEPNS2_10SubCommandE
   fun:addOption
   fun:_ZN4llvm2cl6Option11addArgumentEv
   fun:done
   fun:opt<char [14], llvm::cl::OptionHidden, llvm::cl::initializer<bool> >
   fun:__static_initialization_and_destruction_0
   fun:_GLOBAL__sub_I_DebugHandlerBase.cpp
   fun:call_init
   fun:call_init
   fun:_dl_init
   fun:_dl_catch_exception
   fun:dl_open_worker
   fun:_dl_catch_exception
   fun:_dl_open
   fun:dlopen_doit
}
{
   <insert_a_suppression_name_here>
   Memcheck:Leak
   match-leak-kinds: reachable
   fun:_ZnwmSt11align_val_t
   fun:Allocate
   fun:allocateWithKey<llvm::MallocAllocator>
   fun:create<llvm::MallocAllocator, llvm::cl::Option*>
   fun:_ZN4llvm9StringMapIPNS_2cl6OptionENS_15MallocAllocatorEE11try_emplaceIJS3_EEESt4pairINS_17StringMapIteratorIS3_EEbENS_9StringRefEDpOT_
   fun:insert
   fun:_ZN12_GLOBAL__N_117CommandLineParser9addOptionEPN4llvm2cl6OptionEPNS2_10SubCommandE
   fun:addOption
   fun:_ZN4llvm2cl6Option11addArgumentEv
   fun:done
   fun:list<char [14], llvm::cl::desc, llvm::cl::OptionHidden>
   fun:_Z41__static_initialization_and_destruction_0v
   fun:call_init
   fun:call_init
   fun:_dl_init
   fun:_dl_catch_exception
   fun:dl_open_worker
   fun:_dl_catch_exception
   fun:_dl_open
   fun:dlopen_doit
}
{
   <insert_a_suppression_name_here>
   Memcheck:Leak
   match-leak-kinds: reachable
   fun:_ZnwmSt11align_val_t
   fun:Allocate
   fun:allocateWithKey<llvm::MallocAllocator>
   fun:create<llvm::MallocAllocator, llvm::cl::Option*>
   fun:_ZN4llvm9StringMapIPNS_2cl6OptionENS_15MallocAllocatorEE11try_emplaceIJS3_EEESt4pairINS_17StringMapIteratorIS3_EEbENS_9StringRefEDpOT_
   fun:insert
   fun:_ZN12_GLOBAL__N_117CommandLineParser9addOptionEPN4llvm2cl6OptionEPNS2_10SubCommandE
   fun:addOption
   fun:_ZN4llvm2cl6Option11addArgumentEv
   fun:done
   fun:opt<char [14], llvm::cl::desc, llvm::cl::OptionHidden, llvm::cl::initializer<int> >
   fun:_Z41__static_initialization_and_destruction_0v
   fun:call_init
   fun:call_init
   fun:_dl_init
   fun:_dl_catch_exception
   fun:dl_open_worker
   fun:_dl_catch_exception
   fun:_dl_open
   fun:dlopen_doit
}
{
   <insert_a_suppression_name_here>
   Memcheck:Leak
   match-leak-kinds: reachable
   fun:_ZnwmSt11align_val_t
   fun:Allocate
   fun:allocateWithKey<llvm::MallocAllocator>
   fun:create<llvm::MallocAllocator, llvm::cl::Option*>
   fun:_ZN4llvm9StringMapIPNS_2cl6OptionENS_15MallocAllocatorEE11try_emplaceIJS3_EEESt4pairINS_17StringMapIteratorIS3_EEbENS_9StringRefEDpOT_
   fun:insert
   fun:_ZN12_GLOBAL__N_117CommandLineParser9addOptionEPN4llvm2cl6OptionEPNS2_10SubCommandE
   fun:addOption
   fun:_ZN4llvm2cl6Option11addArgumentEv
   fun:done
   fun:opt<char [14], llvm::cl::desc, llvm::cl::OptionHidden, llvm::cl::initializer<bool> >
   fun:_Z41__static_initialization_and_destruction_0v
   fun:call_init
   fun:call_init
   fun:_dl_init
   fun:_dl_catch_exception
   fun:dl_open_worker
   fun:_dl_catch_exception
   fun:_dl_open
   fun:dlopen_doit
}
{
   <insert_a_suppression_name_here>
   Memcheck:Leak
   match-leak-kinds: reachable
   fun:_ZnwmSt11align_val_t
   fun:Allocate
   fun:allocateWithKey<llvm::MallocAllocator>
   fun:create<llvm::MallocAllocator, llvm::cl::Option*>
   fun:_ZN4llvm9StringMapIPNS_2cl6OptionENS_15MallocAllocatorEE11try_emplaceIJS3_EEESt4pairINS_17StringMapIteratorIS3_EEbENS_9StringRefEDpOT_
   fun:insert
   fun:_ZN12_GLOBAL__N_117CommandLineParser9addOptionEPN4llvm2cl6OptionEPNS2_10SubCommandE
   fun:addOption
   fun:_ZN4llvm2cl6Option11addArgumentEv
   fun:done
   fun:opt<char [14], llvm::cl::OptionHidden, llvm::cl::desc>
   fun:_Z41__static_initialization_and_destruction_0v
   fun:call_init
   fun:call_init
   fun:_dl_init
   fun:_dl_catch_exception
   fun:dl_open_worker
   fun:_dl_catch_exception
   fun:_dl_open
   fun:dlopen_doit
}
{
   <insert_a_suppression_name_here>
   Memcheck:Leak
   match-leak-kinds: reachable
   fun:_ZnwmSt11align_val_t
   fun:Allocate
   fun:allocateWithKey<llvm::MallocAllocator>
   fun:create<llvm::MallocAllocator, llvm::cl::Option*>
   fun:_ZN4llvm9StringMapIPNS_2cl6OptionENS_15MallocAllocatorEE11try_emplaceIJS3_EEESt4pairINS_17StringMapIteratorIS3_EEbENS_9StringRefEDpOT_
   fun:insert
   fun:_ZN12_GLOBAL__N_117CommandLineParser9addOptionEPN4llvm2cl6OptionEPNS2_10SubCommandE
   fun:addOption
   fun:_ZN4llvm2cl6Option11addArgumentEv
   fun:done
   fun:opt<char [14], llvm::cl::initializer<int>, llvm::cl::OptionHidden, llvm::cl::value_desc, llvm::cl::desc>
   fun:_Z41__static_initialization_and_destruction_0v
   fun:call_init
   fun:call_init
   fun:_dl_init
   fun:_dl_catch_exception
   fun:dl_open_worker
   fun:_dl_catch_exception
   fun:_dl_open
   fun:dlopen_doit
}
{
   <insert_a_suppression_name_here>
   Memcheck:Leak
   match-leak-kinds: reachable
   fun:_ZnwmSt11align_val_t
   fun:Allocate
   fun:allocateWithKey<llvm::MallocAllocator>
   fun:create<llvm::MallocAllocator, llvm::cl::Option*>
   fun:_ZN4llvm9StringMapIPNS_2cl6OptionENS_15MallocAllocatorEE11try_emplaceIJS3_EEESt4pairINS_17StringMapIteratorIS3_EEbENS_9StringRefEDpOT_
   fun:insert
   fun:_ZN12_GLOBAL__N_117CommandLineParser9addOptionEPN4llvm2cl6OptionEPNS2_10SubCommandE
   fun:addOption
   fun:_ZN4llvm2cl6Option11addArgumentEv
   fun:done
   fun:opt<char [14], llvm::cl::initializer<bool>, llvm::cl::OptionHidden, llvm::cl::desc>
   fun:_Z41__static_initialization_and_destruction_0v
   fun:call_init
   fun:call_init
   fun:_dl_init
   fun:_dl_catch_exception
   fun:dl_open_worker
   fun:_dl_catch_exception
   fun:_dl_open
   fun:dlopen_doit
}
{
   <insert_a_suppression_name_here>
   Memcheck:Leak
   match-leak-kinds: reachable
   fun:_ZnwmSt11align_val_t
   fun:Allocate
   fun:allocateWithKey<llvm::MallocAllocator>
   fun:create<llvm::MallocAllocator, llvm::cl::Option*>
   fun:_ZN4llvm9StringMapIPNS_2cl6OptionENS_15MallocAllocatorEE11try_emplaceIJS3_EEESt4pairINS_17StringMapIteratorIS3_EEbENS_9StringRefEDpOT_
   fun:insert
   fun:_ZN12_GLOBAL__N_117CommandLineParser9addOptionEPN4llvm2cl6OptionEPNS2_10SubCommandE
   fun:addOption
   fun:_ZN4llvm2cl6Option11addArgumentEv
   fun:done
   fun:opt<char [14], llvm::cl::initializer<int>, llvm::cl::OptionHidden, llvm::cl::desc>
   fun:_Z41__static_initialization_and_destruction_0v
   fun:call_init
   fun:call_init
   fun:_dl_init
   fun:_dl_catch_exception
   fun:dl_open_worker
   fun:_dl_catch_exception
   fun:_dl_open
   fun:dlopen_doit
}
{
   <insert_a_suppression_name_here>
   Memcheck:Leak
   match-leak-kinds: reachable
   fun:_ZnwmSt11align_val_t
   fun:Allocate
   fun:allocateWithKey<llvm::MallocAllocator>
   fun:create<llvm::MallocAllocator, llvm::cl::Option*>
   fun:_ZN4llvm9StringMapIPNS_2cl6OptionENS_15MallocAllocatorEE11try_emplaceIJS3_EEESt4pairINS_17StringMapIteratorIS3_EEbENS_9StringRefEDpOT_
   fun:insert
   fun:_ZN12_GLOBAL__N_117CommandLineParser9addOptionEPN4llvm2cl6OptionEPNS2_10SubCommandE
   fun:addOption
   fun:_ZN4llvm2cl6Option11addArgumentEv
   fun:done
   fun:opt<char [14], llvm::cl::OptionHidden, llvm::cl::desc>
   fun:__static_initialization_and_destruction_0
   fun:_GLOBAL__sub_I_CFGPrinter.cpp
   fun:call_init
   fun:call_init
   fun:_dl_init
   fun:_dl_catch_exception
   fun:dl_open_worker
   fun:_dl_catch_exception
   fun:_dl_open
   fun:dlopen_doit
}
{
   <insert_a_suppression_name_here>
   Memcheck:Leak
   match-leak-kinds: reachable
   fun:_ZnwmSt11align_val_t
   fun:Allocate
   fun:allocateWithKey<llvm::MallocAllocator>
   fun:create<llvm::MallocAllocator, llvm::cl::Option*>
   fun:_ZN4llvm9StringMapIPNS_2cl6OptionENS_15MallocAllocatorEE11try_emplaceIJS3_EEESt4pairINS_17StringMapIteratorIS3_EEbENS_9StringRefEDpOT_
   fun:insert
   fun:_ZN12_GLOBAL__N_117CommandLineParser9addOptionEPN4llvm2cl6OptionEPNS2_10SubCommandE
   fun:addOption
   fun:_ZN4llvm2cl6Option11addArgumentEv
   fun:done
   fun:opt<char [14], llvm::cl::initializer<bool>, llvm::cl::OptionHidden, llvm::cl::desc>
   fun:__static_initialization_and_destruction_0
   fun:_GLOBAL__sub_I_DDG.cpp
   fun:call_init
   fun:call_init
   fun:_dl_init
   fun:_dl_catch_exception
   fun:dl_open_worker
   fun:_dl_catch_exception
   fun:_dl_open
   fun:dlopen_doit
}
{
   <insert_a_suppression_name_here>
   Memcheck:Leak
   match-leak-kinds: reachable
   fun:_ZnwmSt11align_val_t
   fun:Allocate
   fun:allocateWithKey<llvm::MallocAllocator>
   fun:create<llvm::MallocAllocator, llvm::cl::Option*>
   fun:_ZN4llvm9StringMapIPNS_2cl6OptionENS_15MallocAllocatorEE11try_emplaceIJS3_EEESt4pairINS_17StringMapIteratorIS3_EEbENS_9StringRefEDpOT_
   fun:insert
   fun:_ZN12_GLOBAL__N_117CommandLineParser9addOptionEPN4llvm2cl6OptionEPNS2_10SubCommandE
   fun:addOption
   fun:_ZN4llvm2cl6Option11addArgumentEv
   fun:done
   fun:opt<char [14], llvm::cl::initializer<int>, llvm::cl::OptionHidden, llvm::cl::desc>
   fun:__static_initialization_and_destruction_0
   fun:_GLOBAL__sub_I_TargetTransformInfo.cpp
   fun:call_init
   fun:call_init
   fun:_dl_init
   fun:_dl_catch_exception
   fun:dl_open_worker
   fun:_dl_catch_exception
   fun:_dl_open
   fun:dlopen_doit
}
{
   <insert_a_suppression_name_here>
   Memcheck:Leak
   match-leak-kinds: reachable
   fun:_ZnwmSt11align_val_t
   fun:Allocate
   fun:allocateWithKey<llvm::MallocAllocator>
   fun:create<llvm::MallocAllocator, llvm::cl::Option*>
   fun:_ZN4llvm9StringMapIPNS_2cl6OptionENS_15MallocAllocatorEE11try_emplaceIJS3_EEESt4pairINS_17StringMapIteratorIS3_EEbENS_9StringRefEDpOT_
   fun:insert
   fun:_ZN12_GLOBAL__N_117CommandLineParser9addOptionEPN4llvm2cl6OptionEPNS2_10SubCommandE
   fun:addOption
   fun:_ZN4llvm2cl6Option11addArgumentEv
   fun:done
   fun:opt<char [14], llvm::cl::desc, llvm::cl::initializer<int> >
   fun:_ZN4llvm2mc28RegisterMCTargetOptionsFlagsC1Ev
   fun:call_init
   fun:call_init
   fun:_dl_init
   fun:_dl_catch_exception
   fun:dl_open_worker
   fun:_dl_catch_exception
   fun:_dl_open
   fun:dlopen_doit
}
{
   <insert_a_suppression_name_here>
   Memcheck:Leak
   match-leak-kinds: reachable
   fun:_ZnwmSt11align_val_t
   fun:Allocate
   fun:allocateWithKey<llvm::MallocAllocator>
   fun:create<llvm::MallocAllocator, llvm::cl::Option*>
   fun:_ZN4llvm9StringMapIPNS_2cl6OptionENS_15MallocAllocatorEE11try_emplaceIJS3_EEESt4pairINS_17StringMapIteratorIS3_EEbENS_9StringRefEDpOT_
   fun:insert
   fun:_ZN12_GLOBAL__N_117CommandLineParser9addOptionEPN4llvm2cl6OptionEPNS2_10SubCommandE
   fun:addOption
   fun:_ZN4llvm2cl6Option11addArgumentEv
   fun:done
   fun:opt<char [14], llvm::cl::desc>
   fun:_ZN4llvm2mc28RegisterMCTargetOptionsFlagsC1Ev
   fun:call_init
   fun:call_init
   fun:_dl_init
   fun:_dl_catch_exception
   fun:dl_open_worker
   fun:_dl_catch_exception
   fun:_dl_open
   fun:dlopen_doit
}
{
   <insert_a_suppression_name_here>
   Memcheck:Leak
   match-leak-kinds: reachable
   fun:_ZnwmSt11align_val_t
   fun:Allocate
   fun:allocateWithKey<llvm::MallocAllocator>
   fun:create<llvm::MallocAllocator, llvm::cl::Option*>
   fun:_ZN4llvm9StringMapIPNS_2cl6OptionENS_15MallocAllocatorEE11try_emplaceIJS3_EEESt4pairINS_17StringMapIteratorIS3_EEbENS_9StringRefEDpOT_
   fun:insert
   fun:_ZN12_GLOBAL__N_117CommandLineParser9addOptionEPN4llvm2cl6OptionEPNS2_10SubCommandE
   fun:addOption
   fun:_ZN4llvm2cl6Option11addArgumentEv
   fun:done
   fun:opt<char [14], llvm::cl::OptionHidden, llvm::cl::initializer<llvm::FunctionPass* (*)()>, llvm::cl::desc>
   fun:_Z41__static_initialization_and_destruction_0v
   fun:call_init
   fun:call_init
   fun:_dl_init
   fun:_dl_catch_exception
   fun:dl_open_worker
   fun:_dl_catch_exception
   fun:_dl_open
   fun:dlopen_doit
}
{
   <insert_a_suppression_name_here>
   Memcheck:Leak
   match-leak-kinds: reachable
   fun:_ZnwmSt11align_val_t
   fun:Allocate
   fun:allocateWithKey<llvm::MallocAllocator>
   fun:create<llvm::MallocAllocator, llvm::cl::Option*>
   fun:_ZN4llvm9StringMapIPNS_2cl6OptionENS_15MallocAllocatorEE11try_emplaceIJS3_EEESt4pairINS_17StringMapIteratorIS3_EEbENS_9StringRefEDpOT_
   fun:insert
   fun:_ZN12_GLOBAL__N_117CommandLineParser9addOptionEPN4llvm2cl6OptionEPNS2_10SubCommandE
   fun:addOption
   fun:_ZN4llvm2cl6Option11addArgumentEv
   fun:__static_initialization_and_destruction_0
   fun:_GLOBAL__sub_I_BPFSubtarget.cpp
   fun:call_init
   fun:call_init
   fun:_dl_init
   fun:_dl_catch_exception
   fun:dl_open_worker
   fun:_dl_catch_exception
   fun:_dl_open
   fun:dlopen_doit
}
{
   <insert_a_suppression_name_here>
   Memcheck:Leak
   match-leak-kinds: reachable
   fun:_ZnwmSt11align_val_t
   fun:Allocate
   fun:allocateWithKey<llvm::MallocAllocator>
   fun:create<llvm::MallocAllocator, llvm::cl::Option*>
   fun:_ZN4llvm9StringMapIPNS_2cl6OptionENS_15MallocAllocatorEE11try_emplaceIJS3_EEESt4pairINS_17StringMapIteratorIS3_EEbENS_9StringRefEDpOT_
   fun:insert
   fun:_ZN12_GLOBAL__N_117CommandLineParser9addOptionEPN4llvm2cl6OptionEPNS2_10SubCommandE
   fun:addOption
   fun:_ZN4llvm2cl6Option11addArgumentEv
   fun:done
   fun:opt<char [14], llvm::cl::initializer<bool>, llvm::cl::OptionHidden>
   fun:__static_initialization_and_destruction_0
   fun:_GLOBAL__sub_I_HexagonCommonGEP.cpp
   fun:call_init
   fun:call_init
   fun:_dl_init
   fun:_dl_catch_exception
   fun:dl_open_worker
   fun:_dl_catch_exception
   fun:_dl_open
   fun:dlopen_doit
}
{
   <insert_a_suppression_name_here>
   Memcheck:Leak
   match-leak-kinds: reachable
   fun:_ZnwmSt11align_val_t
   fun:Allocate
   fun:allocateWithKey<llvm::MallocAllocator>
   fun:create<llvm::MallocAllocator, llvm::cl::Option*>
   fun:_ZN4llvm9StringMapIPNS_2cl6OptionENS_15MallocAllocatorEE11try_emplaceIJS3_EEESt4pairINS_17StringMapIteratorIS3_EEbENS_9StringRefEDpOT_
   fun:insert
   fun:_ZN12_GLOBAL__N_117CommandLineParser9addOptionEPN4llvm2cl6OptionEPNS2_10SubCommandE
   fun:addOption
   fun:_ZN4llvm2cl6Option11addArgumentEv
   fun:done
   fun:opt<char [14], llvm::cl::initializer<bool>, llvm::cl::OptionHidden, llvm::cl::desc>
   fun:__static_initialization_and_destruction_0
   fun:_GLOBAL__sub_I_HexagonGenExtract.cpp
   fun:call_init
   fun:call_init
   fun:_dl_init
   fun:_dl_catch_exception
   fun:dl_open_worker
   fun:_dl_catch_exception
   fun:_dl_open
   fun:dlopen_doit
}
{
   <insert_a_suppression_name_here>
   Memcheck:Leak
   match-leak-kinds: reachable
   fun:_ZnwmSt11align_val_t
   fun:Allocate
   fun:allocateWithKey<llvm::MallocAllocator>
   fun:create<llvm::MallocAllocator, llvm::cl::Option*>
   fun:_ZN4llvm9StringMapIPNS_2cl6OptionENS_15MallocAllocatorEE11try_emplaceIJS3_EEESt4pairINS_17StringMapIteratorIS3_EEbENS_9StringRefEDpOT_
   fun:insert
   fun:_ZN12_GLOBAL__N_117CommandLineParser9addOptionEPN4llvm2cl6OptionEPNS2_10SubCommandE
   fun:addOption
   fun:_ZN4llvm2cl6Option11addArgumentEv
   fun:done
   fun:opt<char [14], llvm::cl::OptionHidden, llvm::cl::desc>
   fun:__static_initialization_and_destruction_0
   fun:_GLOBAL__sub_I_HexagonGenInsert.cpp
   fun:call_init
   fun:call_init
   fun:_dl_init
   fun:_dl_catch_exception
   fun:dl_open_worker
   fun:_dl_catch_exception
   fun:_dl_open
   fun:dlopen_doit
}
{
   <insert_a_suppression_name_here>
   Memcheck:Leak
   match-leak-kinds: reachable
   fun:_ZnwmSt11align_val_t
   fun:Allocate
   fun:allocateWithKey<llvm::MallocAllocator>
   fun:create<llvm::MallocAllocator, llvm::cl::Option*>
   fun:_ZN4llvm9StringMapIPNS_2cl6OptionENS_15MallocAllocatorEE11try_emplaceIJS3_EEESt4pairINS_17StringMapIteratorIS3_EEbENS_9StringRefEDpOT_
   fun:insert
   fun:_ZN12_GLOBAL__N_117CommandLineParser9addOptionEPN4llvm2cl6OptionEPNS2_10SubCommandE
   fun:addOption
   fun:_ZN4llvm2cl6Option11addArgumentEv
   fun:done
   fun:opt<char [14], llvm::cl::initializer<bool>, llvm::cl::desc>
   fun:__static_initialization_and_destruction_0
   fun:_GLOBAL__sub_I_MipsSEISelLowering.cpp
   fun:call_init
   fun:call_init
   fun:_dl_init
   fun:_dl_catch_exception
   fun:dl_open_worker
   fun:_dl_catch_exception
   fun:_dl_open
   fun:dlopen_doit
}
{
   <insert_a_suppression_name_here>
   Memcheck:Leak
   match-leak-kinds: reachable
   fun:_ZnwmSt11align_val_t
   fun:Allocate
   fun:allocateWithKey<llvm::MallocAllocator>
   fun:create<llvm::MallocAllocator, llvm::cl::Option*>
   fun:_ZN4llvm9StringMapIPNS_2cl6OptionENS_15MallocAllocatorEE11try_emplaceIJS3_EEESt4pairINS_17StringMapIteratorIS3_EEbENS_9StringRefEDpOT_
   fun:insert
   fun:_ZN12_GLOBAL__N_117CommandLineParser9addOptionEPN4llvm2cl6OptionEPNS2_10SubCommandE
   fun:addOption
   fun:_ZN4llvm2cl6Option11addArgumentEv
   fun:done
   fun:opt<char [14], llvm::cl::OptionHidden, llvm::cl::desc, llvm::cl::initializer<bool> >
   fun:__static_initialization_and_destruction_0
   fun:_GLOBAL__sub_I_MipsTargetObjectFile.cpp
   fun:call_init
   fun:call_init
   fun:_dl_init
   fun:_dl_catch_exception
   fun:dl_open_worker
   fun:_dl_catch_exception
   fun:_dl_open
   fun:dlopen_doit
}
{
   <insert_a_suppression_name_here>
   Memcheck:Leak
   match-leak-kinds: reachable
   fun:_ZnwmSt11align_val_t
   fun:Allocate
   fun:allocateWithKey<llvm::MallocAllocator>
   fun:create<llvm::MallocAllocator, llvm::cl::Option*>
   fun:_ZN4llvm9StringMapIPNS_2cl6OptionENS_15MallocAllocatorEE11try_emplaceIJS3_EEESt4pairINS_17StringMapIteratorIS3_EEbENS_9StringRefEDpOT_
   fun:insert
   fun:_ZN12_GLOBAL__N_117CommandLineParser9addOptionEPN4llvm2cl6OptionEPNS2_10SubCommandE
   fun:addOption
   fun:_ZN4llvm2cl6Option11addArgumentEv
   fun:done
   fun:opt<char [14], llvm::cl::OptionHidden, llvm::cl::initializer<ICmpInGPRType>, llvm::cl::desc, llvm::cl::ValuesClass>
   fun:_Z41__static_initialization_and_destruction_0v
   fun:call_init
   fun:call_init
   fun:_dl_init
   fun:_dl_catch_exception
   fun:dl_open_worker
   fun:_dl_catch_exception
   fun:_dl_open
   fun:dlopen_doit
}
{
   <insert_a_suppression_name_here>
   Memcheck:Leak
   match-leak-kinds: reachable
   fun:_ZnwmSt11align_val_t
   fun:Allocate
   fun:allocateWithKey<llvm::MallocAllocator>
   fun:create<llvm::MallocAllocator, llvm::cl::Option*>
   fun:_ZN4llvm9StringMapIPNS_2cl6OptionENS_15MallocAllocatorEE11try_emplaceIJS3_EEESt4pairINS_17StringMapIteratorIS3_EEbENS_9StringRefEDpOT_
   fun:insert
   fun:_ZN12_GLOBAL__N_117CommandLineParser9addOptionEPN4llvm2cl6OptionEPNS2_10SubCommandE
   fun:addOption
   fun:_ZN4llvm2cl6Option11addArgumentEv
   fun:done
   fun:opt<char [14], llvm::cl::desc, llvm::cl::initializer<bool>, llvm::cl::OptionHidden>
   fun:__static_initialization_and_destruction_0
   fun:_GLOBAL__sub_I_X86SpeculativeLoadHardening.cpp
   fun:call_init
   fun:call_init
   fun:_dl_init
   fun:_dl_catch_exception
   fun:dl_open_worker
   fun:_dl_catch_exception
   fun:_dl_open
   fun:dlopen_doit
}
{
   <insert_a_suppression_name_here>
   Memcheck:Leak
   match-leak-kinds: reachable
   fun:_ZnwmSt11align_val_t
   fun:Allocate
   fun:allocateWithKey<llvm::MallocAllocator>
   fun:create<llvm::MallocAllocator, llvm::cl::Option*>
   fun:_ZN4llvm9StringMapIPNS_2cl6OptionENS_15MallocAllocatorEE11try_emplaceIJS3_EEESt4pairINS_17StringMapIteratorIS3_EEbENS_9StringRefEDpOT_
   fun:insert
   fun:_ZN12_GLOBAL__N_117CommandLineParser9addOptionEPN4llvm2cl6OptionEPNS2_10SubCommandE
   fun:operator()
   fun:callback_fn<(anonymous namespace)::CommandLineParser::addOption(llvm::cl::Option*, bool)::<lambda(llvm::cl::SubCommand&)> >
   fun:operator()
   fun:_ZN12_GLOBAL__N_117CommandLineParser17forEachSubCommandERN4llvm2cl6OptionENS1_12function_refIFvRNS2_10SubCommandEEEE.constprop.2
   fun:addOption
   fun:_ZN4llvm2cl6Option11addArgumentEv
   fun:done
   fun:opt<char [14], llvm::cl::desc, llvm::cl::OptionHidden, llvm::cl::initializer<bool>, llvm::cl::cat, llvm::cl::sub>
   fun:_ZN12_GLOBAL__N_124CommandLineCommonOptionsC1Ev
   fun:_ZN4llvm14object_creatorIN12_GLOBAL__N_124CommandLineCommonOptionsEE4callEv
   fun:_ZNK4llvm17ManagedStaticBase21RegisterManagedStaticEPFPvvEPFvS1_E
   fun:operator*
   fun:initCommonOptions
   fun:_ZN4llvm2cl23ParseCommandLineOptionsEiPKPKcNS_9StringRefEPNS_11raw_ostreamES2_b
   fun:LLVMParseCommandLineOptions
   fun:ac_init_llvm_target
   fun:__pthread_once_slow.isra.0
}
{
   <insert_a_suppression_name_here>
   Memcheck:Leak
   match-leak-kinds: reachable
   fun:_ZnwmSt11align_val_t
   fun:Allocate
   fun:allocateWithKey<llvm::MallocAllocator>
   fun:create<llvm::MallocAllocator, llvm::cl::Option*>
   fun:_ZN4llvm9StringMapIPNS_2cl6OptionENS_15MallocAllocatorEE11try_emplaceIJS3_EEESt4pairINS_17StringMapIteratorIS3_EEbENS_9StringRefEDpOT_
   fun:insert
   fun:_ZN12_GLOBAL__N_117CommandLineParser9addOptionEPN4llvm2cl6OptionEPNS2_10SubCommandE
   fun:addOption
   fun:_ZN4llvm2cl6Option11addArgumentEv
   fun:done
   fun:opt<char [14], llvm::cl::desc, llvm::cl::OptionHidden, llvm::cl::initializer<bool>, llvm::cl::cat, llvm::cl::sub>
   fun:_ZN12_GLOBAL__N_124CommandLineCommonOptionsC1Ev
   fun:_ZN4llvm14object_creatorIN12_GLOBAL__N_124CommandLineCommonOptionsEE4callEv
   fun:_ZNK4llvm17ManagedStaticBase21RegisterManagedStaticEPFPvvEPFvS1_E
   fun:operator*
   fun:initCommonOptions
   fun:_ZN4llvm2cl23ParseCommandLineOptionsEiPKPKcNS_9StringRefEPNS_11raw_ostreamES2_b
   fun:LLVMParseCommandLineOptions
   fun:ac_init_llvm_target
   fun:__pthread_once_slow.isra.0
   fun:pthread_once@@GLIBC_2.34
}
{
   <insert_a_suppression_name_here>
   Memcheck:Leak
   match-leak-kinds: reachable
   fun:_ZnwmSt11align_val_t
   fun:Allocate
   fun:allocateWithKey<llvm::MallocAllocator>
   fun:create<llvm::MallocAllocator, llvm::cl::Option*>
   fun:_ZN4llvm9StringMapIPNS_2cl6OptionENS_15MallocAllocatorEE11try_emplaceIJS3_EEESt4pairINS_17StringMapIteratorIS3_EEbENS_9StringRefEDpOT_
   fun:insert
   fun:_ZN12_GLOBAL__N_117CommandLineParser9addOptionEPN4llvm2cl6OptionEPNS2_10SubCommandE
   fun:addOption
   fun:_ZN4llvm2cl6Option11addArgumentEv
   fun:done
   fun:opt<char [15], llvm::cl::initializer<int>, llvm::cl::OptionHidden, llvm::cl::desc>
   fun:_Z41__static_initialization_and_destruction_0v
   fun:call_init
   fun:call_init
   fun:_dl_init
   fun:_dl_catch_exception
   fun:dl_open_worker
   fun:_dl_catch_exception
   fun:_dl_open
   fun:dlopen_doit
}
{
   <insert_a_suppression_name_here>
   Memcheck:Leak
   match-leak-kinds: reachable
   fun:_ZnwmSt11align_val_t
   fun:Allocate
   fun:allocateWithKey<llvm::MallocAllocator>
   fun:create<llvm::MallocAllocator, llvm::cl::Option*>
   fun:_ZN4llvm9StringMapIPNS_2cl6OptionENS_15MallocAllocatorEE11try_emplaceIJS3_EEESt4pairINS_17StringMapIteratorIS3_EEbENS_9StringRefEDpOT_
   fun:insert
   fun:_ZN12_GLOBAL__N_117CommandLineParser9addOptionEPN4llvm2cl6OptionEPNS2_10SubCommandE
   fun:addOption
   fun:_ZN4llvm2cl6Option11addArgumentEv
   fun:done
   fun:opt<char [15], llvm::cl::initializer<int>, llvm::cl::OptionHidden>
   fun:__static_initialization_and_destruction_0
   fun:_GLOBAL__sub_I_IfConversion.cpp
   fun:call_init
   fun:call_init
   fun:_dl_init
   fun:_dl_catch_exception
   fun:dl_open_worker
   fun:_dl_catch_exception
   fun:_dl_open
   fun:dlopen_doit
}
{
   <insert_a_suppression_name_here>
   Memcheck:Leak
   match-leak-kinds: reachable
   fun:_ZnwmSt11align_val_t
   fun:Allocate
   fun:allocateWithKey<llvm::MallocAllocator>
   fun:create<llvm::MallocAllocator, llvm::cl::Option*>
   fun:_ZN4llvm9StringMapIPNS_2cl6OptionENS_15MallocAllocatorEE11try_emplaceIJS3_EEESt4pairINS_17StringMapIteratorIS3_EEbENS_9StringRefEDpOT_
   fun:insert
   fun:_ZN12_GLOBAL__N_117CommandLineParser9addOptionEPN4llvm2cl6OptionEPNS2_10SubCommandE
   fun:addOption
   fun:_ZN4llvm2cl6Option11addArgumentEv
   fun:done
   fun:opt<char [15], llvm::cl::desc, llvm::cl::initializer<int>, llvm::cl::OptionHidden>
   fun:_Z41__static_initialization_and_destruction_0v
   fun:call_init
   fun:call_init
   fun:_dl_init
   fun:_dl_catch_exception
   fun:dl_open_worker
   fun:_dl_catch_exception
   fun:_dl_open
   fun:dlopen_doit
}
{
   <insert_a_suppression_name_here>
   Memcheck:Leak
   match-leak-kinds: reachable
   fun:_ZnwmSt11align_val_t
   fun:Allocate
   fun:allocateWithKey<llvm::MallocAllocator>
   fun:create<llvm::MallocAllocator, llvm::cl::Option*>
   fun:_ZN4llvm9StringMapIPNS_2cl6OptionENS_15MallocAllocatorEE11try_emplaceIJS3_EEESt4pairINS_17StringMapIteratorIS3_EEbENS_9StringRefEDpOT_
   fun:insert
   fun:_ZN12_GLOBAL__N_117CommandLineParser9addOptionEPN4llvm2cl6OptionEPNS2_10SubCommandE
   fun:addOption
   fun:_ZN4llvm2cl6Option11addArgumentEv
   fun:done
   fun:opt<char [15], llvm::cl::OptionHidden, llvm::cl::desc>
   fun:__static_initialization_and_destruction_0
   fun:_GLOBAL__sub_I_MachineCFGPrinter.cpp
   fun:call_init
   fun:call_init
   fun:_dl_init
   fun:_dl_catch_exception
   fun:dl_open_worker
   fun:_dl_catch_exception
   fun:_dl_open
   fun:dlopen_doit
}
{
   <insert_a_suppression_name_here>
   Memcheck:Leak
   match-leak-kinds: reachable
   fun:_ZnwmSt11align_val_t
   fun:Allocate
   fun:allocateWithKey<llvm::MallocAllocator>
   fun:create<llvm::MallocAllocator, llvm::cl::Option*>
   fun:_ZN4llvm9StringMapIPNS_2cl6OptionENS_15MallocAllocatorEE11try_emplaceIJS3_EEESt4pairINS_17StringMapIteratorIS3_EEbENS_9StringRefEDpOT_
   fun:insert
   fun:_ZN12_GLOBAL__N_117CommandLineParser9addOptionEPN4llvm2cl6OptionEPNS2_10SubCommandE
   fun:addOption
   fun:_ZN4llvm2cl6Option11addArgumentEv
   fun:done
   fun:opt<char [15], llvm::cl::desc, llvm::cl::initializer<int>, llvm::cl::OptionHidden>
   fun:__static_initialization_and_destruction_0
   fun:_GLOBAL__sub_I_MachineFunctionSplitter.cpp
   fun:call_init
   fun:call_init
   fun:_dl_init
   fun:_dl_catch_exception
   fun:dl_open_worker
   fun:_dl_catch_exception
   fun:_dl_open
   fun:dlopen_doit
}
{
   <insert_a_suppression_name_here>
   Memcheck:Leak
   match-leak-kinds: reachable
   fun:_ZnwmSt11align_val_t
   fun:Allocate
   fun:allocateWithKey<llvm::MallocAllocator>
   fun:create<llvm::MallocAllocator, llvm::cl::Option*>
   fun:_ZN4llvm9StringMapIPNS_2cl6OptionENS_15MallocAllocatorEE11try_emplaceIJS3_EEESt4pairINS_17StringMapIteratorIS3_EEbENS_9StringRefEDpOT_
   fun:insert
   fun:_ZN12_GLOBAL__N_117CommandLineParser9addOptionEPN4llvm2cl6OptionEPNS2_10SubCommandE
   fun:addOption
   fun:_ZN4llvm2cl6Option11addArgumentEv
   fun:done
   fun:opt<char [15], llvm::cl::OptionHidden, llvm::cl::desc>
   fun:_Z41__static_initialization_and_destruction_0v
   fun:call_init
   fun:call_init
   fun:_dl_init
   fun:_dl_catch_exception
   fun:dl_open_worker
   fun:_dl_catch_exception
   fun:_dl_open
   fun:dlopen_doit
}
{
   <insert_a_suppression_name_here>
   Memcheck:Leak
   match-leak-kinds: reachable
   fun:_ZnwmSt11align_val_t
   fun:Allocate
   fun:allocateWithKey<llvm::MallocAllocator>
   fun:create<llvm::MallocAllocator, llvm::cl::Option*>
   fun:_ZN4llvm9StringMapIPNS_2cl6OptionENS_15MallocAllocatorEE11try_emplaceIJS3_EEESt4pairINS_17StringMapIteratorIS3_EEbENS_9StringRefEDpOT_
   fun:insert
   fun:_ZN12_GLOBAL__N_117CommandLineParser9addOptionEPN4llvm2cl6OptionEPNS2_10SubCommandE
   fun:addOption
   fun:_ZN4llvm2cl6Option11addArgumentEv
   fun:done
   fun:opt<char [15], llvm::cl::desc, llvm::cl::initializer<bool>, llvm::cl::OptionHidden>
   fun:_Z41__static_initialization_and_destruction_0v
   fun:call_init
   fun:call_init
   fun:_dl_init
   fun:_dl_catch_exception
   fun:dl_open_worker
   fun:_dl_catch_exception
   fun:_dl_open
   fun:dlopen_doit
}
{
   <insert_a_suppression_name_here>
   Memcheck:Leak
   match-leak-kinds: reachable
   fun:_ZnwmSt11align_val_t
   fun:Allocate
   fun:allocateWithKey<llvm::MallocAllocator>
   fun:create<llvm::MallocAllocator, llvm::cl::Option*>
   fun:_ZN4llvm9StringMapIPNS_2cl6OptionENS_15MallocAllocatorEE11try_emplaceIJS3_EEESt4pairINS_17StringMapIteratorIS3_EEbENS_9StringRefEDpOT_
   fun:insert
   fun:_ZN12_GLOBAL__N_117CommandLineParser9addOptionEPN4llvm2cl6OptionEPNS2_10SubCommandE
   fun:addOption
   fun:_ZN4llvm2cl6Option11addArgumentEv
   fun:done
   fun:opt<char [15], llvm::cl::OptionHidden, llvm::cl::desc, llvm::cl::initializer<bool> >
   fun:__static_initialization_and_destruction_0
   fun:_GLOBAL__sub_I_MacroFusion.cpp
   fun:call_init
   fun:call_init
   fun:_dl_init
   fun:_dl_catch_exception
   fun:dl_open_worker
   fun:_dl_catch_exception
   fun:_dl_open
   fun:dlopen_doit
}
{
   <insert_a_suppression_name_here>
   Memcheck:Leak
   match-leak-kinds: reachable
   fun:_ZnwmSt11align_val_t
   fun:Allocate
   fun:allocateWithKey<llvm::MallocAllocator>
   fun:create<llvm::MallocAllocator, llvm::cl::Option*>
   fun:_ZN4llvm9StringMapIPNS_2cl6OptionENS_15MallocAllocatorEE11try_emplaceIJS3_EEESt4pairINS_17StringMapIteratorIS3_EEbENS_9StringRefEDpOT_
   fun:insert
   fun:_ZN12_GLOBAL__N_117CommandLineParser9addOptionEPN4llvm2cl6OptionEPNS2_10SubCommandE
   fun:addOption
   fun:_ZN4llvm2cl6Option11addArgumentEv
   fun:done
   fun:opt<char [15], llvm::cl::OptionHidden, llvm::cl::desc, llvm::cl::initializer<int> >
   fun:_Z41__static_initialization_and_destruction_0v
   fun:call_init
   fun:call_init
   fun:_dl_init
   fun:_dl_catch_exception
   fun:dl_open_worker
   fun:_dl_catch_exception
   fun:_dl_open
   fun:dlopen_doit
}
{
   <insert_a_suppression_name_here>
   Memcheck:Leak
   match-leak-kinds: reachable
   fun:_ZnwmSt11align_val_t
   fun:Allocate
   fun:allocateWithKey<llvm::MallocAllocator>
   fun:create<llvm::MallocAllocator, llvm::cl::Option*>
   fun:_ZN4llvm9StringMapIPNS_2cl6OptionENS_15MallocAllocatorEE11try_emplaceIJS3_EEESt4pairINS_17StringMapIteratorIS3_EEbENS_9StringRefEDpOT_
   fun:insert
   fun:_ZN12_GLOBAL__N_117CommandLineParser9addOptionEPN4llvm2cl6OptionEPNS2_10SubCommandE
   fun:addOption
   fun:_ZN4llvm2cl6Option11addArgumentEv
   fun:done
   fun:opt<char [15], llvm::cl::initializer<bool>, llvm::cl::OptionHidden, llvm::cl::desc>
   fun:__static_initialization_and_destruction_0
   fun:_GLOBAL__sub_I_RegisterUsageInfo.cpp
   fun:call_init
   fun:call_init
   fun:_dl_init
   fun:_dl_catch_exception
   fun:dl_open_worker
   fun:_dl_catch_exception
   fun:_dl_open
   fun:dlopen_doit
}
{
   <insert_a_suppression_name_here>
   Memcheck:Leak
   match-leak-kinds: reachable
   fun:_ZnwmSt11align_val_t
   fun:Allocate
   fun:allocateWithKey<llvm::MallocAllocator>
   fun:create<llvm::MallocAllocator, llvm::cl::Option*>
   fun:_ZN4llvm9StringMapIPNS_2cl6OptionENS_15MallocAllocatorEE11try_emplaceIJS3_EEESt4pairINS_17StringMapIteratorIS3_EEbENS_9StringRefEDpOT_
   fun:insert
   fun:_ZN12_GLOBAL__N_117CommandLineParser9addOptionEPN4llvm2cl6OptionEPNS2_10SubCommandE
   fun:addOption
   fun:_ZN4llvm2cl6Option11addArgumentEv
   fun:done
   fun:opt<char [15], llvm::cl::initializer<unsigned int>, llvm::cl::OptionHidden>
   fun:__static_initialization_and_destruction_0
   fun:_GLOBAL__sub_I_TailDuplicator.cpp
   fun:call_init
   fun:call_init
   fun:_dl_init
   fun:_dl_catch_exception
   fun:dl_open_worker
   fun:_dl_catch_exception
   fun:_dl_open
   fun:dlopen_doit
}
{
   <insert_a_suppression_name_here>
   Memcheck:Leak
   match-leak-kinds: reachable
   fun:_ZnwmSt11align_val_t
   fun:Allocate
   fun:allocateWithKey<llvm::MallocAllocator>
   fun:create<llvm::MallocAllocator, llvm::cl::Option*>
   fun:_ZN4llvm9StringMapIPNS_2cl6OptionENS_15MallocAllocatorEE11try_emplaceIJS3_EEESt4pairINS_17StringMapIteratorIS3_EEbENS_9StringRefEDpOT_
   fun:insert
   fun:_ZN12_GLOBAL__N_117CommandLineParser9addOptionEPN4llvm2cl6OptionEPNS2_10SubCommandE
   fun:addOption
   fun:_ZN4llvm2cl6Option11addArgumentEv
   fun:done
   fun:opt<char [15], llvm::cl::desc>
   fun:_Z41__static_initialization_and_destruction_0v
   fun:call_init
   fun:call_init
   fun:_dl_init
   fun:_dl_catch_exception
   fun:dl_open_worker
   fun:_dl_catch_exception
   fun:_dl_open
   fun:dlopen_doit
}
{
   <insert_a_suppression_name_here>
   Memcheck:Leak
   match-leak-kinds: reachable
   fun:_ZnwmSt11align_val_t
   fun:Allocate
   fun:allocateWithKey<llvm::MallocAllocator>
   fun:create<llvm::MallocAllocator, llvm::cl::Option*>
   fun:_ZN4llvm9StringMapIPNS_2cl6OptionENS_15MallocAllocatorEE11try_emplaceIJS3_EEESt4pairINS_17StringMapIteratorIS3_EEbENS_9StringRefEDpOT_
   fun:insert
   fun:_ZN12_GLOBAL__N_117CommandLineParser9addOptionEPN4llvm2cl6OptionEPNS2_10SubCommandE
   fun:addOption
   fun:_ZN4llvm2cl6Option11addArgumentEv
   fun:done
   fun:opt<char [15], llvm::cl::desc, llvm::cl::ValuesClass, llvm::cl::initializer<(anonymous namespace)::Level> >
   fun:_Z41__static_initialization_and_destruction_0v
   fun:call_init
   fun:call_init
   fun:_dl_init
   fun:_dl_catch_exception
   fun:dl_open_worker
   fun:_dl_catch_exception
   fun:_dl_open
   fun:dlopen_doit
}
{
   <insert_a_suppression_name_here>
   Memcheck:Leak
   match-leak-kinds: reachable
   fun:_ZnwmSt11align_val_t
   fun:Allocate
   fun:allocateWithKey<llvm::MallocAllocator>
   fun:create<llvm::MallocAllocator, llvm::cl::Option*>
   fun:_ZN4llvm9StringMapIPNS_2cl6OptionENS_15MallocAllocatorEE11try_emplaceIJS3_EEESt4pairINS_17StringMapIteratorIS3_EEbENS_9StringRefEDpOT_
   fun:insert
   fun:_ZN12_GLOBAL__N_117CommandLineParser9addOptionEPN4llvm2cl6OptionEPNS2_10SubCommandE
   fun:addOption
   fun:_ZN4llvm2cl6Option11addArgumentEv
   fun:done
   fun:opt<char [15], llvm::cl::OptionHidden, llvm::cl::initializer<bool>, llvm::cl::desc>
   fun:_Z41__static_initialization_and_destruction_0v
   fun:call_init
   fun:call_init
   fun:_dl_init
   fun:_dl_catch_exception
   fun:dl_open_worker
   fun:_dl_catch_exception
   fun:_dl_open
   fun:dlopen_doit
}
{
   <insert_a_suppression_name_here>
   Memcheck:Leak
   match-leak-kinds: reachable
   fun:_ZnwmSt11align_val_t
   fun:Allocate
   fun:allocateWithKey<llvm::MallocAllocator>
   fun:create<llvm::MallocAllocator, llvm::cl::Option*>
   fun:_ZN4llvm9StringMapIPNS_2cl6OptionENS_15MallocAllocatorEE11try_emplaceIJS3_EEESt4pairINS_17StringMapIteratorIS3_EEbENS_9StringRefEDpOT_
   fun:insert
   fun:_ZN12_GLOBAL__N_117CommandLineParser9addOptionEPN4llvm2cl6OptionEPNS2_10SubCommandE
   fun:addOption
   fun:_ZN4llvm2cl6Option11addArgumentEv
   fun:done
   fun:opt<char [15], llvm::cl::desc, llvm::cl::OptionHidden, llvm::cl::initializer<bool> >
   fun:_Z41__static_initialization_and_destruction_0v
   fun:call_init
   fun:call_init
   fun:_dl_init
   fun:_dl_catch_exception
   fun:dl_open_worker
   fun:_dl_catch_exception
   fun:_dl_open
   fun:dlopen_doit
}
{
   <insert_a_suppression_name_here>
   Memcheck:Leak
   match-leak-kinds: reachable
   fun:_ZnwmSt11align_val_t
   fun:Allocate
   fun:allocateWithKey<llvm::MallocAllocator>
   fun:create<llvm::MallocAllocator, llvm::cl::Option*>
   fun:_ZN4llvm9StringMapIPNS_2cl6OptionENS_15MallocAllocatorEE11try_emplaceIJS3_EEESt4pairINS_17StringMapIteratorIS3_EEbENS_9StringRefEDpOT_
   fun:insert
   fun:_ZN12_GLOBAL__N_117CommandLineParser9addOptionEPN4llvm2cl6OptionEPNS2_10SubCommandE
   fun:addOption
   fun:_ZN4llvm2cl6Option11addArgumentEv
   fun:done
   fun:opt<char [15], llvm::cl::initializer<bool>, llvm::cl::OptionHidden, llvm::cl::desc>
   fun:_Z41__static_initialization_and_destruction_0v
   fun:call_init
   fun:call_init
   fun:_dl_init
   fun:_dl_catch_exception
   fun:dl_open_worker
   fun:_dl_catch_exception
   fun:_dl_open
   fun:dlopen_doit
}
{
   <insert_a_suppression_name_here>
   Memcheck:Leak
   match-leak-kinds: reachable
   fun:_ZnwmSt11align_val_t
   fun:Allocate
   fun:allocateWithKey<llvm::MallocAllocator>
   fun:create<llvm::MallocAllocator, llvm::cl::Option*>
   fun:_ZN4llvm9StringMapIPNS_2cl6OptionENS_15MallocAllocatorEE11try_emplaceIJS3_EEESt4pairINS_17StringMapIteratorIS3_EEbENS_9StringRefEDpOT_
   fun:insert
   fun:_ZN12_GLOBAL__N_117CommandLineParser9addOptionEPN4llvm2cl6OptionEPNS2_10SubCommandE
   fun:addOption
   fun:_ZN4llvm2cl6Option11addArgumentEv
   fun:done
   fun:opt<char [15], llvm::cl::initializer<bool>, llvm::cl::OptionHidden, llvm::cl::desc>
   fun:__static_initialization_and_destruction_0
   fun:_GLOBAL__sub_I_ConstantHoisting.cpp
   fun:call_init
   fun:call_init
   fun:_dl_init
   fun:_dl_catch_exception
   fun:dl_open_worker
   fun:_dl_catch_exception
   fun:_dl_open
   fun:dlopen_doit
}
{
   <insert_a_suppression_name_here>
   Memcheck:Leak
   match-leak-kinds: reachable
   fun:_ZnwmSt11align_val_t
   fun:Allocate
   fun:allocateWithKey<llvm::MallocAllocator>
   fun:create<llvm::MallocAllocator, llvm::cl::Option*>
   fun:_ZN4llvm9StringMapIPNS_2cl6OptionENS_15MallocAllocatorEE11try_emplaceIJS3_EEESt4pairINS_17StringMapIteratorIS3_EEbENS_9StringRefEDpOT_
   fun:insert
   fun:_ZN12_GLOBAL__N_117CommandLineParser9addOptionEPN4llvm2cl6OptionEPNS2_10SubCommandE
   fun:addOption
   fun:_ZN4llvm2cl6Option11addArgumentEv
   fun:done
   fun:opt<char [15], llvm::cl::initializer<bool>, llvm::cl::OptionHidden, llvm::cl::desc>
   fun:__static_initialization_and_destruction_0
   fun:_GLOBAL__sub_I_TLSVariableHoist.cpp
   fun:call_init
   fun:call_init
   fun:_dl_init
   fun:_dl_catch_exception
   fun:dl_open_worker
   fun:_dl_catch_exception
   fun:_dl_open
   fun:dlopen_doit
}
{
   <insert_a_suppression_name_here>
   Memcheck:Leak
   match-leak-kinds: reachable
   fun:_ZnwmSt11align_val_t
   fun:Allocate
   fun:allocateWithKey<llvm::MallocAllocator>
   fun:create<llvm::MallocAllocator, llvm::cl::Option*>
   fun:_ZN4llvm9StringMapIPNS_2cl6OptionENS_15MallocAllocatorEE11try_emplaceIJS3_EEESt4pairINS_17StringMapIteratorIS3_EEbENS_9StringRefEDpOT_
   fun:insert
   fun:_ZN12_GLOBAL__N_117CommandLineParser9addOptionEPN4llvm2cl6OptionEPNS2_10SubCommandE
   fun:addOption
   fun:_ZN4llvm2cl6Option11addArgumentEv
   fun:done
   fun:opt<char [15], llvm::cl::initializer<bool>, llvm::cl::OptionHidden, llvm::cl::desc>
   fun:__static_initialization_and_destruction_0
   fun:_GLOBAL__sub_I_DependenceAnalysis.cpp
   fun:call_init
   fun:call_init
   fun:_dl_init
   fun:_dl_catch_exception
   fun:dl_open_worker
   fun:_dl_catch_exception
   fun:_dl_open
   fun:dlopen_doit
}
{
   <insert_a_suppression_name_here>
   Memcheck:Leak
   match-leak-kinds: reachable
   fun:_ZnwmSt11align_val_t
   fun:Allocate
   fun:allocateWithKey<llvm::MallocAllocator>
   fun:create<llvm::MallocAllocator, llvm::cl::Option*>
   fun:_ZN4llvm9StringMapIPNS_2cl6OptionENS_15MallocAllocatorEE11try_emplaceIJS3_EEESt4pairINS_17StringMapIteratorIS3_EEbENS_9StringRefEDpOT_
   fun:insert
   fun:_ZN12_GLOBAL__N_117CommandLineParser9addOptionEPN4llvm2cl6OptionEPNS2_10SubCommandE
   fun:addOption
   fun:_ZN4llvm2cl6Option11addArgumentEv
   fun:done
   fun:opt<char [15], llvm::cl::OptionHidden, llvm::cl::desc, llvm::cl::initializer<bool> >
   fun:_Z41__static_initialization_and_destruction_0v
   fun:call_init
   fun:call_init
   fun:_dl_init
   fun:_dl_catch_exception
   fun:dl_open_worker
   fun:_dl_catch_exception
   fun:_dl_open
   fun:dlopen_doit
}
{
   <insert_a_suppression_name_here>
   Memcheck:Leak
   match-leak-kinds: reachable
   fun:_ZnwmSt11align_val_t
   fun:Allocate
   fun:allocateWithKey<llvm::MallocAllocator>
   fun:create<llvm::MallocAllocator, llvm::cl::Option*>
   fun:_ZN4llvm9StringMapIPNS_2cl6OptionENS_15MallocAllocatorEE11try_emplaceIJS3_EEESt4pairINS_17StringMapIteratorIS3_EEbENS_9StringRefEDpOT_
   fun:insert
   fun:_ZN12_GLOBAL__N_117CommandLineParser9addOptionEPN4llvm2cl6OptionEPNS2_10SubCommandE
   fun:addOption
   fun:_ZN4llvm2cl6Option11addArgumentEv
   fun:done
   fun:opt<char [15], llvm::cl::OptionHidden, llvm::cl::desc, llvm::cl::initializer<llvm::TargetLibraryInfoImpl::VectorLibrary>, llvm::cl::ValuesClass>
   fun:_Z41__static_initialization_and_destruction_0v
   fun:call_init
   fun:call_init
   fun:_dl_init
   fun:_dl_catch_exception
   fun:dl_open_worker
   fun:_dl_catch_exception
   fun:_dl_open
   fun:dlopen_doit
}
{
   <insert_a_suppression_name_here>
   Memcheck:Leak
   match-leak-kinds: reachable
   fun:_ZnwmSt11align_val_t
   fun:Allocate
   fun:allocateWithKey<llvm::MallocAllocator>
   fun:create<llvm::MallocAllocator, llvm::cl::Option*>
   fun:_ZN4llvm9StringMapIPNS_2cl6OptionENS_15MallocAllocatorEE11try_emplaceIJS3_EEESt4pairINS_17StringMapIteratorIS3_EEbENS_9StringRefEDpOT_
   fun:insert
   fun:_ZN12_GLOBAL__N_117CommandLineParser9addOptionEPN4llvm2cl6OptionEPNS2_10SubCommandE
   fun:addOption
   fun:_ZN4llvm2cl6Option11addArgumentEv
   fun:done
   fun:opt<char [15], llvm::cl::desc, llvm::cl::OptionHidden>
   fun:_Z41__static_initialization_and_destruction_0v
   fun:call_init
   fun:call_init
   fun:_dl_init
   fun:_dl_catch_exception
   fun:dl_open_worker
   fun:_dl_catch_exception
   fun:_dl_open
   fun:dlopen_doit
}
{
   <insert_a_suppression_name_here>
   Memcheck:Leak
   match-leak-kinds: reachable
   fun:_ZnwmSt11align_val_t
   fun:Allocate
   fun:allocateWithKey<llvm::MallocAllocator>
   fun:create<llvm::MallocAllocator, llvm::cl::Option*>
   fun:_ZN4llvm9StringMapIPNS_2cl6OptionENS_15MallocAllocatorEE11try_emplaceIJS3_EEESt4pairINS_17StringMapIteratorIS3_EEbENS_9StringRefEDpOT_
   fun:insert
   fun:_ZN12_GLOBAL__N_117CommandLineParser9addOptionEPN4llvm2cl6OptionEPNS2_10SubCommandE
   fun:addOption
   fun:_ZN4llvm2cl6Option11addArgumentEv
   fun:done
   fun:opt<char [15], llvm::cl::desc>
   fun:_ZN4llvm2mc28RegisterMCTargetOptionsFlagsC1Ev
   fun:call_init
   fun:call_init
   fun:_dl_init
   fun:_dl_catch_exception
   fun:dl_open_worker
   fun:_dl_catch_exception
   fun:_dl_open
   fun:dlopen_doit
}
{
   <insert_a_suppression_name_here>
   Memcheck:Leak
   match-leak-kinds: reachable
   fun:_ZnwmSt11align_val_t
   fun:Allocate
   fun:allocateWithKey<llvm::MallocAllocator>
   fun:create<llvm::MallocAllocator, llvm::cl::Option*>
   fun:_ZN4llvm9StringMapIPNS_2cl6OptionENS_15MallocAllocatorEE11try_emplaceIJS3_EEESt4pairINS_17StringMapIteratorIS3_EEbENS_9StringRefEDpOT_
   fun:insert
   fun:_ZN12_GLOBAL__N_117CommandLineParser9addOptionEPN4llvm2cl6OptionEPNS2_10SubCommandE
   fun:addOption
   fun:_ZN4llvm2cl6Option11addArgumentEv
   fun:done
   fun:opt<char [15], llvm::cl::initializer<bool>, llvm::cl::desc>
   fun:_Z41__static_initialization_and_destruction_0v
   fun:call_init
   fun:call_init
   fun:_dl_init
   fun:_dl_catch_exception
   fun:dl_open_worker
   fun:_dl_catch_exception
   fun:_dl_open
   fun:dlopen_doit
}
{
   <insert_a_suppression_name_here>
   Memcheck:Leak
   match-leak-kinds: reachable
   fun:_ZnwmSt11align_val_t
   fun:Allocate
   fun:allocateWithKey<llvm::MallocAllocator>
   fun:create<llvm::MallocAllocator, llvm::cl::Option*>
   fun:_ZN4llvm9StringMapIPNS_2cl6OptionENS_15MallocAllocatorEE11try_emplaceIJS3_EEESt4pairINS_17StringMapIteratorIS3_EEbENS_9StringRefEDpOT_
   fun:insert
   fun:_ZN12_GLOBAL__N_117CommandLineParser9addOptionEPN4llvm2cl6OptionEPNS2_10SubCommandE
   fun:addOption
   fun:_ZN4llvm2cl6Option11addArgumentEv
   fun:done
   fun:opt<char [15], llvm::cl::desc, llvm::cl::initializer<bool>, llvm::cl::OptionHidden>
   fun:__static_initialization_and_destruction_0
   fun:_GLOBAL__sub_I_AMDGPULibCalls.cpp
   fun:call_init
   fun:call_init
   fun:_dl_init
   fun:_dl_catch_exception
   fun:dl_open_worker
   fun:_dl_catch_exception
   fun:_dl_open
   fun:dlopen_doit
}
{
   <insert_a_suppression_name_here>
   Memcheck:Leak
   match-leak-kinds: reachable
   fun:_ZnwmSt11align_val_t
   fun:Allocate
   fun:allocateWithKey<llvm::MallocAllocator>
   fun:create<llvm::MallocAllocator, llvm::cl::Option*>
   fun:_ZN4llvm9StringMapIPNS_2cl6OptionENS_15MallocAllocatorEE11try_emplaceIJS3_EEESt4pairINS_17StringMapIteratorIS3_EEbENS_9StringRefEDpOT_
   fun:insert
   fun:_ZN12_GLOBAL__N_117CommandLineParser9addOptionEPN4llvm2cl6OptionEPNS2_10SubCommandE
   fun:addOption
   fun:_ZN4llvm2cl6Option11addArgumentEv
   fun:done
   fun:opt<char [15], llvm::cl::initializer<bool>, llvm::cl::OptionHidden>
   fun:_Z41__static_initialization_and_destruction_0v
   fun:call_init
   fun:call_init
   fun:_dl_init
   fun:_dl_catch_exception
   fun:dl_open_worker
   fun:_dl_catch_exception
   fun:_dl_open
   fun:dlopen_doit
}
{
   <insert_a_suppression_name_here>
   Memcheck:Leak
   match-leak-kinds: reachable
   fun:_ZnwmSt11align_val_t
   fun:Allocate
   fun:allocateWithKey<llvm::MallocAllocator>
   fun:create<llvm::MallocAllocator, llvm::cl::Option*>
   fun:_ZN4llvm9StringMapIPNS_2cl6OptionENS_15MallocAllocatorEE11try_emplaceIJS3_EEESt4pairINS_17StringMapIteratorIS3_EEbENS_9StringRefEDpOT_
   fun:insert
   fun:_ZN12_GLOBAL__N_117CommandLineParser9addOptionEPN4llvm2cl6OptionEPNS2_10SubCommandE
   fun:addOption
   fun:_ZN4llvm2cl6Option11addArgumentEv
   fun:done
   fun:opt<char [15], llvm::cl::OptionHidden, llvm::cl::desc, llvm::cl::initializer<bool> >
   fun:__static_initialization_and_destruction_0
   fun:_GLOBAL__sub_I_Thumb2InstrInfo.cpp
   fun:call_init
   fun:call_init
   fun:_dl_init
   fun:_dl_catch_exception
   fun:dl_open_worker
   fun:_dl_catch_exception
   fun:_dl_open
   fun:dlopen_doit
}
{
   <insert_a_suppression_name_here>
   Memcheck:Leak
   match-leak-kinds: reachable
   fun:_ZnwmSt11align_val_t
   fun:Allocate
   fun:allocateWithKey<llvm::MallocAllocator>
   fun:create<llvm::MallocAllocator, llvm::cl::Option*>
   fun:_ZN4llvm9StringMapIPNS_2cl6OptionENS_15MallocAllocatorEE11try_emplaceIJS3_EEESt4pairINS_17StringMapIteratorIS3_EEbENS_9StringRefEDpOT_
   fun:insert
   fun:_ZN12_GLOBAL__N_117CommandLineParser9addOptionEPN4llvm2cl6OptionEPNS2_10SubCommandE
   fun:addOption
   fun:_ZN4llvm2cl6Option11addArgumentEv
   fun:done
   fun:opt<char [15], llvm::cl::desc, llvm::cl::initializer<int> >
   fun:__static_initialization_and_destruction_0
   fun:_GLOBAL__sub_I_BPFRegisterInfo.cpp
   fun:call_init
   fun:call_init
   fun:_dl_init
   fun:_dl_catch_exception
   fun:dl_open_worker
   fun:_dl_catch_exception
   fun:_dl_open
   fun:dlopen_doit
}
{
   <insert_a_suppression_name_here>
   Memcheck:Leak
   match-leak-kinds: reachable
   fun:_ZnwmSt11align_val_t
   fun:Allocate
   fun:allocateWithKey<llvm::MallocAllocator>
   fun:create<llvm::MallocAllocator, llvm::cl::Option*>
   fun:_ZN4llvm9StringMapIPNS_2cl6OptionENS_15MallocAllocatorEE11try_emplaceIJS3_EEESt4pairINS_17StringMapIteratorIS3_EEbENS_9StringRefEDpOT_
   fun:insert
   fun:_ZN12_GLOBAL__N_117CommandLineParser9addOptionEPN4llvm2cl6OptionEPNS2_10SubCommandE
   fun:addOption
   fun:_ZN4llvm2cl6Option11addArgumentEv
   fun:done
   fun:opt<char [15], llvm::cl::OptionHidden, llvm::cl::initializer<bool>, llvm::cl::desc>
   fun:__static_initialization_and_destruction_0
   fun:_GLOBAL__sub_I_HexagonBitSimplify.cpp
   fun:call_init
   fun:call_init
   fun:_dl_init
   fun:_dl_catch_exception
   fun:dl_open_worker
   fun:_dl_catch_exception
   fun:_dl_open
   fun:dlopen_doit
}
{
   <insert_a_suppression_name_here>
   Memcheck:Leak
   match-leak-kinds: reachable
   fun:_ZnwmSt11align_val_t
   fun:Allocate
   fun:allocateWithKey<llvm::MallocAllocator>
   fun:create<llvm::MallocAllocator, llvm::cl::Option*>
   fun:_ZN4llvm9StringMapIPNS_2cl6OptionENS_15MallocAllocatorEE11try_emplaceIJS3_EEESt4pairINS_17StringMapIteratorIS3_EEbENS_9StringRefEDpOT_
   fun:insert
   fun:_ZN12_GLOBAL__N_117CommandLineParser9addOptionEPN4llvm2cl6OptionEPNS2_10SubCommandE
   fun:addOption
   fun:_ZN4llvm2cl6Option11addArgumentEv
   fun:done
   fun:opt<char [15], llvm::cl::initializer<unsigned int>, llvm::cl::OptionHidden, llvm::cl::desc>
   fun:__static_initialization_and_destruction_0
   fun:_GLOBAL__sub_I_HexagonGenExtract.cpp
   fun:call_init
   fun:call_init
   fun:_dl_init
   fun:_dl_catch_exception
   fun:dl_open_worker
   fun:_dl_catch_exception
   fun:_dl_open
   fun:dlopen_doit
}
{
   <insert_a_suppression_name_here>
   Memcheck:Leak
   match-leak-kinds: reachable
   fun:_ZnwmSt11align_val_t
   fun:Allocate
   fun:allocateWithKey<llvm::MallocAllocator>
   fun:create<llvm::MallocAllocator, llvm::cl::Option*>
   fun:_ZN4llvm9StringMapIPNS_2cl6OptionENS_15MallocAllocatorEE11try_emplaceIJS3_EEESt4pairINS_17StringMapIteratorIS3_EEbENS_9StringRefEDpOT_
   fun:insert
   fun:_ZN12_GLOBAL__N_117CommandLineParser9addOptionEPN4llvm2cl6OptionEPNS2_10SubCommandE
   fun:addOption
   fun:_ZN4llvm2cl6Option11addArgumentEv
   fun:done
   fun:opt<char [15], llvm::cl::initializer<int>, llvm::cl::OptionHidden, llvm::cl::desc>
   fun:__static_initialization_and_destruction_0
   fun:_GLOBAL__sub_I_HexagonGenInsert.cpp
   fun:call_init
   fun:call_init
   fun:_dl_init
   fun:_dl_catch_exception
   fun:dl_open_worker
   fun:_dl_catch_exception
   fun:_dl_open
   fun:dlopen_doit
}
{
   <insert_a_suppression_name_here>
   Memcheck:Leak
   match-leak-kinds: reachable
   fun:_ZnwmSt11align_val_t
   fun:Allocate
   fun:allocateWithKey<llvm::MallocAllocator>
   fun:create<llvm::MallocAllocator, llvm::cl::Option*>
   fun:_ZN4llvm9StringMapIPNS_2cl6OptionENS_15MallocAllocatorEE11try_emplaceIJS3_EEESt4pairINS_17StringMapIteratorIS3_EEbENS_9StringRefEDpOT_
   fun:insert
   fun:_ZN12_GLOBAL__N_117CommandLineParser9addOptionEPN4llvm2cl6OptionEPNS2_10SubCommandE
   fun:addOption
   fun:_ZN4llvm2cl6Option11addArgumentEv
   fun:done
   fun:opt<char [15], llvm::cl::initializer<bool>, llvm::cl::OptionHidden, llvm::cl::desc>
   fun:__static_initialization_and_destruction_0
   fun:_GLOBAL__sub_I_HexagonInstrInfo.cpp
   fun:call_init
   fun:call_init
   fun:_dl_init
   fun:_dl_catch_exception
   fun:dl_open_worker
   fun:_dl_catch_exception
   fun:_dl_open
   fun:dlopen_doit
}
{
   <insert_a_suppression_name_here>
   Memcheck:Leak
   match-leak-kinds: reachable
   fun:_ZnwmSt11align_val_t
   fun:Allocate
   fun:allocateWithKey<llvm::MallocAllocator>
   fun:create<llvm::MallocAllocator, llvm::cl::Option*>
   fun:_ZN4llvm9StringMapIPNS_2cl6OptionENS_15MallocAllocatorEE11try_emplaceIJS3_EEESt4pairINS_17StringMapIteratorIS3_EEbENS_9StringRefEDpOT_
   fun:insert
   fun:_ZN12_GLOBAL__N_117CommandLineParser9addOptionEPN4llvm2cl6OptionEPNS2_10SubCommandE
   fun:addOption
   fun:_ZN4llvm2cl6Option11addArgumentEv
   fun:done
   fun:opt<char [15], llvm::cl::OptionHidden, llvm::cl::desc>
   fun:__static_initialization_and_destruction_0
   fun:_GLOBAL__sub_I_HexagonNewValueJump.cpp
   fun:call_init
   fun:call_init
   fun:_dl_init
   fun:_dl_catch_exception
   fun:dl_open_worker
   fun:_dl_catch_exception
   fun:_dl_open
   fun:dlopen_doit
}
{
   <insert_a_suppression_name_here>
   Memcheck:Leak
   match-leak-kinds: reachable
   fun:_ZnwmSt11align_val_t
   fun:Allocate
   fun:allocateWithKey<llvm::MallocAllocator>
   fun:create<llvm::MallocAllocator, llvm::cl::Option*>
   fun:_ZN4llvm9StringMapIPNS_2cl6OptionENS_15MallocAllocatorEE11try_emplaceIJS3_EEESt4pairINS_17StringMapIteratorIS3_EEbENS_9StringRefEDpOT_
   fun:insert
   fun:_ZN12_GLOBAL__N_117CommandLineParser9addOptionEPN4llvm2cl6OptionEPNS2_10SubCommandE
   fun:addOption
   fun:_ZN4llvm2cl6Option11addArgumentEv
   fun:done
   fun:opt<char [15], llvm::cl::OptionHidden, llvm::cl::initializer<bool>, llvm::cl::desc>
   fun:__static_initialization_and_destruction_0
   fun:_GLOBAL__sub_I_HexagonSplitDouble.cpp
   fun:call_init
   fun:call_init
   fun:_dl_init
   fun:_dl_catch_exception
   fun:dl_open_worker
   fun:_dl_catch_exception
   fun:_dl_open
   fun:dlopen_doit
}
{
   <insert_a_suppression_name_here>
   Memcheck:Leak
   match-leak-kinds: reachable
   fun:_ZnwmSt11align_val_t
   fun:Allocate
   fun:allocateWithKey<llvm::MallocAllocator>
   fun:create<llvm::MallocAllocator, llvm::cl::Option*>
   fun:_ZN4llvm9StringMapIPNS_2cl6OptionENS_15MallocAllocatorEE11try_emplaceIJS3_EEESt4pairINS_17StringMapIteratorIS3_EEbENS_9StringRefEDpOT_
   fun:insert
   fun:_ZN12_GLOBAL__N_117CommandLineParser9addOptionEPN4llvm2cl6OptionEPNS2_10SubCommandE
   fun:addOption
   fun:_ZN4llvm2cl6Option11addArgumentEv
   fun:done
   fun:opt<char [15], llvm::cl::OptionHidden, llvm::cl::desc, llvm::cl::initializer<bool> >
   fun:__static_initialization_and_destruction_0
   fun:_GLOBAL__sub_I_MipsTargetObjectFile.cpp
   fun:call_init
   fun:call_init
   fun:_dl_init
   fun:_dl_catch_exception
   fun:dl_open_worker
   fun:_dl_catch_exception
   fun:_dl_open
   fun:dlopen_doit
}
{
   <insert_a_suppression_name_here>
   Memcheck:Leak
   match-leak-kinds: reachable
   fun:_ZnwmSt11align_val_t
   fun:Allocate
   fun:allocateWithKey<llvm::MallocAllocator>
   fun:create<llvm::MallocAllocator, llvm::cl::Option*>
   fun:_ZN4llvm9StringMapIPNS_2cl6OptionENS_15MallocAllocatorEE11try_emplaceIJS3_EEESt4pairINS_17StringMapIteratorIS3_EEbENS_9StringRefEDpOT_
   fun:insert
   fun:_ZN12_GLOBAL__N_117CommandLineParser9addOptionEPN4llvm2cl6OptionEPNS2_10SubCommandE
   fun:addOption
   fun:_ZN4llvm2cl6Option11addArgumentEv
   fun:done
   fun:opt<char [15], llvm::cl::initializer<bool>, llvm::cl::desc, llvm::cl::OptionHidden>
   fun:__static_initialization_and_destruction_0
   fun:_GLOBAL__sub_I_PPCAsmPrinter.cpp
   fun:call_init
   fun:call_init
   fun:_dl_init
   fun:_dl_catch_exception
   fun:dl_open_worker
   fun:_dl_catch_exception
   fun:_dl_open
   fun:dlopen_doit
}
{
   <insert_a_suppression_name_here>
   Memcheck:Leak
   match-leak-kinds: reachable
   fun:_ZnwmSt11align_val_t
   fun:Allocate
   fun:allocateWithKey<llvm::MallocAllocator>
   fun:create<llvm::MallocAllocator, llvm::cl::Option*>
   fun:_ZN4llvm9StringMapIPNS_2cl6OptionENS_15MallocAllocatorEE11try_emplaceIJS3_EEESt4pairINS_17StringMapIteratorIS3_EEbENS_9StringRefEDpOT_
   fun:insert
   fun:_ZN12_GLOBAL__N_117CommandLineParser9addOptionEPN4llvm2cl6OptionEPNS2_10SubCommandE
   fun:addOption
   fun:_ZN4llvm2cl6Option11addArgumentEv
   fun:done
   fun:opt<char [15], llvm::cl::desc>
   fun:__static_initialization_and_destruction_0
   fun:_GLOBAL__sub_I_WebAssemblyMCTargetDesc.cpp
   fun:call_init
   fun:call_init
   fun:_dl_init
   fun:_dl_catch_exception
   fun:dl_open_worker
   fun:_dl_catch_exception
   fun:_dl_open
   fun:dlopen_doit
}
{
   <insert_a_suppression_name_here>
   Memcheck:Leak
   match-leak-kinds: reachable
   fun:_ZnwmSt11align_val_t
   fun:Allocate
   fun:allocateWithKey<llvm::MallocAllocator>
   fun:create<llvm::MallocAllocator, llvm::cl::Option*>
   fun:_ZN4llvm9StringMapIPNS_2cl6OptionENS_15MallocAllocatorEE11try_emplaceIJS3_EEESt4pairINS_17StringMapIteratorIS3_EEbENS_9StringRefEDpOT_
   fun:insert
   fun:_ZN12_GLOBAL__N_117CommandLineParser9addOptionEPN4llvm2cl6OptionEPNS2_10SubCommandE
   fun:addOption
   fun:_ZN4llvm2cl6Option11addArgumentEv
   fun:done
   fun:opt<char [15], llvm::cl::desc, llvm::cl::initializer<bool>, llvm::cl::OptionHidden>
   fun:__static_initialization_and_destruction_0
   fun:_GLOBAL__sub_I_X86SpeculativeLoadHardening.cpp
   fun:call_init
   fun:call_init
   fun:_dl_init
   fun:_dl_catch_exception
   fun:dl_open_worker
   fun:_dl_catch_exception
   fun:_dl_open
   fun:dlopen_doit
}
{
   <insert_a_suppression_name_here>
   Memcheck:Leak
   match-leak-kinds: reachable
   fun:calloc
   fun:g_malloc0
   fun:g_hash_table_setup_storage.lto_priv.0
   fun:g_hash_table_new_full
   fun:UnknownInlinedFun
   fun:UnknownInlinedFun
   fun:UnknownInlinedFun
   fun:glib_init_ctor
   fun:call_init
   fun:call_init
   fun:_dl_init
   obj:/usr/lib/ld-linux-x86-64.so.2
}
{
   <insert_a_suppression_name_here>
   Memcheck:Leak
   match-leak-kinds: reachable
   fun:_ZnwmSt11align_val_t
   fun:Allocate
   fun:allocateWithKey<llvm::MallocAllocator>
   fun:create<llvm::MallocAllocator, llvm::cl::Option*>
   fun:_ZN4llvm9StringMapIPNS_2cl6OptionENS_15MallocAllocatorEE11try_emplaceIJS3_EEESt4pairINS_17StringMapIteratorIS3_EEbENS_9StringRefEDpOT_
   fun:insert
   fun:_ZN12_GLOBAL__N_117CommandLineParser9addOptionEPN4llvm2cl6OptionEPNS2_10SubCommandE
   fun:addOption
   fun:_ZN4llvm2cl6Option11addArgumentEv
   fun:done
   fun:opt<char [16], llvm::cl::LocationClass<bool>, llvm::cl::OptionHidden, llvm::cl::desc>
   fun:__static_initialization_and_destruction_0
   fun:_GLOBAL__sub_I_Dominators.cpp
   fun:call_init
   fun:call_init
   fun:_dl_init
   fun:_dl_catch_exception
   fun:dl_open_worker
   fun:_dl_catch_exception
   fun:_dl_open
   fun:dlopen_doit
}
{
   <insert_a_suppression_name_here>
   Memcheck:Leak
   match-leak-kinds: reachable
   fun:_ZnwmSt11align_val_t
   fun:Allocate
   fun:allocateWithKey<llvm::MallocAllocator>
   fun:create<llvm::MallocAllocator, llvm::cl::Option*>
   fun:_ZN4llvm9StringMapIPNS_2cl6OptionENS_15MallocAllocatorEE11try_emplaceIJS3_EEESt4pairINS_17StringMapIteratorIS3_EEbENS_9StringRefEDpOT_
   fun:insert
   fun:_ZN12_GLOBAL__N_117CommandLineParser9addOptionEPN4llvm2cl6OptionEPNS2_10SubCommandE
   fun:addOption
   fun:_ZN4llvm2cl6Option11addArgumentEv
   fun:done
   fun:opt<char [16], llvm::cl::initializer<bool>, llvm::cl::OptionHidden, llvm::cl::desc>
   fun:__static_initialization_and_destruction_0
   fun:_GLOBAL__sub_I_ModuleSummaryIndex.cpp
   fun:call_init
   fun:call_init
   fun:_dl_init
   fun:_dl_catch_exception
   fun:dl_open_worker
   fun:_dl_catch_exception
   fun:_dl_open
   fun:dlopen_doit
}
{
   <insert_a_suppression_name_here>
   Memcheck:Leak
   match-leak-kinds: reachable
   fun:_ZnwmSt11align_val_t
   fun:Allocate
   fun:allocateWithKey<llvm::MallocAllocator>
   fun:create<llvm::MallocAllocator, llvm::cl::Option*>
   fun:_ZN4llvm9StringMapIPNS_2cl6OptionENS_15MallocAllocatorEE11try_emplaceIJS3_EEESt4pairINS_17StringMapIteratorIS3_EEbENS_9StringRefEDpOT_
   fun:insert
   fun:_ZN12_GLOBAL__N_117CommandLineParser9addOptionEPN4llvm2cl6OptionEPNS2_10SubCommandE
   fun:addOption
   fun:_ZN4llvm2cl6Option11addArgumentEv
   fun:done
   fun:opt<char [16], llvm::cl::desc, llvm::cl::initializer<bool>, llvm::cl::OptionHidden>
   fun:_Z41__static_initialization_and_destruction_0v
   fun:call_init
   fun:call_init
   fun:_dl_init
   fun:_dl_catch_exception
   fun:dl_open_worker
   fun:_dl_catch_exception
   fun:_dl_open
   fun:dlopen_doit
}
{
   <insert_a_suppression_name_here>
   Memcheck:Leak
   match-leak-kinds: reachable
   fun:_ZnwmSt11align_val_t
   fun:Allocate
   fun:allocateWithKey<llvm::MallocAllocator>
   fun:create<llvm::MallocAllocator, llvm::cl::Option*>
   fun:_ZN4llvm9StringMapIPNS_2cl6OptionENS_15MallocAllocatorEE11try_emplaceIJS3_EEESt4pairINS_17StringMapIteratorIS3_EEbENS_9StringRefEDpOT_
   fun:insert
   fun:_ZN12_GLOBAL__N_117CommandLineParser9addOptionEPN4llvm2cl6OptionEPNS2_10SubCommandE
   fun:addOption
   fun:_ZN4llvm2cl6Option11addArgumentEv
   fun:done
   fun:opt<char [16], llvm::cl::initializer<bool>, llvm::cl::OptionHidden>
   fun:__static_initialization_and_destruction_0
   fun:_GLOBAL__sub_I_AssignmentTrackingAnalysis.cpp
   fun:call_init
   fun:call_init
   fun:_dl_init
   fun:_dl_catch_exception
   fun:dl_open_worker
   fun:_dl_catch_exception
   fun:_dl_open
   fun:dlopen_doit
}
{
   <insert_a_suppression_name_here>
   Memcheck:Leak
   match-leak-kinds: reachable
   fun:_ZnwmSt11align_val_t
   fun:Allocate
   fun:allocateWithKey<llvm::MallocAllocator>
   fun:create<llvm::MallocAllocator, llvm::cl::Option*>
   fun:_ZN4llvm9StringMapIPNS_2cl6OptionENS_15MallocAllocatorEE11try_emplaceIJS3_EEESt4pairINS_17StringMapIteratorIS3_EEbENS_9StringRefEDpOT_
   fun:insert
   fun:_ZN12_GLOBAL__N_117CommandLineParser9addOptionEPN4llvm2cl6OptionEPNS2_10SubCommandE
   fun:addOption
   fun:_ZN4llvm2cl6Option11addArgumentEv
   fun:done
   fun:opt<char [16], llvm::cl::desc, llvm::cl::initializer<int>, llvm::cl::OptionHidden>
   fun:__static_initialization_and_destruction_0
   fun:_GLOBAL__sub_I_BranchFolding.cpp
   fun:call_init
   fun:call_init
   fun:_dl_init
   fun:_dl_catch_exception
   fun:dl_open_worker
   fun:_dl_catch_exception
   fun:_dl_open
   fun:dlopen_doit
}
{
   <insert_a_suppression_name_here>
   Memcheck:Leak
   match-leak-kinds: reachable
   fun:_ZnwmSt11align_val_t
   fun:Allocate
   fun:allocateWithKey<llvm::MallocAllocator>
   fun:create<llvm::MallocAllocator, llvm::cl::Option*>
   fun:_ZN4llvm9StringMapIPNS_2cl6OptionENS_15MallocAllocatorEE11try_emplaceIJS3_EEESt4pairINS_17StringMapIteratorIS3_EEbENS_9StringRefEDpOT_
   fun:insert
   fun:_ZN12_GLOBAL__N_117CommandLineParser9addOptionEPN4llvm2cl6OptionEPNS2_10SubCommandE
   fun:addOption
   fun:_ZN4llvm2cl6Option11addArgumentEv
   fun:done
   fun:opt<char [16], llvm::cl::OptionHidden, llvm::cl::initializer<int>, llvm::cl::desc>
   fun:__static_initialization_and_destruction_0
   fun:_GLOBAL__sub_I_DFAPacketizer.cpp
   fun:call_init
   fun:call_init
   fun:_dl_init
   fun:_dl_catch_exception
   fun:dl_open_worker
   fun:_dl_catch_exception
   fun:_dl_open
   fun:dlopen_doit
}
{
   <insert_a_suppression_name_here>
   Memcheck:Leak
   match-leak-kinds: reachable
   fun:_ZnwmSt11align_val_t
   fun:Allocate
   fun:allocateWithKey<llvm::MallocAllocator>
   fun:create<llvm::MallocAllocator, llvm::cl::Option*>
   fun:_ZN4llvm9StringMapIPNS_2cl6OptionENS_15MallocAllocatorEE11try_emplaceIJS3_EEESt4pairINS_17StringMapIteratorIS3_EEbENS_9StringRefEDpOT_
   fun:insert
   fun:_ZN12_GLOBAL__N_117CommandLineParser9addOptionEPN4llvm2cl6OptionEPNS2_10SubCommandE
   fun:addOption
   fun:_ZN4llvm2cl6Option11addArgumentEv
   fun:done
   fun:opt<char [16], llvm::cl::OptionHidden, llvm::cl::desc>
   fun:_Z41__static_initialization_and_destruction_0v
   fun:call_init
   fun:call_init
   fun:_dl_init
   fun:_dl_catch_exception
   fun:dl_open_worker
   fun:_dl_catch_exception
   fun:_dl_open
   fun:dlopen_doit
}
{
   <insert_a_suppression_name_here>
   Memcheck:Leak
   match-leak-kinds: reachable
   fun:_ZnwmSt11align_val_t
   fun:Allocate
   fun:allocateWithKey<llvm::MallocAllocator>
   fun:create<llvm::MallocAllocator, llvm::cl::Option*>
   fun:_ZN4llvm9StringMapIPNS_2cl6OptionENS_15MallocAllocatorEE11try_emplaceIJS3_EEESt4pairINS_17StringMapIteratorIS3_EEbENS_9StringRefEDpOT_
   fun:insert
   fun:_ZN12_GLOBAL__N_117CommandLineParser9addOptionEPN4llvm2cl6OptionEPNS2_10SubCommandE
   fun:addOption
   fun:_ZN4llvm2cl6Option11addArgumentEv
   fun:done
   fun:opt<char [16], llvm::cl::OptionHidden, llvm::cl::desc, llvm::cl::initializer<bool> >
   fun:_Z41__static_initialization_and_destruction_0v
   fun:call_init
   fun:call_init
   fun:_dl_init
   fun:_dl_catch_exception
   fun:dl_open_worker
   fun:_dl_catch_exception
   fun:_dl_open
   fun:dlopen_doit
}
{
   <insert_a_suppression_name_here>
   Memcheck:Leak
   match-leak-kinds: reachable
   fun:_ZnwmSt11align_val_t
   fun:Allocate
   fun:allocateWithKey<llvm::MallocAllocator>
   fun:create<llvm::MallocAllocator, llvm::cl::Option*>
   fun:_ZN4llvm9StringMapIPNS_2cl6OptionENS_15MallocAllocatorEE11try_emplaceIJS3_EEESt4pairINS_17StringMapIteratorIS3_EEbENS_9StringRefEDpOT_
   fun:insert
   fun:_ZN12_GLOBAL__N_117CommandLineParser9addOptionEPN4llvm2cl6OptionEPNS2_10SubCommandE
   fun:addOption
   fun:_ZN4llvm2cl6Option11addArgumentEv
   fun:done
   fun:opt<char [16], llvm::cl::LocationClass<bool>, llvm::cl::OptionHidden, llvm::cl::desc>
   fun:__static_initialization_and_destruction_0
   fun:_GLOBAL__sub_I_RegAllocBase.cpp
   fun:call_init
   fun:call_init
   fun:_dl_init
   fun:_dl_catch_exception
   fun:dl_open_worker
   fun:_dl_catch_exception
   fun:_dl_open
   fun:dlopen_doit
}
{
   <insert_a_suppression_name_here>
   Memcheck:Leak
   match-leak-kinds: reachable
   fun:_ZnwmSt11align_val_t
   fun:Allocate
   fun:allocateWithKey<llvm::MallocAllocator>
   fun:create<llvm::MallocAllocator, llvm::cl::Option*>
   fun:_ZN4llvm9StringMapIPNS_2cl6OptionENS_15MallocAllocatorEE11try_emplaceIJS3_EEESt4pairINS_17StringMapIteratorIS3_EEbENS_9StringRefEDpOT_
   fun:insert
   fun:_ZN12_GLOBAL__N_117CommandLineParser9addOptionEPN4llvm2cl6OptionEPNS2_10SubCommandE
   fun:addOption
   fun:_ZN4llvm2cl6Option11addArgumentEv
   fun:done
   fun:opt<char [16], llvm::cl::desc, llvm::cl::initializer<bool>, llvm::cl::OptionHidden>
   fun:__static_initialization_and_destruction_0
   fun:_GLOBAL__sub_I_RegAllocPBQP.cpp
   fun:call_init
   fun:call_init
   fun:_dl_init
   fun:_dl_catch_exception
   fun:dl_open_worker
   fun:_dl_catch_exception
   fun:_dl_open
   fun:dlopen_doit
}
{
   <insert_a_suppression_name_here>
   Memcheck:Leak
   match-leak-kinds: reachable
   fun:_ZnwmSt11align_val_t
   fun:Allocate
   fun:allocateWithKey<llvm::MallocAllocator>
   fun:create<llvm::MallocAllocator, llvm::cl::Option*>
   fun:_ZN4llvm9StringMapIPNS_2cl6OptionENS_15MallocAllocatorEE11try_emplaceIJS3_EEESt4pairINS_17StringMapIteratorIS3_EEbENS_9StringRefEDpOT_
   fun:insert
   fun:_ZN12_GLOBAL__N_117CommandLineParser9addOptionEPN4llvm2cl6OptionEPNS2_10SubCommandE
   fun:addOption
   fun:_ZN4llvm2cl6Option11addArgumentEv
   fun:done
   fun:opt<char [16], llvm::cl::OptionHidden, llvm::cl::initializer<int>, llvm::cl::value_desc, llvm::cl::desc>
   fun:__static_initialization_and_destruction_0
   fun:_GLOBAL__sub_I_RegisterClassInfo.cpp
   fun:call_init
   fun:call_init
   fun:_dl_init
   fun:_dl_catch_exception
   fun:dl_open_worker
   fun:_dl_catch_exception
   fun:_dl_open
   fun:dlopen_doit
}
{
   <insert_a_suppression_name_here>
   Memcheck:Leak
   match-leak-kinds: reachable
   fun:_ZnwmSt11align_val_t
   fun:Allocate
   fun:allocateWithKey<llvm::MallocAllocator>
   fun:create<llvm::MallocAllocator, llvm::cl::Option*>
   fun:_ZN4llvm9StringMapIPNS_2cl6OptionENS_15MallocAllocatorEE11try_emplaceIJS3_EEESt4pairINS_17StringMapIteratorIS3_EEbENS_9StringRefEDpOT_
   fun:insert
   fun:_ZN12_GLOBAL__N_117CommandLineParser9addOptionEPN4llvm2cl6OptionEPNS2_10SubCommandE
   fun:addOption
   fun:_ZN4llvm2cl6Option11addArgumentEv
   fun:done
   fun:opt<char [16], llvm::cl::desc, llvm::cl::OptionHidden>
   fun:__static_initialization_and_destruction_0
   fun:_GLOBAL__sub_I_RegisterCoalescer.cpp
   fun:call_init
   fun:call_init
   fun:_dl_init
   fun:_dl_catch_exception
   fun:dl_open_worker
   fun:_dl_catch_exception
   fun:_dl_open
   fun:dlopen_doit
}
{
   <insert_a_suppression_name_here>
   Memcheck:Leak
   match-leak-kinds: reachable
   fun:_ZnwmSt11align_val_t
   fun:Allocate
   fun:allocateWithKey<llvm::MallocAllocator>
   fun:create<llvm::MallocAllocator, llvm::cl::Option*>
   fun:_ZN4llvm9StringMapIPNS_2cl6OptionENS_15MallocAllocatorEE11try_emplaceIJS3_EEESt4pairINS_17StringMapIteratorIS3_EEbENS_9StringRefEDpOT_
   fun:insert
   fun:_ZN12_GLOBAL__N_117CommandLineParser9addOptionEPN4llvm2cl6OptionEPNS2_10SubCommandE
   fun:addOption
   fun:_ZN4llvm2cl6Option11addArgumentEv
   fun:done
   fun:opt<char [16], llvm::cl::desc, llvm::cl::initializer<bool>, llvm::cl::OptionHidden>
   fun:__static_initialization_and_destruction_0
   fun:_GLOBAL__sub_I_TailDuplicator.cpp
   fun:call_init
   fun:call_init
   fun:_dl_init
   fun:_dl_catch_exception
   fun:dl_open_worker
   fun:_dl_catch_exception
   fun:_dl_open
   fun:dlopen_doit
}
{
   <insert_a_suppression_name_here>
   Memcheck:Leak
   match-leak-kinds: reachable
   fun:_ZnwmSt11align_val_t
   fun:Allocate
   fun:allocateWithKey<llvm::MallocAllocator>
   fun:create<llvm::MallocAllocator, llvm::cl::Option*>
   fun:_ZN4llvm9StringMapIPNS_2cl6OptionENS_15MallocAllocatorEE11try_emplaceIJS3_EEESt4pairINS_17StringMapIteratorIS3_EEbENS_9StringRefEDpOT_
   fun:insert
   fun:_ZN12_GLOBAL__N_117CommandLineParser9addOptionEPN4llvm2cl6OptionEPNS2_10SubCommandE
   fun:addOption
   fun:_ZN4llvm2cl6Option11addArgumentEv
   fun:done
   fun:opt<char [16], llvm::cl::initializer<char [1]>, llvm::cl::value_desc, llvm::cl::desc, llvm::cl::OptionHidden>
   fun:_Z41__static_initialization_and_destruction_0v
   fun:call_init
   fun:call_init
   fun:_dl_init
   fun:_dl_catch_exception
   fun:dl_open_worker
   fun:_dl_catch_exception
   fun:_dl_open
   fun:dlopen_doit
}
{
   <insert_a_suppression_name_here>
   Memcheck:Leak
   match-leak-kinds: reachable
   fun:_ZnwmSt11align_val_t
   fun:Allocate
   fun:allocateWithKey<llvm::MallocAllocator>
   fun:create<llvm::MallocAllocator, llvm::cl::Option*>
   fun:_ZN4llvm9StringMapIPNS_2cl6OptionENS_15MallocAllocatorEE11try_emplaceIJS3_EEESt4pairINS_17StringMapIteratorIS3_EEbENS_9StringRefEDpOT_
   fun:insert
   fun:_ZN12_GLOBAL__N_117CommandLineParser9addOptionEPN4llvm2cl6OptionEPNS2_10SubCommandE
   fun:addOption
   fun:_ZN4llvm2cl6Option11addArgumentEv
   fun:done
   fun:opt<char [16], llvm::cl::OptionHidden, llvm::cl::desc>
   fun:__static_initialization_and_destruction_0
   fun:_GLOBAL__sub_I_SelectionDAGISel.cpp
   fun:call_init
   fun:call_init
   fun:_dl_init
   fun:_dl_catch_exception
   fun:dl_open_worker
   fun:_dl_catch_exception
   fun:_dl_open
   fun:dlopen_doit
}
{
   <insert_a_suppression_name_here>
   Memcheck:Leak
   match-leak-kinds: reachable
   fun:_ZnwmSt11align_val_t
   fun:Allocate
   fun:allocateWithKey<llvm::MallocAllocator>
   fun:create<llvm::MallocAllocator, llvm::cl::Option*>
   fun:_ZN4llvm9StringMapIPNS_2cl6OptionENS_15MallocAllocatorEE11try_emplaceIJS3_EEESt4pairINS_17StringMapIteratorIS3_EEbENS_9StringRefEDpOT_
   fun:insert
   fun:_ZN12_GLOBAL__N_117CommandLineParser9addOptionEPN4llvm2cl6OptionEPNS2_10SubCommandE
   fun:addOption
   fun:_ZN4llvm2cl6Option11addArgumentEv
   fun:done
   fun:opt<char [16], llvm::cl::desc, llvm::cl::OptionHidden, llvm::cl::initializer<bool> >
   fun:_Z41__static_initialization_and_destruction_0v
   fun:call_init
   fun:call_init
   fun:_dl_init
   fun:_dl_catch_exception
   fun:dl_open_worker
   fun:_dl_catch_exception
   fun:_dl_open
   fun:dlopen_doit
}
{
   <insert_a_suppression_name_here>
   Memcheck:Leak
   match-leak-kinds: reachable
   fun:_ZnwmSt11align_val_t
   fun:Allocate
   fun:allocateWithKey<llvm::MallocAllocator>
   fun:create<llvm::MallocAllocator, llvm::cl::Option*>
   fun:_ZN4llvm9StringMapIPNS_2cl6OptionENS_15MallocAllocatorEE11try_emplaceIJS3_EEESt4pairINS_17StringMapIteratorIS3_EEbENS_9StringRefEDpOT_
   fun:insert
   fun:_ZN12_GLOBAL__N_117CommandLineParser9addOptionEPN4llvm2cl6OptionEPNS2_10SubCommandE
   fun:addOption
   fun:_ZN4llvm2cl6Option11addArgumentEv
   fun:done
   fun:opt<char [16], llvm::cl::initializer<char [1]>, llvm::cl::OptionHidden, llvm::cl::desc>
   fun:__static_initialization_and_destruction_0
   fun:_GLOBAL__sub_I_ControlHeightReduction.cpp
   fun:call_init
   fun:call_init
   fun:_dl_init
   fun:_dl_catch_exception
   fun:dl_open_worker
   fun:_dl_catch_exception
   fun:_dl_open
   fun:dlopen_doit
}
{
   <insert_a_suppression_name_here>
   Memcheck:Leak
   match-leak-kinds: reachable
   fun:_ZnwmSt11align_val_t
   fun:Allocate
   fun:allocateWithKey<llvm::MallocAllocator>
   fun:create<llvm::MallocAllocator, llvm::cl::Option*>
   fun:_ZN4llvm9StringMapIPNS_2cl6OptionENS_15MallocAllocatorEE11try_emplaceIJS3_EEESt4pairINS_17StringMapIteratorIS3_EEbENS_9StringRefEDpOT_
   fun:insert
   fun:_ZN12_GLOBAL__N_117CommandLineParser9addOptionEPN4llvm2cl6OptionEPNS2_10SubCommandE
   fun:addOption
   fun:_ZN4llvm2cl6Option11addArgumentEv
   fun:done
   fun:opt<char [16], llvm::cl::initializer<bool>, llvm::cl::OptionHidden, llvm::cl::desc>
   fun:__static_initialization_and_destruction_0
   fun:_GLOBAL__sub_I_IndirectCallPromotion.cpp
   fun:call_init
   fun:call_init
   fun:_dl_init
   fun:_dl_catch_exception
   fun:dl_open_worker
   fun:_dl_catch_exception
   fun:_dl_open
   fun:dlopen_doit
}
{
   <insert_a_suppression_name_here>
   Memcheck:Leak
   match-leak-kinds: reachable
   fun:_ZnwmSt11align_val_t
   fun:Allocate
   fun:allocateWithKey<llvm::MallocAllocator>
   fun:create<llvm::MallocAllocator, llvm::cl::Option*>
   fun:_ZN4llvm9StringMapIPNS_2cl6OptionENS_15MallocAllocatorEE11try_emplaceIJS3_EEESt4pairINS_17StringMapIteratorIS3_EEbENS_9StringRefEDpOT_
   fun:insert
   fun:_ZN12_GLOBAL__N_117CommandLineParser9addOptionEPN4llvm2cl6OptionEPNS2_10SubCommandE
   fun:addOption
   fun:_ZN4llvm2cl6Option11addArgumentEv
   fun:done
   fun:opt<char [16], llvm::cl::desc, llvm::cl::initializer<bool> >
   fun:_Z41__static_initialization_and_destruction_0v
   fun:call_init
   fun:call_init
   fun:_dl_init
   fun:_dl_catch_exception
   fun:dl_open_worker
   fun:_dl_catch_exception
   fun:_dl_open
   fun:dlopen_doit
}
{
   <insert_a_suppression_name_here>
   Memcheck:Leak
   match-leak-kinds: reachable
   fun:_ZnwmSt11align_val_t
   fun:Allocate
   fun:allocateWithKey<llvm::MallocAllocator>
   fun:create<llvm::MallocAllocator, llvm::cl::Option*>
   fun:_ZN4llvm9StringMapIPNS_2cl6OptionENS_15MallocAllocatorEE11try_emplaceIJS3_EEESt4pairINS_17StringMapIteratorIS3_EEbENS_9StringRefEDpOT_
   fun:insert
   fun:_ZN12_GLOBAL__N_117CommandLineParser9addOptionEPN4llvm2cl6OptionEPNS2_10SubCommandE
   fun:addOption
   fun:_ZN4llvm2cl6Option11addArgumentEv
   fun:done
   fun:opt<char [16], llvm::cl::initializer<bool>, llvm::cl::OptionHidden, llvm::cl::desc>
   fun:_Z41__static_initialization_and_destruction_0v
   fun:call_init
   fun:call_init
   fun:_dl_init
   fun:_dl_catch_exception
   fun:dl_open_worker
   fun:_dl_catch_exception
   fun:_dl_open
   fun:dlopen_doit
}
{
   <insert_a_suppression_name_here>
   Memcheck:Leak
   match-leak-kinds: reachable
   fun:_ZnwmSt11align_val_t
   fun:Allocate
   fun:allocateWithKey<llvm::MallocAllocator>
   fun:create<llvm::MallocAllocator, llvm::cl::Option*>
   fun:_ZN4llvm9StringMapIPNS_2cl6OptionENS_15MallocAllocatorEE11try_emplaceIJS3_EEESt4pairINS_17StringMapIteratorIS3_EEbENS_9StringRefEDpOT_
   fun:insert
   fun:_ZN12_GLOBAL__N_117CommandLineParser9addOptionEPN4llvm2cl6OptionEPNS2_10SubCommandE
   fun:addOption
   fun:_ZN4llvm2cl6Option11addArgumentEv
   fun:done
   fun:opt<char [16], llvm::cl::initializer<bool> >
   fun:__static_initialization_and_destruction_0
   fun:_GLOBAL__sub_I_GVN.cpp
   fun:call_init
   fun:call_init
   fun:_dl_init
   fun:_dl_catch_exception
   fun:dl_open_worker
   fun:_dl_catch_exception
   fun:_dl_open
   fun:dlopen_doit
}
{
   <insert_a_suppression_name_here>
   Memcheck:Leak
   match-leak-kinds: reachable
   fun:_ZnwmSt11align_val_t
   fun:Allocate
   fun:allocateWithKey<llvm::MallocAllocator>
   fun:create<llvm::MallocAllocator, llvm::cl::Option*>
   fun:_ZN4llvm9StringMapIPNS_2cl6OptionENS_15MallocAllocatorEE11try_emplaceIJS3_EEESt4pairINS_17StringMapIteratorIS3_EEbENS_9StringRefEDpOT_
   fun:insert
   fun:_ZN12_GLOBAL__N_117CommandLineParser9addOptionEPN4llvm2cl6OptionEPNS2_10SubCommandE
   fun:addOption
   fun:_ZN4llvm2cl6Option11addArgumentEv
   fun:done
   fun:opt<char [16], llvm::cl::OptionHidden, llvm::cl::initializer<int>, llvm::cl::desc>
   fun:__static_initialization_and_destruction_0
   fun:_GLOBAL__sub_I_GVNHoist.cpp
   fun:call_init
   fun:call_init
   fun:_dl_init
   fun:_dl_catch_exception
   fun:dl_open_worker
   fun:_dl_catch_exception
   fun:_dl_open
   fun:dlopen_doit
}
{
   <insert_a_suppression_name_here>
   Memcheck:Leak
   match-leak-kinds: reachable
   fun:_ZnwmSt11align_val_t
   fun:Allocate
   fun:allocateWithKey<llvm::MallocAllocator>
   fun:create<llvm::MallocAllocator, llvm::cl::Option*>
   fun:_ZN4llvm9StringMapIPNS_2cl6OptionENS_15MallocAllocatorEE11try_emplaceIJS3_EEESt4pairINS_17StringMapIteratorIS3_EEbENS_9StringRefEDpOT_
   fun:insert
   fun:_ZN12_GLOBAL__N_117CommandLineParser9addOptionEPN4llvm2cl6OptionEPNS2_10SubCommandE
   fun:addOption
   fun:_ZN4llvm2cl6Option11addArgumentEv
   fun:done
   fun:opt<char [16], llvm::cl::OptionHidden, llvm::cl::initializer<bool> >
   fun:__static_initialization_and_destruction_0
   fun:_GLOBAL__sub_I_PlaceSafepoints.cpp
   fun:call_init
   fun:call_init
   fun:_dl_init
   fun:_dl_catch_exception
   fun:dl_open_worker
   fun:_dl_catch_exception
   fun:_dl_open
   fun:dlopen_doit
}
{
   <insert_a_suppression_name_here>
   Memcheck:Leak
   match-leak-kinds: reachable
   fun:_ZnwmSt11align_val_t
   fun:Allocate
   fun:allocateWithKey<llvm::MallocAllocator>
   fun:create<llvm::MallocAllocator, llvm::cl::Option*>
   fun:_ZN4llvm9StringMapIPNS_2cl6OptionENS_15MallocAllocatorEE11try_emplaceIJS3_EEESt4pairINS_17StringMapIteratorIS3_EEbENS_9StringRefEDpOT_
   fun:insert
   fun:_ZN12_GLOBAL__N_117CommandLineParser9addOptionEPN4llvm2cl6OptionEPNS2_10SubCommandE
   fun:addOption
   fun:_ZN4llvm2cl6Option11addArgumentEv
   fun:done
   fun:list<char [16], llvm::cl::OptionHidden, llvm::cl::desc>
   fun:__static_initialization_and_destruction_0
   fun:_GLOBAL__sub_I_ForceFunctionAttrs.cpp
   fun:call_init
   fun:call_init
   fun:_dl_init
   fun:_dl_catch_exception
   fun:dl_open_worker
   fun:_dl_catch_exception
   fun:_dl_open
   fun:dlopen_doit
}
{
   <insert_a_suppression_name_here>
   Memcheck:Leak
   match-leak-kinds: reachable
   fun:_ZnwmSt11align_val_t
   fun:Allocate
   fun:allocateWithKey<llvm::MallocAllocator>
   fun:create<llvm::MallocAllocator, llvm::cl::Option*>
   fun:_ZN4llvm9StringMapIPNS_2cl6OptionENS_15MallocAllocatorEE11try_emplaceIJS3_EEESt4pairINS_17StringMapIteratorIS3_EEbENS_9StringRefEDpOT_
   fun:insert
   fun:_ZN12_GLOBAL__N_117CommandLineParser9addOptionEPN4llvm2cl6OptionEPNS2_10SubCommandE
   fun:addOption
   fun:_ZN4llvm2cl6Option11addArgumentEv
   fun:done
   fun:opt<char [16], llvm::cl::OptionHidden, llvm::cl::initializer<int>, llvm::cl::desc>
   fun:__static_initialization_and_destruction_0
   fun:_GLOBAL__sub_I_GlobalOpt.cpp
   fun:call_init
   fun:call_init
   fun:_dl_init
   fun:_dl_catch_exception
   fun:dl_open_worker
   fun:_dl_catch_exception
   fun:_dl_open
   fun:dlopen_doit
}
{
   <insert_a_suppression_name_here>
   Memcheck:Leak
   match-leak-kinds: reachable
   fun:_ZnwmSt11align_val_t
   fun:Allocate
   fun:allocateWithKey<llvm::MallocAllocator>
   fun:create<llvm::MallocAllocator, llvm::cl::Option*>
   fun:_ZN4llvm9StringMapIPNS_2cl6OptionENS_15MallocAllocatorEE11try_emplaceIJS3_EEESt4pairINS_17StringMapIteratorIS3_EEbENS_9StringRefEDpOT_
   fun:insert
   fun:_ZN12_GLOBAL__N_117CommandLineParser9addOptionEPN4llvm2cl6OptionEPNS2_10SubCommandE
   fun:addOption
   fun:_ZN4llvm2cl6Option11addArgumentEv
   fun:done
   fun:opt<char [16], llvm::cl::initializer<int>, llvm::cl::OptionHidden, llvm::cl::desc>
   fun:_Z41__static_initialization_and_destruction_0v
   fun:call_init
   fun:call_init
   fun:_dl_init
   fun:_dl_catch_exception
   fun:dl_open_worker
   fun:_dl_catch_exception
   fun:_dl_open
   fun:dlopen_doit
}
{
   <insert_a_suppression_name_here>
   Memcheck:Leak
   match-leak-kinds: reachable
   fun:_ZnwmSt11align_val_t
   fun:Allocate
   fun:allocateWithKey<llvm::MallocAllocator>
   fun:create<llvm::MallocAllocator, llvm::cl::Option*>
   fun:_ZN4llvm9StringMapIPNS_2cl6OptionENS_15MallocAllocatorEE11try_emplaceIJS3_EEESt4pairINS_17StringMapIteratorIS3_EEbENS_9StringRefEDpOT_
   fun:insert
   fun:_ZN12_GLOBAL__N_117CommandLineParser9addOptionEPN4llvm2cl6OptionEPNS2_10SubCommandE
   fun:addOption
   fun:_ZN4llvm2cl6Option11addArgumentEv
   fun:done
   fun:opt<char [16], llvm::cl::OptionHidden>
   fun:__static_initialization_and_destruction_0
   fun:_GLOBAL__sub_I_AliasAnalysisEvaluator.cpp
   fun:call_init
   fun:call_init
   fun:_dl_init
   fun:_dl_catch_exception
   fun:dl_open_worker
   fun:_dl_catch_exception
   fun:_dl_open
   fun:dlopen_doit
}
{
   <insert_a_suppression_name_here>
   Memcheck:Leak
   match-leak-kinds: reachable
   fun:_ZnwmSt11align_val_t
   fun:Allocate
   fun:allocateWithKey<llvm::MallocAllocator>
   fun:create<llvm::MallocAllocator, llvm::cl::Option*>
   fun:_ZN4llvm9StringMapIPNS_2cl6OptionENS_15MallocAllocatorEE11try_emplaceIJS3_EEESt4pairINS_17StringMapIteratorIS3_EEbENS_9StringRefEDpOT_
   fun:insert
   fun:_ZN12_GLOBAL__N_117CommandLineParser9addOptionEPN4llvm2cl6OptionEPNS2_10SubCommandE
   fun:addOption
   fun:_ZN4llvm2cl6Option11addArgumentEv
   fun:done
   fun:opt<char [16], llvm::cl::OptionHidden, llvm::cl::initializer<bool> >
   fun:__static_initialization_and_destruction_0
   fun:_GLOBAL__sub_I_BasicAliasAnalysis.cpp
   fun:call_init
   fun:call_init
   fun:_dl_init
   fun:_dl_catch_exception
   fun:dl_open_worker
   fun:_dl_catch_exception
   fun:_dl_open
   fun:dlopen_doit
}
{
   <insert_a_suppression_name_here>
   Memcheck:Leak
   match-leak-kinds: reachable
   fun:_ZnwmSt11align_val_t
   fun:Allocate
   fun:allocateWithKey<llvm::MallocAllocator>
   fun:create<llvm::MallocAllocator, llvm::cl::Option*>
   fun:_ZN4llvm9StringMapIPNS_2cl6OptionENS_15MallocAllocatorEE11try_emplaceIJS3_EEESt4pairINS_17StringMapIteratorIS3_EEbENS_9StringRefEDpOT_
   fun:insert
   fun:_ZN12_GLOBAL__N_117CommandLineParser9addOptionEPN4llvm2cl6OptionEPNS2_10SubCommandE
   fun:addOption
   fun:_ZN4llvm2cl6Option11addArgumentEv
   fun:done
   fun:opt<char [16], llvm::cl::OptionHidden, llvm::cl::desc, llvm::cl::ValuesClass>
   fun:_Z41__static_initialization_and_destruction_0v
   fun:call_init
   fun:call_init
   fun:_dl_init
   fun:_dl_catch_exception
   fun:dl_open_worker
   fun:_dl_catch_exception
   fun:_dl_open
   fun:dlopen_doit
}
{
   <insert_a_suppression_name_here>
   Memcheck:Leak
   match-leak-kinds: reachable
   fun:_ZnwmSt11align_val_t
   fun:Allocate
   fun:allocateWithKey<llvm::MallocAllocator>
   fun:create<llvm::MallocAllocator, llvm::cl::Option*>
   fun:_ZN4llvm9StringMapIPNS_2cl6OptionENS_15MallocAllocatorEE11try_emplaceIJS3_EEESt4pairINS_17StringMapIteratorIS3_EEbENS_9StringRefEDpOT_
   fun:insert
   fun:_ZN12_GLOBAL__N_117CommandLineParser9addOptionEPN4llvm2cl6OptionEPNS2_10SubCommandE
   fun:addOption
   fun:_ZN4llvm2cl6Option11addArgumentEv
   fun:__static_initialization_and_destruction_0
   fun:_GLOBAL__sub_I_CFGPrinter.cpp
   fun:call_init
   fun:call_init
   fun:_dl_init
   fun:_dl_catch_exception
   fun:dl_open_worker
   fun:_dl_catch_exception
   fun:_dl_open
   fun:dlopen_doit
}
{
   <insert_a_suppression_name_here>
   Memcheck:Leak
   match-leak-kinds: reachable
   fun:_ZnwmSt11align_val_t
   fun:Allocate
   fun:allocateWithKey<llvm::MallocAllocator>
   fun:create<llvm::MallocAllocator, llvm::cl::Option*>
   fun:_ZN4llvm9StringMapIPNS_2cl6OptionENS_15MallocAllocatorEE11try_emplaceIJS3_EEESt4pairINS_17StringMapIteratorIS3_EEbENS_9StringRefEDpOT_
   fun:insert
   fun:_ZN12_GLOBAL__N_117CommandLineParser9addOptionEPN4llvm2cl6OptionEPNS2_10SubCommandE
   fun:addOption
   fun:_ZN4llvm2cl6Option11addArgumentEv
   fun:done
   fun:opt<char [16], llvm::cl::initializer<bool>, llvm::cl::OptionHidden, llvm::cl::desc>
   fun:__static_initialization_and_destruction_0
   fun:_GLOBAL__sub_I_InlineAdvisor.cpp
   fun:call_init
   fun:call_init
   fun:_dl_init
   fun:_dl_catch_exception
   fun:dl_open_worker
   fun:_dl_catch_exception
   fun:_dl_open
   fun:dlopen_doit
}
{
   <insert_a_suppression_name_here>
   Memcheck:Leak
   match-leak-kinds: reachable
   fun:_ZnwmSt11align_val_t
   fun:Allocate
   fun:allocateWithKey<llvm::MallocAllocator>
   fun:create<llvm::MallocAllocator, llvm::cl::Option*>
   fun:_ZN4llvm9StringMapIPNS_2cl6OptionENS_15MallocAllocatorEE11try_emplaceIJS3_EEESt4pairINS_17StringMapIteratorIS3_EEbENS_9StringRefEDpOT_
   fun:insert
   fun:_ZN12_GLOBAL__N_117CommandLineParser9addOptionEPN4llvm2cl6OptionEPNS2_10SubCommandE
   fun:addOption
   fun:_ZN4llvm2cl6Option11addArgumentEv
   fun:done
   fun:opt<char [16], llvm::cl::OptionHidden, llvm::cl::desc, llvm::cl::initializer<int> >
   fun:_Z41__static_initialization_and_destruction_0v
   fun:call_init
   fun:call_init
   fun:_dl_init
   fun:_dl_catch_exception
   fun:dl_open_worker
   fun:_dl_catch_exception
   fun:_dl_open
   fun:dlopen_doit
}
{
   <insert_a_suppression_name_here>
   Memcheck:Leak
   match-leak-kinds: reachable
   fun:_ZnwmSt11align_val_t
   fun:Allocate
   fun:allocateWithKey<llvm::MallocAllocator>
   fun:create<llvm::MallocAllocator, llvm::cl::Option*>
   fun:_ZN4llvm9StringMapIPNS_2cl6OptionENS_15MallocAllocatorEE11try_emplaceIJS3_EEESt4pairINS_17StringMapIteratorIS3_EEbENS_9StringRefEDpOT_
   fun:insert
   fun:_ZN12_GLOBAL__N_117CommandLineParser9addOptionEPN4llvm2cl6OptionEPNS2_10SubCommandE
   fun:addOption
   fun:_ZN4llvm2cl6Option11addArgumentEv
   fun:done
   fun:opt<char [16], llvm::cl::OptionHidden, llvm::cl::initializer<bool>, llvm::cl::desc>
   fun:__static_initialization_and_destruction_0
   fun:_GLOBAL__sub_I_ProfileSummaryInfo.cpp
   fun:call_init
   fun:call_init
   fun:_dl_init
   fun:_dl_catch_exception
   fun:dl_open_worker
   fun:_dl_catch_exception
   fun:_dl_open
   fun:dlopen_doit
}
{
   <insert_a_suppression_name_here>
   Memcheck:Leak
   match-leak-kinds: reachable
   fun:_ZnwmSt11align_val_t
   fun:Allocate
   fun:allocateWithKey<llvm::MallocAllocator>
   fun:create<llvm::MallocAllocator, llvm::cl::Option*>
   fun:_ZN4llvm9StringMapIPNS_2cl6OptionENS_15MallocAllocatorEE11try_emplaceIJS3_EEESt4pairINS_17StringMapIteratorIS3_EEbENS_9StringRefEDpOT_
   fun:insert
   fun:_ZN12_GLOBAL__N_117CommandLineParser9addOptionEPN4llvm2cl6OptionEPNS2_10SubCommandE
   fun:addOption
   fun:_ZN4llvm2cl6Option11addArgumentEv
   fun:done
   fun:opt<char [16], llvm::cl::initializer<int>, llvm::cl::OptionHidden, llvm::cl::desc>
   fun:__static_initialization_and_destruction_0
   fun:_GLOBAL__sub_I_TargetTransformInfo.cpp
   fun:call_init
   fun:call_init
   fun:_dl_init
   fun:_dl_catch_exception
   fun:dl_open_worker
   fun:_dl_catch_exception
   fun:_dl_open
   fun:dlopen_doit
}
{
   <insert_a_suppression_name_here>
   Memcheck:Leak
   match-leak-kinds: reachable
   fun:_ZnwmSt11align_val_t
   fun:Allocate
   fun:allocateWithKey<llvm::MallocAllocator>
   fun:create<llvm::MallocAllocator, llvm::cl::Option*>
   fun:_ZN4llvm9StringMapIPNS_2cl6OptionENS_15MallocAllocatorEE11try_emplaceIJS3_EEESt4pairINS_17StringMapIteratorIS3_EEbENS_9StringRefEDpOT_
   fun:insert
   fun:_ZN12_GLOBAL__N_117CommandLineParser9addOptionEPN4llvm2cl6OptionEPNS2_10SubCommandE
   fun:addOption
   fun:_ZN4llvm2cl6Option11addArgumentEv
   fun:done
   fun:opt<char [16], llvm::cl::desc>
   fun:_Z41__static_initialization_and_destruction_0v
   fun:call_init
   fun:call_init
   fun:_dl_init
   fun:_dl_catch_exception
   fun:dl_open_worker
   fun:_dl_catch_exception
   fun:_dl_open
   fun:dlopen_doit
}
{
   <insert_a_suppression_name_here>
   Memcheck:Leak
   match-leak-kinds: reachable
   fun:_ZnwmSt11align_val_t
   fun:Allocate
   fun:allocateWithKey<llvm::MallocAllocator>
   fun:create<llvm::MallocAllocator, llvm::cl::Option*>
   fun:_ZN4llvm9StringMapIPNS_2cl6OptionENS_15MallocAllocatorEE11try_emplaceIJS3_EEESt4pairINS_17StringMapIteratorIS3_EEbENS_9StringRefEDpOT_
   fun:insert
   fun:_ZN12_GLOBAL__N_117CommandLineParser9addOptionEPN4llvm2cl6OptionEPNS2_10SubCommandE
   fun:addOption
   fun:_ZN4llvm2cl6Option11addArgumentEv
   fun:done
   fun:opt<char [16], llvm::cl::desc, llvm::cl::initializer<llvm::cl::boolOrDefault>, llvm::cl::OptionHidden>
   fun:__static_initialization_and_destruction_0
   fun:_GLOBAL__sub_I_RemarkStreamer.cpp
   fun:call_init
   fun:call_init
   fun:_dl_init
   fun:_dl_catch_exception
   fun:dl_open_worker
   fun:_dl_catch_exception
   fun:_dl_open
   fun:dlopen_doit
}
{
   <insert_a_suppression_name_here>
   Memcheck:Leak
   match-leak-kinds: reachable
   fun:_ZnwmSt11align_val_t
   fun:Allocate
   fun:allocateWithKey<llvm::MallocAllocator>
   fun:create<llvm::MallocAllocator, llvm::cl::Option*>
   fun:_ZN4llvm9StringMapIPNS_2cl6OptionENS_15MallocAllocatorEE11try_emplaceIJS3_EEESt4pairINS_17StringMapIteratorIS3_EEbENS_9StringRefEDpOT_
   fun:insert
   fun:_ZN12_GLOBAL__N_117CommandLineParser9addOptionEPN4llvm2cl6OptionEPNS2_10SubCommandE
   fun:addOption
   fun:_ZN4llvm2cl6Option11addArgumentEv
   fun:done
   fun:opt<char [16], llvm::cl::desc, llvm::cl::initializer<bool>, llvm::cl::OptionHidden>
   fun:__static_initialization_and_destruction_0
   fun:_GLOBAL__sub_I_AArch64FrameLowering.cpp
   fun:call_init
   fun:call_init
   fun:_dl_init
   fun:_dl_catch_exception
   fun:dl_open_worker
   fun:_dl_catch_exception
   fun:_dl_open
   fun:dlopen_doit
}
{
   <insert_a_suppression_name_here>
   Memcheck:Leak
   match-leak-kinds: reachable
   fun:_ZnwmSt11align_val_t
   fun:Allocate
   fun:allocateWithKey<llvm::MallocAllocator>
   fun:create<llvm::MallocAllocator, llvm::cl::Option*>
   fun:_ZN4llvm9StringMapIPNS_2cl6OptionENS_15MallocAllocatorEE11try_emplaceIJS3_EEESt4pairINS_17StringMapIteratorIS3_EEbENS_9StringRefEDpOT_
   fun:insert
   fun:_ZN12_GLOBAL__N_117CommandLineParser9addOptionEPN4llvm2cl6OptionEPNS2_10SubCommandE
   fun:addOption
   fun:_ZN4llvm2cl6Option11addArgumentEv
   fun:done
   fun:opt<char [16], llvm::cl::desc, llvm::cl::OptionHidden, llvm::cl::initializer<bool> >
   fun:__static_initialization_and_destruction_0
   fun:_GLOBAL__sub_I_R600TargetMachine.cpp
   fun:call_init
   fun:call_init
   fun:_dl_init
   fun:_dl_catch_exception
   fun:dl_open_worker
   fun:_dl_catch_exception
   fun:_dl_open
   fun:dlopen_doit
}
{
   <insert_a_suppression_name_here>
   Memcheck:Leak
   match-leak-kinds: reachable
   fun:_ZnwmSt11align_val_t
   fun:Allocate
   fun:allocateWithKey<llvm::MallocAllocator>
   fun:create<llvm::MallocAllocator, llvm::cl::Option*>
   fun:_ZN4llvm9StringMapIPNS_2cl6OptionENS_15MallocAllocatorEE11try_emplaceIJS3_EEESt4pairINS_17StringMapIteratorIS3_EEbENS_9StringRefEDpOT_
   fun:insert
   fun:_ZN12_GLOBAL__N_117CommandLineParser9addOptionEPN4llvm2cl6OptionEPNS2_10SubCommandE
   fun:addOption
   fun:_ZN4llvm2cl6Option11addArgumentEv
   fun:done
   fun:opt<char [16], llvm::cl::initializer<int>, llvm::cl::OptionHidden>
   fun:__static_initialization_and_destruction_0
   fun:_GLOBAL__sub_I_Thumb2SizeReduction.cpp
   fun:call_init
   fun:call_init
   fun:_dl_init
   fun:_dl_catch_exception
   fun:dl_open_worker
   fun:_dl_catch_exception
   fun:_dl_open
   fun:dlopen_doit
}
{
   <insert_a_suppression_name_here>
   Memcheck:Leak
   match-leak-kinds: reachable
   fun:_ZnwmSt11align_val_t
   fun:Allocate
   fun:allocateWithKey<llvm::MallocAllocator>
   fun:create<llvm::MallocAllocator, llvm::cl::Option*>
   fun:_ZN4llvm9StringMapIPNS_2cl6OptionENS_15MallocAllocatorEE11try_emplaceIJS3_EEESt4pairINS_17StringMapIteratorIS3_EEbENS_9StringRefEDpOT_
   fun:insert
   fun:_ZN12_GLOBAL__N_117CommandLineParser9addOptionEPN4llvm2cl6OptionEPNS2_10SubCommandE
   fun:addOption
   fun:_ZN4llvm2cl6Option11addArgumentEv
   fun:done
   fun:opt<char [16], llvm::cl::initializer<(anonymous namespace)::ImplicitItModeTy>, llvm::cl::desc, llvm::cl::ValuesClass>
   fun:_Z41__static_initialization_and_destruction_0v
   fun:call_init
   fun:call_init
   fun:_dl_init
   fun:_dl_catch_exception
   fun:dl_open_worker
   fun:_dl_catch_exception
   fun:_dl_open
   fun:dlopen_doit
}
{
   <insert_a_suppression_name_here>
   Memcheck:Leak
   match-leak-kinds: reachable
   fun:_ZnwmSt11align_val_t
   fun:Allocate
   fun:allocateWithKey<llvm::MallocAllocator>
   fun:create<llvm::MallocAllocator, llvm::cl::Option*>
   fun:_ZN4llvm9StringMapIPNS_2cl6OptionENS_15MallocAllocatorEE11try_emplaceIJS3_EEESt4pairINS_17StringMapIteratorIS3_EEbENS_9StringRefEDpOT_
   fun:insert
   fun:_ZN12_GLOBAL__N_117CommandLineParser9addOptionEPN4llvm2cl6OptionEPNS2_10SubCommandE
   fun:addOption
   fun:_ZN4llvm2cl6Option11addArgumentEv
   fun:done
   fun:opt<char [16], llvm::cl::OptionHidden, llvm::cl::initializer<bool>, llvm::cl::desc>
   fun:__static_initialization_and_destruction_0
   fun:_GLOBAL__sub_I_HexagonBitSimplify.cpp
   fun:call_init
   fun:call_init
   fun:_dl_init
   fun:_dl_catch_exception
   fun:dl_open_worker
   fun:_dl_catch_exception
   fun:_dl_open
   fun:dlopen_doit
}
{
   <insert_a_suppression_name_here>
   Memcheck:Leak
   match-leak-kinds: reachable
   fun:_ZnwmSt11align_val_t
   fun:Allocate
   fun:allocateWithKey<llvm::MallocAllocator>
   fun:create<llvm::MallocAllocator, llvm::cl::Option*>
   fun:_ZN4llvm9StringMapIPNS_2cl6OptionENS_15MallocAllocatorEE11try_emplaceIJS3_EEESt4pairINS_17StringMapIteratorIS3_EEbENS_9StringRefEDpOT_
   fun:insert
   fun:_ZN12_GLOBAL__N_117CommandLineParser9addOptionEPN4llvm2cl6OptionEPNS2_10SubCommandE
   fun:addOption
   fun:_ZN4llvm2cl6Option11addArgumentEv
   fun:done
   fun:opt<char [16], llvm::cl::OptionHidden, llvm::cl::desc>
   fun:__static_initialization_and_destruction_0
   fun:_GLOBAL__sub_I_HexagonCopyToCombine.cpp
   fun:call_init
   fun:call_init
   fun:_dl_init
   fun:_dl_catch_exception
   fun:dl_open_worker
   fun:_dl_catch_exception
   fun:_dl_open
   fun:dlopen_doit
}
{
   <insert_a_suppression_name_here>
   Memcheck:Leak
   match-leak-kinds: reachable
   fun:_ZnwmSt11align_val_t
   fun:Allocate
   fun:allocateWithKey<llvm::MallocAllocator>
   fun:create<llvm::MallocAllocator, llvm::cl::Option*>
   fun:_ZN4llvm9StringMapIPNS_2cl6OptionENS_15MallocAllocatorEE11try_emplaceIJS3_EEESt4pairINS_17StringMapIteratorIS3_EEbENS_9StringRefEDpOT_
   fun:insert
   fun:_ZN12_GLOBAL__N_117CommandLineParser9addOptionEPN4llvm2cl6OptionEPNS2_10SubCommandE
   fun:addOption
   fun:_ZN4llvm2cl6Option11addArgumentEv
   fun:done
   fun:opt<char [16], llvm::cl::initializer<bool>, llvm::cl::OptionHidden, llvm::cl::desc>
   fun:__static_initialization_and_destruction_0
   fun:_GLOBAL__sub_I_HexagonGenExtract.cpp
   fun:call_init
   fun:call_init
   fun:_dl_init
   fun:_dl_catch_exception
   fun:dl_open_worker
   fun:_dl_catch_exception
   fun:_dl_open
   fun:dlopen_doit
}
{
   <insert_a_suppression_name_here>
   Memcheck:Leak
   match-leak-kinds: reachable
   fun:_ZnwmSt11align_val_t
   fun:Allocate
   fun:allocateWithKey<llvm::MallocAllocator>
   fun:create<llvm::MallocAllocator, llvm::cl::Option*>
   fun:_ZN4llvm9StringMapIPNS_2cl6OptionENS_15MallocAllocatorEE11try_emplaceIJS3_EEESt4pairINS_17StringMapIteratorIS3_EEbENS_9StringRefEDpOT_
   fun:insert
   fun:_ZN12_GLOBAL__N_117CommandLineParser9addOptionEPN4llvm2cl6OptionEPNS2_10SubCommandE
   fun:addOption
   fun:_ZN4llvm2cl6Option11addArgumentEv
   fun:done
   fun:opt<char [16], llvm::cl::OptionHidden, llvm::cl::initializer<bool>, llvm::cl::desc>
   fun:__static_initialization_and_destruction_0
   fun:_GLOBAL__sub_I_HexagonISelDAGToDAG.cpp
   fun:call_init
   fun:call_init
   fun:_dl_init
   fun:_dl_catch_exception
   fun:dl_open_worker
   fun:_dl_catch_exception
   fun:_dl_open
   fun:dlopen_doit
}
{
   <insert_a_suppression_name_here>
   Memcheck:Leak
   match-leak-kinds: reachable
   fun:_ZnwmSt11align_val_t
   fun:Allocate
   fun:allocateWithKey<llvm::MallocAllocator>
   fun:create<llvm::MallocAllocator, llvm::cl::Option*>
   fun:_ZN4llvm9StringMapIPNS_2cl6OptionENS_15MallocAllocatorEE11try_emplaceIJS3_EEESt4pairINS_17StringMapIteratorIS3_EEbENS_9StringRefEDpOT_
   fun:insert
   fun:_ZN12_GLOBAL__N_117CommandLineParser9addOptionEPN4llvm2cl6OptionEPNS2_10SubCommandE
   fun:addOption
   fun:_ZN4llvm2cl6Option11addArgumentEv
   fun:done
   fun:opt<char [16], llvm::cl::initializer<bool>, llvm::cl::OptionHidden, llvm::cl::desc>
   fun:__static_initialization_and_destruction_0
   fun:_GLOBAL__sub_I_HexagonTargetTransformInfo.cpp
   fun:call_init
   fun:call_init
   fun:_dl_init
   fun:_dl_catch_exception
   fun:dl_open_worker
   fun:_dl_catch_exception
   fun:_dl_open
   fun:dlopen_doit
}
{
   <insert_a_suppression_name_here>
   Memcheck:Leak
   match-leak-kinds: reachable
   fun:_ZnwmSt11align_val_t
   fun:Allocate
   fun:allocateWithKey<llvm::MallocAllocator>
   fun:create<llvm::MallocAllocator, llvm::cl::Option*>
   fun:_ZN4llvm9StringMapIPNS_2cl6OptionENS_15MallocAllocatorEE11try_emplaceIJS3_EEESt4pairINS_17StringMapIteratorIS3_EEbENS_9StringRefEDpOT_
   fun:insert
   fun:_ZN12_GLOBAL__N_117CommandLineParser9addOptionEPN4llvm2cl6OptionEPNS2_10SubCommandE
   fun:addOption
   fun:_ZN4llvm2cl6Option11addArgumentEv
   fun:done
   fun:opt<char [16], llvm::cl::OptionHidden, llvm::cl::desc>
   fun:__static_initialization_and_destruction_0
   fun:_GLOBAL__sub_I_HexagonTargetTransformInfo.cpp
   fun:call_init
   fun:call_init
   fun:_dl_init
   fun:_dl_catch_exception
   fun:dl_open_worker
   fun:_dl_catch_exception
   fun:_dl_open
   fun:dlopen_doit
}
{
   <insert_a_suppression_name_here>
   Memcheck:Leak
   match-leak-kinds: reachable
   fun:_ZnwmSt11align_val_t
   fun:Allocate
   fun:allocateWithKey<llvm::MallocAllocator>
   fun:create<llvm::MallocAllocator, llvm::cl::Option*>
   fun:_ZN4llvm9StringMapIPNS_2cl6OptionENS_15MallocAllocatorEE11try_emplaceIJS3_EEESt4pairINS_17StringMapIteratorIS3_EEbENS_9StringRefEDpOT_
   fun:insert
   fun:_ZN12_GLOBAL__N_117CommandLineParser9addOptionEPN4llvm2cl6OptionEPNS2_10SubCommandE
   fun:addOption
   fun:_ZN4llvm2cl6Option11addArgumentEv
   fun:done
   fun:opt<char [16], llvm::cl::OptionHidden>
   fun:__static_initialization_and_destruction_0
   fun:_GLOBAL__sub_I_HexagonVectorCombine.cpp
   fun:call_init
   fun:call_init
   fun:_dl_init
   fun:_dl_catch_exception
   fun:dl_open_worker
   fun:_dl_catch_exception
   fun:_dl_open
   fun:dlopen_doit
}
{
   <insert_a_suppression_name_here>
   Memcheck:Leak
   match-leak-kinds: reachable
   fun:_ZnwmSt11align_val_t
   fun:Allocate
   fun:allocateWithKey<llvm::MallocAllocator>
   fun:create<llvm::MallocAllocator, llvm::cl::Option*>
   fun:_ZN4llvm9StringMapIPNS_2cl6OptionENS_15MallocAllocatorEE11try_emplaceIJS3_EEESt4pairINS_17StringMapIteratorIS3_EEbENS_9StringRefEDpOT_
   fun:insert
   fun:_ZN12_GLOBAL__N_117CommandLineParser9addOptionEPN4llvm2cl6OptionEPNS2_10SubCommandE
   fun:addOption
   fun:_ZN4llvm2cl6Option11addArgumentEv
   fun:done
   fun:opt<char [16], llvm::cl::OptionHidden, llvm::cl::desc>
   fun:__static_initialization_and_destruction_0
   fun:_GLOBAL__sub_I_HexagonVLIWPacketizer.cpp
   fun:call_init
   fun:call_init
   fun:_dl_init
   fun:_dl_catch_exception
   fun:dl_open_worker
   fun:_dl_catch_exception
   fun:_dl_open
   fun:dlopen_doit
}
{
   <insert_a_suppression_name_here>
   Memcheck:Leak
   match-leak-kinds: reachable
   fun:_ZnwmSt11align_val_t
   fun:Allocate
   fun:allocateWithKey<llvm::MallocAllocator>
   fun:create<llvm::MallocAllocator, llvm::cl::Option*>
   fun:_ZN4llvm9StringMapIPNS_2cl6OptionENS_15MallocAllocatorEE11try_emplaceIJS3_EEESt4pairINS_17StringMapIteratorIS3_EEbENS_9StringRefEDpOT_
   fun:insert
   fun:_ZN12_GLOBAL__N_117CommandLineParser9addOptionEPN4llvm2cl6OptionEPNS2_10SubCommandE
   fun:addOption
   fun:_ZN4llvm2cl6Option11addArgumentEv
   fun:done
   fun:opt<char [16], llvm::cl::OptionHidden, llvm::cl::desc>
   fun:__static_initialization_and_destruction_0
   fun:_GLOBAL__sub_I_HexagonMCChecker.cpp
   fun:call_init
   fun:call_init
   fun:_dl_init
   fun:_dl_catch_exception
   fun:dl_open_worker
   fun:_dl_catch_exception
   fun:_dl_open
   fun:dlopen_doit
}
{
   <insert_a_suppression_name_here>
   Memcheck:Leak
   match-leak-kinds: reachable
   fun:_ZnwmSt11align_val_t
   fun:Allocate
   fun:allocateWithKey<llvm::MallocAllocator>
   fun:create<llvm::MallocAllocator, llvm::cl::Option*>
   fun:_ZN4llvm9StringMapIPNS_2cl6OptionENS_15MallocAllocatorEE11try_emplaceIJS3_EEESt4pairINS_17StringMapIteratorIS3_EEbENS_9StringRefEDpOT_
   fun:insert
   fun:_ZN12_GLOBAL__N_117CommandLineParser9addOptionEPN4llvm2cl6OptionEPNS2_10SubCommandE
   fun:addOption
   fun:_ZN4llvm2cl6Option11addArgumentEv
   fun:done
   fun:opt<char [16], llvm::cl::OptionHidden, llvm::cl::desc, llvm::cl::initializer<bool> >
   fun:__static_initialization_and_destruction_0
   fun:_GLOBAL__sub_I_MipsSEISelLowering.cpp
   fun:call_init
   fun:call_init
   fun:_dl_init
   fun:_dl_catch_exception
   fun:dl_open_worker
   fun:_dl_catch_exception
   fun:_dl_open
   fun:dlopen_doit
}
{
   <insert_a_suppression_name_here>
   Memcheck:Leak
   match-leak-kinds: reachable
   fun:_ZnwmSt11align_val_t
   fun:Allocate
   fun:allocateWithKey<llvm::MallocAllocator>
   fun:create<llvm::MallocAllocator, llvm::cl::Option*>
   fun:_ZN4llvm9StringMapIPNS_2cl6OptionENS_15MallocAllocatorEE11try_emplaceIJS3_EEESt4pairINS_17StringMapIteratorIS3_EEbENS_9StringRefEDpOT_
   fun:insert
   fun:_ZN12_GLOBAL__N_117CommandLineParser9addOptionEPN4llvm2cl6OptionEPNS2_10SubCommandE
   fun:addOption
   fun:_ZN4llvm2cl6Option11addArgumentEv
   fun:done
   fun:opt<char [16], llvm::cl::OptionHidden, llvm::cl::desc, llvm::cl::initializer<bool> >
   fun:__static_initialization_and_destruction_0
   fun:_GLOBAL__sub_I_MipsABIInfo.cpp
   fun:call_init
   fun:call_init
   fun:_dl_init
   fun:_dl_catch_exception
   fun:dl_open_worker
   fun:_dl_catch_exception
   fun:_dl_open
   fun:dlopen_doit
}
{
   <insert_a_suppression_name_here>
   Memcheck:Leak
   match-leak-kinds: reachable
   fun:_ZnwmSt11align_val_t
   fun:Allocate
   fun:allocateWithKey<llvm::MallocAllocator>
   fun:create<llvm::MallocAllocator, llvm::cl::Option*>
   fun:_ZN4llvm9StringMapIPNS_2cl6OptionENS_15MallocAllocatorEE11try_emplaceIJS3_EEESt4pairINS_17StringMapIteratorIS3_EEbENS_9StringRefEDpOT_
   fun:insert
   fun:_ZN12_GLOBAL__N_117CommandLineParser9addOptionEPN4llvm2cl6OptionEPNS2_10SubCommandE
   fun:addOption
   fun:_ZN4llvm2cl6Option11addArgumentEv
   fun:done
   fun:opt<char [16], llvm::cl::desc, llvm::cl::initializer<bool> >
   fun:__static_initialization_and_destruction_0
   fun:_GLOBAL__sub_I_NVPTXISelLowering.cpp
   fun:call_init
   fun:call_init
   fun:_dl_init
   fun:_dl_catch_exception
   fun:dl_open_worker
   fun:_dl_catch_exception
   fun:_dl_open
   fun:dlopen_doit
}
{
   <insert_a_suppression_name_here>
   Memcheck:Leak
   match-leak-kinds: reachable
   fun:_ZnwmSt11align_val_t
   fun:Allocate
   fun:allocateWithKey<llvm::MallocAllocator>
   fun:create<llvm::MallocAllocator, llvm::cl::Option*>
   fun:_ZN4llvm9StringMapIPNS_2cl6OptionENS_15MallocAllocatorEE11try_emplaceIJS3_EEESt4pairINS_17StringMapIteratorIS3_EEbENS_9StringRefEDpOT_
   fun:insert
   fun:_ZN12_GLOBAL__N_117CommandLineParser9addOptionEPN4llvm2cl6OptionEPNS2_10SubCommandE
   fun:addOption
   fun:_ZN4llvm2cl6Option11addArgumentEv
   fun:done
   fun:opt<char [16], llvm::cl::OptionHidden, llvm::cl::desc, llvm::cl::initializer<int> >
   fun:__static_initialization_and_destruction_0
   fun:_GLOBAL__sub_I_NVPTXISelLowering.cpp
   fun:call_init
   fun:call_init
   fun:_dl_init
   fun:_dl_catch_exception
   fun:dl_open_worker
   fun:_dl_catch_exception
   fun:_dl_open
   fun:dlopen_doit
}
{
   <insert_a_suppression_name_here>
   Memcheck:Leak
   match-leak-kinds: reachable
   fun:_ZnwmSt11align_val_t
   fun:Allocate
   fun:allocateWithKey<llvm::MallocAllocator>
   fun:create<llvm::MallocAllocator, llvm::cl::Option*>
   fun:_ZN4llvm9StringMapIPNS_2cl6OptionENS_15MallocAllocatorEE11try_emplaceIJS3_EEESt4pairINS_17StringMapIteratorIS3_EEbENS_9StringRefEDpOT_
   fun:insert
   fun:_ZN12_GLOBAL__N_117CommandLineParser9addOptionEPN4llvm2cl6OptionEPNS2_10SubCommandE
   fun:addOption
   fun:_ZN4llvm2cl6Option11addArgumentEv
   fun:done
   fun:opt<char [16], llvm::cl::desc, llvm::cl::initializer<bool>, llvm::cl::OptionHidden>
   fun:__static_initialization_and_destruction_0
   fun:_GLOBAL__sub_I_NVPTXTargetMachine.cpp
   fun:call_init
   fun:call_init
   fun:_dl_init
   fun:_dl_catch_exception
   fun:dl_open_worker
   fun:_dl_catch_exception
   fun:_dl_open
   fun:dlopen_doit
}
{
   <insert_a_suppression_name_here>
   Memcheck:Leak
   match-leak-kinds: reachable
   fun:_ZnwmSt11align_val_t
   fun:Allocate
   fun:allocateWithKey<llvm::MallocAllocator>
   fun:create<llvm::MallocAllocator, llvm::cl::Option*>
   fun:_ZN4llvm9StringMapIPNS_2cl6OptionENS_15MallocAllocatorEE11try_emplaceIJS3_EEESt4pairINS_17StringMapIteratorIS3_EEbENS_9StringRefEDpOT_
   fun:insert
   fun:_ZN12_GLOBAL__N_117CommandLineParser9addOptionEPN4llvm2cl6OptionEPNS2_10SubCommandE
   fun:addOption
   fun:_ZN4llvm2cl6Option11addArgumentEv
   fun:done
   fun:opt<char [16], llvm::cl::desc, llvm::cl::OptionHidden>
   fun:__static_initialization_and_destruction_0
   fun:_GLOBAL__sub_I_PPCISelLowering.cpp
   fun:call_init
   fun:call_init
   fun:_dl_init
   fun:_dl_catch_exception
   fun:dl_open_worker
   fun:_dl_catch_exception
   fun:_dl_open
   fun:dlopen_doit
}
{
   <insert_a_suppression_name_here>
   Memcheck:Leak
   match-leak-kinds: reachable
   fun:_ZnwmSt11align_val_t
   fun:Allocate
   fun:allocateWithKey<llvm::MallocAllocator>
   fun:create<llvm::MallocAllocator, llvm::cl::Option*>
   fun:_ZN4llvm9StringMapIPNS_2cl6OptionENS_15MallocAllocatorEE11try_emplaceIJS3_EEESt4pairINS_17StringMapIteratorIS3_EEbENS_9StringRefEDpOT_
   fun:insert
   fun:_ZN12_GLOBAL__N_117CommandLineParser9addOptionEPN4llvm2cl6OptionEPNS2_10SubCommandE
   fun:addOption
   fun:_ZN4llvm2cl6Option11addArgumentEv
   fun:done
   fun:opt<char [16], llvm::cl::OptionHidden, llvm::cl::desc>
   fun:__static_initialization_and_destruction_0
   fun:_GLOBAL__sub_I_X86Subtarget.cpp
   fun:call_init
   fun:call_init
   fun:_dl_init
   fun:_dl_catch_exception
   fun:dl_open_worker
   fun:_dl_catch_exception
   fun:_dl_open
   fun:dlopen_doit
}
{
   <insert_a_suppression_name_here>
   Memcheck:Leak
   match-leak-kinds: reachable
   fun:_Znwm
   fun:_ZN4llvm14object_creatorINSt7__cxx1112basic_stringIcSt11char_traitsIcESaIcEEEE4callEv
   fun:_ZNK4llvm17ManagedStaticBase21RegisterManagedStaticEPFPvvEPFvS1_E
   fun:operator*
   fun:_ZN12_GLOBAL__N_125CreateCrashDiagnosticsDir4callEv
   fun:_ZNK4llvm17ManagedStaticBase21RegisterManagedStaticEPFPvvEPFvS1_E
   fun:operator*
   fun:_ZN4llvm18initSignalsOptionsEv
   fun:initCommonOptions
   fun:_ZN4llvm2cl23ParseCommandLineOptionsEiPKPKcNS_9StringRefEPNS_11raw_ostreamES2_b
   fun:LLVMParseCommandLineOptions
   fun:ac_init_llvm_target
   fun:__pthread_once_slow.isra.0
   fun:pthread_once@@GLIBC_2.34
   fun:radeonsi_screen_create
}
{
   <insert_a_suppression_name_here>
   Memcheck:Leak
   match-leak-kinds: reachable
   fun:_Znwm
   fun:_ZN4llvm14object_creatorINSt7__cxx1112basic_stringIcSt11char_traitsIcESaIcEEEE4callEv
   fun:_ZNK4llvm17ManagedStaticBase21RegisterManagedStaticEPFPvvEPFvS1_E
   fun:operator*
   fun:getLibSupportInfoOutputFilename
   fun:_ZN12_GLOBAL__N_124CreateInfoOutputFilename4callEv
   fun:_ZNK4llvm17ManagedStaticBase21RegisterManagedStaticEPFPvvEPFvS1_E
   fun:operator*
   fun:_ZN4llvm16initTimerOptionsEv
   fun:initCommonOptions
   fun:_ZN4llvm2cl23ParseCommandLineOptionsEiPKPKcNS_9StringRefEPNS_11raw_ostreamES2_b
   fun:LLVMParseCommandLineOptions
   fun:ac_init_llvm_target
   fun:__pthread_once_slow.isra.0
   fun:pthread_once@@GLIBC_2.34
   fun:radeonsi_screen_create
}
{
   <insert_a_suppression_name_here>
   Memcheck:Leak
   match-leak-kinds: possible
   fun:_Znwm
   fun:_ZN4llvm13PMDataManager3addEPNS_4PassEb
   fun:_ZN4llvm17PMTopLevelManager12schedulePassEPNS_4PassE
   fun:_ZN4llvm17PMTopLevelManager12schedulePassEPNS_4PassE
   fun:_ZN4llvm17PMTopLevelManager12schedulePassEPNS_4PassE
   fun:add
   fun:_ZN12_GLOBAL__N_113MPPassManager25addLowerLevelRequiredPassEPN4llvm4PassES3_
   fun:_ZN4llvm13PMDataManager3addEPNS_4PassEb
   fun:_ZN4llvm17PMTopLevelManager12schedulePassEPNS_4PassE
   fun:_ZN4llvm16TargetPassConfig7addPassEPNS_4PassE
   fun:_ZN4llvm16AMDGPUPassConfig11addIRPassesEv
   fun:_ZN4llvm16TargetPassConfig13addISelPassesEv
   fun:_ZL23addPassesToGenerateCodeRN4llvm17LLVMTargetMachineERNS_6legacy15PassManagerBaseEbRNS_28MachineModuleInfoWrapperPassE
}
{
   <insert_a_suppression_name_here>
   Memcheck:Leak
   match-leak-kinds: possible
   fun:_Znwm
   fun:_ZN4llvm13PMDataManager3addEPNS_4PassEb
   fun:_ZN4llvm17PMTopLevelManager12schedulePassEPNS_4PassE
   fun:_ZN4llvm17PMTopLevelManager12schedulePassEPNS_4PassE
   fun:add
   fun:_ZN12_GLOBAL__N_113MPPassManager25addLowerLevelRequiredPassEPN4llvm4PassES3_
   fun:_ZN4llvm13PMDataManager3addEPNS_4PassEb
   fun:_ZN4llvm17PMTopLevelManager12schedulePassEPNS_4PassE
   fun:_ZN4llvm16TargetPassConfig7addPassEPNS_4PassE
   fun:_ZN4llvm16AMDGPUPassConfig11addIRPassesEv
   fun:_ZN4llvm16TargetPassConfig13addISelPassesEv
   fun:_ZL23addPassesToGenerateCodeRN4llvm17LLVMTargetMachineERNS_6legacy15PassManagerBaseEbRNS_28MachineModuleInfoWrapperPassE
   fun:_ZN4llvm17LLVMTargetMachine19addPassesToEmitFileERNS_6legacy15PassManagerBaseERNS_17raw_pwrite_streamEPS4_NS_15CodeGenFileTypeEbPNS_28MachineModuleInfoWrapperPassE
}
{
   <insert_a_suppression_name_here>
   Memcheck:Leak
   match-leak-kinds: possible
   fun:_Znwm
   fun:_ZN4llvm13PMDataManager3addEPNS_4PassEb
   fun:_ZN4llvm17PMTopLevelManager12schedulePassEPNS_4PassE
   fun:add
   fun:_ZN12_GLOBAL__N_113MPPassManager25addLowerLevelRequiredPassEPN4llvm4PassES3_
   fun:_ZN4llvm13PMDataManager3addEPNS_4PassEb
   fun:_ZN4llvm17PMTopLevelManager12schedulePassEPNS_4PassE
   fun:_ZN4llvm16TargetPassConfig7addPassEPNS_4PassE
   fun:_ZN4llvm16AMDGPUPassConfig11addIRPassesEv
   fun:_ZN4llvm16TargetPassConfig13addISelPassesEv
   fun:_ZL23addPassesToGenerateCodeRN4llvm17LLVMTargetMachineERNS_6legacy15PassManagerBaseEbRNS_28MachineModuleInfoWrapperPassE
   fun:_ZN4llvm17LLVMTargetMachine19addPassesToEmitFileERNS_6legacy15PassManagerBaseERNS_17raw_pwrite_streamEPS4_NS_15CodeGenFileTypeEbPNS_28MachineModuleInfoWrapperPassE
   fun:ac_create_llvm_passes
}
{
   <insert_a_suppression_name_here>
   Memcheck:Leak
   match-leak-kinds: possible
   fun:_Znwm
   fun:_ZN4llvm13PMDataManager3addEPNS_4PassEb
   fun:_ZN4llvm17PMTopLevelManager12schedulePassEPNS_4PassE
   fun:_ZN4llvm17PMTopLevelManager12schedulePassEPNS_4PassE
   fun:_ZN4llvm16TargetPassConfig7addPassEPNS_4PassE
   fun:_ZN4llvm16AMDGPUPassConfig39addStraightLineScalarOptimizationPassesEv
   fun:_ZN4llvm16AMDGPUPassConfig11addIRPassesEv
   fun:_ZN4llvm16TargetPassConfig13addISelPassesEv
   fun:_ZL23addPassesToGenerateCodeRN4llvm17LLVMTargetMachineERNS_6legacy15PassManagerBaseEbRNS_28MachineModuleInfoWrapperPassE
   fun:_ZN4llvm17LLVMTargetMachine19addPassesToEmitFileERNS_6legacy15PassManagerBaseERNS_17raw_pwrite_streamEPS4_NS_15CodeGenFileTypeEbPNS_28MachineModuleInfoWrapperPassE
   fun:ac_create_llvm_passes
   fun:si_create_llvm_compiler
}
{
   <insert_a_suppression_name_here>
   Memcheck:Leak
   match-leak-kinds: possible
   fun:_Znwm
   fun:_ZN4llvm13PMDataManager3addEPNS_4PassEb
   fun:_ZN4llvm17PMTopLevelManager12schedulePassEPNS_4PassE
   fun:_ZN4llvm17PMTopLevelManager12schedulePassEPNS_4PassE
   fun:_ZN4llvm17PMTopLevelManager12schedulePassEPNS_4PassE
   fun:_ZN4llvm16TargetPassConfig7addPassEPNS_4PassE
   fun:_ZN4llvm16AMDGPUPassConfig11addIRPassesEv
   fun:_ZN4llvm16TargetPassConfig13addISelPassesEv
   fun:_ZL23addPassesToGenerateCodeRN4llvm17LLVMTargetMachineERNS_6legacy15PassManagerBaseEbRNS_28MachineModuleInfoWrapperPassE
   fun:_ZN4llvm17LLVMTargetMachine19addPassesToEmitFileERNS_6legacy15PassManagerBaseERNS_17raw_pwrite_streamEPS4_NS_15CodeGenFileTypeEbPNS_28MachineModuleInfoWrapperPassE
   fun:ac_create_llvm_passes
   fun:si_create_llvm_compiler
}
{
   <insert_a_suppression_name_here>
   Memcheck:Leak
   match-leak-kinds: possible
   fun:_Znwm
   fun:_ZN4llvm13PMDataManager3addEPNS_4PassEb
   fun:_ZN4llvm17PMTopLevelManager12schedulePassEPNS_4PassE
   fun:_ZN4llvm17PMTopLevelManager12schedulePassEPNS_4PassE
   fun:_ZN4llvm17PMTopLevelManager12schedulePassEPNS_4PassE
   fun:_ZN4llvm17PMTopLevelManager12schedulePassEPNS_4PassE
   fun:_ZN4llvm16TargetPassConfig7addPassEPNS_4PassE
   fun:_ZN4llvm16AMDGPUPassConfig11addIRPassesEv
   fun:_ZN4llvm16TargetPassConfig13addISelPassesEv
   fun:_ZL23addPassesToGenerateCodeRN4llvm17LLVMTargetMachineERNS_6legacy15PassManagerBaseEbRNS_28MachineModuleInfoWrapperPassE
   fun:_ZN4llvm17LLVMTargetMachine19addPassesToEmitFileERNS_6legacy15PassManagerBaseERNS_17raw_pwrite_streamEPS4_NS_15CodeGenFileTypeEbPNS_28MachineModuleInfoWrapperPassE
   fun:ac_create_llvm_passes
}
{
   <insert_a_suppression_name_here>
   Memcheck:Leak
   match-leak-kinds: possible
   fun:_Znwm
   fun:_ZN4llvm13PMDataManager3addEPNS_4PassEb
   fun:_ZN4llvm8LoopPass17assignPassManagerERNS_7PMStackENS_15PassManagerTypeE
   fun:_ZN4llvm17PMTopLevelManager12schedulePassEPNS_4PassE
   fun:_ZN4llvm16TargetPassConfig7addPassEPNS_4PassE
   fun:_ZN4llvm16TargetPassConfig11addIRPassesEv
   fun:_ZN4llvm16AMDGPUPassConfig11addIRPassesEv
   fun:_ZN4llvm16TargetPassConfig13addISelPassesEv
   fun:_ZL23addPassesToGenerateCodeRN4llvm17LLVMTargetMachineERNS_6legacy15PassManagerBaseEbRNS_28MachineModuleInfoWrapperPassE
   fun:_ZN4llvm17LLVMTargetMachine19addPassesToEmitFileERNS_6legacy15PassManagerBaseERNS_17raw_pwrite_streamEPS4_NS_15CodeGenFileTypeEbPNS_28MachineModuleInfoWrapperPassE
   fun:ac_create_llvm_passes
   fun:si_create_llvm_compiler
}
{
   <insert_a_suppression_name_here>
   Memcheck:Leak
   match-leak-kinds: possible
   fun:_Znwm
   fun:_ZN4llvm13PMDataManager3addEPNS_4PassEb
   fun:_ZN4llvm17PMTopLevelManager12schedulePassEPNS_4PassE
   fun:_ZN4llvm17PMTopLevelManager12schedulePassEPNS_4PassE
   fun:_ZN4llvm16TargetPassConfig7addPassEPNS_4PassE
   fun:_ZN4llvm16TargetPassConfig11addIRPassesEv
   fun:_ZN4llvm16AMDGPUPassConfig11addIRPassesEv
   fun:_ZN4llvm16TargetPassConfig13addISelPassesEv
   fun:_ZL23addPassesToGenerateCodeRN4llvm17LLVMTargetMachineERNS_6legacy15PassManagerBaseEbRNS_28MachineModuleInfoWrapperPassE
   fun:_ZN4llvm17LLVMTargetMachine19addPassesToEmitFileERNS_6legacy15PassManagerBaseERNS_17raw_pwrite_streamEPS4_NS_15CodeGenFileTypeEbPNS_28MachineModuleInfoWrapperPassE
   fun:ac_create_llvm_passes
   fun:si_create_llvm_compiler
}
{
   <insert_a_suppression_name_here>
   Memcheck:Leak
   match-leak-kinds: possible
   fun:_Znwm
   fun:_ZN4llvm13PMDataManager3addEPNS_4PassEb
   fun:_ZN4llvm17PMTopLevelManager12schedulePassEPNS_4PassE
   fun:_ZN4llvm17PMTopLevelManager12schedulePassEPNS_4PassE
   fun:_ZN4llvm17PMTopLevelManager12schedulePassEPNS_4PassE
   fun:_ZN4llvm16TargetPassConfig7addPassEPNS_4PassE
   fun:_ZN4llvm16TargetPassConfig11addIRPassesEv
   fun:_ZN4llvm16AMDGPUPassConfig11addIRPassesEv
   fun:_ZN4llvm16TargetPassConfig13addISelPassesEv
   fun:_ZL23addPassesToGenerateCodeRN4llvm17LLVMTargetMachineERNS_6legacy15PassManagerBaseEbRNS_28MachineModuleInfoWrapperPassE
   fun:_ZN4llvm17LLVMTargetMachine19addPassesToEmitFileERNS_6legacy15PassManagerBaseERNS_17raw_pwrite_streamEPS4_NS_15CodeGenFileTypeEbPNS_28MachineModuleInfoWrapperPassE
   fun:ac_create_llvm_passes
}
{
   <insert_a_suppression_name_here>
   Memcheck:Leak
   match-leak-kinds: possible
   fun:_Znwm
   fun:_ZN4llvm13PMDataManager3addEPNS_4PassEb
   fun:_ZN4llvm17PMTopLevelManager12schedulePassEPNS_4PassE
   fun:_ZN4llvm17PMTopLevelManager12schedulePassEPNS_4PassE
   fun:_ZN4llvm17PMTopLevelManager12schedulePassEPNS_4PassE
   fun:_ZN4llvm16TargetPassConfig7addPassEPNS_4PassE
   fun:_ZN4llvm16AMDGPUPassConfig17addCodeGenPrepareEv
   fun:_ZN4llvm16TargetPassConfig13addISelPassesEv
   fun:_ZL23addPassesToGenerateCodeRN4llvm17LLVMTargetMachineERNS_6legacy15PassManagerBaseEbRNS_28MachineModuleInfoWrapperPassE
   fun:_ZN4llvm17LLVMTargetMachine19addPassesToEmitFileERNS_6legacy15PassManagerBaseERNS_17raw_pwrite_streamEPS4_NS_15CodeGenFileTypeEbPNS_28MachineModuleInfoWrapperPassE
   fun:ac_create_llvm_passes
   fun:si_create_llvm_compiler
}
{
   <insert_a_suppression_name_here>
   Memcheck:Leak
   match-leak-kinds: possible
   fun:_Znwm
   fun:_ZN4llvm13PMDataManager3addEPNS_4PassEb
   fun:_ZN4llvm17PMTopLevelManager12schedulePassEPNS_4PassE
   fun:_ZN4llvm17PMTopLevelManager12schedulePassEPNS_4PassE
   fun:_ZN4llvm17PMTopLevelManager12schedulePassEPNS_4PassE
   fun:_ZN4llvm17PMTopLevelManager12schedulePassEPNS_4PassE
   fun:_ZN4llvm16TargetPassConfig7addPassEPNS_4PassE
   fun:_ZN4llvm16AMDGPUPassConfig17addCodeGenPrepareEv
   fun:_ZN4llvm16TargetPassConfig13addISelPassesEv
   fun:_ZL23addPassesToGenerateCodeRN4llvm17LLVMTargetMachineERNS_6legacy15PassManagerBaseEbRNS_28MachineModuleInfoWrapperPassE
   fun:_ZN4llvm17LLVMTargetMachine19addPassesToEmitFileERNS_6legacy15PassManagerBaseERNS_17raw_pwrite_streamEPS4_NS_15CodeGenFileTypeEbPNS_28MachineModuleInfoWrapperPassE
   fun:ac_create_llvm_passes
}
{
   <insert_a_suppression_name_here>
   Memcheck:Leak
   match-leak-kinds: possible
   fun:_Znwm
   fun:_ZN4llvm13PMDataManager3addEPNS_4PassEb
   fun:_ZN4llvm17PMTopLevelManager12schedulePassEPNS_4PassE
   fun:_ZN4llvm17PMTopLevelManager12schedulePassEPNS_4PassE
   fun:_ZN4llvm17PMTopLevelManager12schedulePassEPNS_4PassE
   fun:_ZN4llvm17PMTopLevelManager12schedulePassEPNS_4PassE
   fun:_ZN4llvm16TargetPassConfig7addPassEPNS_4PassE
   fun:addPreISel
   fun:addPreISel
   fun:_ZN12_GLOBAL__N_113GCNPassConfig10addPreISelEv
   fun:_ZN4llvm16TargetPassConfig14addISelPrepareEv
   fun:_ZN4llvm16TargetPassConfig13addISelPassesEv
   fun:_ZL23addPassesToGenerateCodeRN4llvm17LLVMTargetMachineERNS_6legacy15PassManagerBaseEbRNS_28MachineModuleInfoWrapperPassE
   fun:_ZN4llvm17LLVMTargetMachine19addPassesToEmitFileERNS_6legacy15PassManagerBaseERNS_17raw_pwrite_streamEPS4_NS_15CodeGenFileTypeEbPNS_28MachineModuleInfoWrapperPassE
}
{
   <insert_a_suppression_name_here>
   Memcheck:Leak
   match-leak-kinds: possible
   fun:_Znwm
   fun:_ZN4llvm13PMDataManager3addEPNS_4PassEb
   fun:_ZN4llvm17PMTopLevelManager12schedulePassEPNS_4PassE
   fun:_ZN4llvm17PMTopLevelManager12schedulePassEPNS_4PassE
   fun:_ZN4llvm17PMTopLevelManager12schedulePassEPNS_4PassE
   fun:_ZN4llvm16TargetPassConfig7addPassEPNS_4PassE
   fun:addPreISel
   fun:addPreISel
   fun:_ZN12_GLOBAL__N_113GCNPassConfig10addPreISelEv
   fun:_ZN4llvm16TargetPassConfig14addISelPrepareEv
   fun:_ZN4llvm16TargetPassConfig13addISelPassesEv
   fun:_ZL23addPassesToGenerateCodeRN4llvm17LLVMTargetMachineERNS_6legacy15PassManagerBaseEbRNS_28MachineModuleInfoWrapperPassE
   fun:_ZN4llvm17LLVMTargetMachine19addPassesToEmitFileERNS_6legacy15PassManagerBaseERNS_17raw_pwrite_streamEPS4_NS_15CodeGenFileTypeEbPNS_28MachineModuleInfoWrapperPassE
   fun:ac_create_llvm_passes
}
{
   <insert_a_suppression_name_here>
   Memcheck:Leak
   match-leak-kinds: possible
   fun:_Znwm
   fun:_ZN4llvm13PMDataManager3addEPNS_4PassEb
   fun:_ZN4llvm17PMTopLevelManager12schedulePassEPNS_4PassE
   fun:_ZN4llvm17PMTopLevelManager12schedulePassEPNS_4PassE
   fun:_ZN4llvm16TargetPassConfig7addPassEPNS_4PassE
   fun:addPreISel
   fun:addPreISel
   fun:_ZN12_GLOBAL__N_113GCNPassConfig10addPreISelEv
   fun:_ZN4llvm16TargetPassConfig14addISelPrepareEv
   fun:_ZN4llvm16TargetPassConfig13addISelPassesEv
   fun:_ZL23addPassesToGenerateCodeRN4llvm17LLVMTargetMachineERNS_6legacy15PassManagerBaseEbRNS_28MachineModuleInfoWrapperPassE
   fun:_ZN4llvm17LLVMTargetMachine19addPassesToEmitFileERNS_6legacy15PassManagerBaseERNS_17raw_pwrite_streamEPS4_NS_15CodeGenFileTypeEbPNS_28MachineModuleInfoWrapperPassE
   fun:ac_create_llvm_passes
   fun:si_create_llvm_compiler
}
{
   <insert_a_suppression_name_here>
   Memcheck:Leak
   match-leak-kinds: possible
   fun:_Znwm
   fun:_ZN4llvm13PMDataManager3addEPNS_4PassEb
   fun:_ZN4llvm17PMTopLevelManager12schedulePassEPNS_4PassE
   fun:_ZN4llvm17PMTopLevelManager12schedulePassEPNS_4PassE
   fun:_ZN4llvm16TargetPassConfig7addPassEPNS_4PassE
   fun:_ZN12_GLOBAL__N_113GCNPassConfig10addPreISelEv
   fun:_ZN4llvm16TargetPassConfig14addISelPrepareEv
   fun:_ZN4llvm16TargetPassConfig13addISelPassesEv
   fun:_ZL23addPassesToGenerateCodeRN4llvm17LLVMTargetMachineERNS_6legacy15PassManagerBaseEbRNS_28MachineModuleInfoWrapperPassE
   fun:_ZN4llvm17LLVMTargetMachine19addPassesToEmitFileERNS_6legacy15PassManagerBaseERNS_17raw_pwrite_streamEPS4_NS_15CodeGenFileTypeEbPNS_28MachineModuleInfoWrapperPassE
   fun:ac_create_llvm_passes
   fun:si_create_llvm_compiler
}
{
   <insert_a_suppression_name_here>
   Memcheck:Leak
   match-leak-kinds: possible
   fun:_Znwm
   fun:_ZN4llvm13PMDataManager3addEPNS_4PassEb
   fun:_ZN4llvm17PMTopLevelManager12schedulePassEPNS_4PassE
   fun:_ZN4llvm17PMTopLevelManager12schedulePassEPNS_4PassE
   fun:_ZN4llvm17PMTopLevelManager12schedulePassEPNS_4PassE
   fun:_ZN4llvm16TargetPassConfig7addPassEPNS_4PassE
   fun:_ZN12_GLOBAL__N_113GCNPassConfig10addPreISelEv
   fun:_ZN4llvm16TargetPassConfig14addISelPrepareEv
   fun:_ZN4llvm16TargetPassConfig13addISelPassesEv
   fun:_ZL23addPassesToGenerateCodeRN4llvm17LLVMTargetMachineERNS_6legacy15PassManagerBaseEbRNS_28MachineModuleInfoWrapperPassE
   fun:_ZN4llvm17LLVMTargetMachine19addPassesToEmitFileERNS_6legacy15PassManagerBaseERNS_17raw_pwrite_streamEPS4_NS_15CodeGenFileTypeEbPNS_28MachineModuleInfoWrapperPassE
   fun:ac_create_llvm_passes
}
{
   <insert_a_suppression_name_here>
   Memcheck:Leak
   match-leak-kinds: possible
   fun:_Znwm
   fun:_ZN4llvm13PMDataManager3addEPNS_4PassEb
   fun:_ZN4llvm17PMTopLevelManager12schedulePassEPNS_4PassE
   fun:_ZN4llvm17PMTopLevelManager12schedulePassEPNS_4PassE
   fun:_ZN4llvm16TargetPassConfig7addPassEPNS_4PassE
   fun:_ZN4llvm16TargetPassConfig7addPassEPKv
   fun:_ZN12_GLOBAL__N_113GCNPassConfig10addPreISelEv
   fun:_ZN4llvm16TargetPassConfig14addISelPrepareEv
   fun:_ZN4llvm16TargetPassConfig13addISelPassesEv
   fun:_ZL23addPassesToGenerateCodeRN4llvm17LLVMTargetMachineERNS_6legacy15PassManagerBaseEbRNS_28MachineModuleInfoWrapperPassE
   fun:_ZN4llvm17LLVMTargetMachine19addPassesToEmitFileERNS_6legacy15PassManagerBaseERNS_17raw_pwrite_streamEPS4_NS_15CodeGenFileTypeEbPNS_28MachineModuleInfoWrapperPassE
   fun:ac_create_llvm_passes
}
{
   <insert_a_suppression_name_here>
   Memcheck:Leak
   match-leak-kinds: possible
   fun:_Znwm
   fun:_ZN4llvm13PMDataManager3addEPNS_4PassEb
   fun:_ZN4llvm17PMTopLevelManager12schedulePassEPNS_4PassE
   fun:_ZN4llvm16TargetPassConfig7addPassEPNS_4PassE
   fun:_ZN4llvm16TargetPassConfig7addPassEPKv
   fun:_ZN12_GLOBAL__N_113GCNPassConfig10addPreISelEv
   fun:_ZN4llvm16TargetPassConfig14addISelPrepareEv
   fun:_ZN4llvm16TargetPassConfig13addISelPassesEv
   fun:_ZL23addPassesToGenerateCodeRN4llvm17LLVMTargetMachineERNS_6legacy15PassManagerBaseEbRNS_28MachineModuleInfoWrapperPassE
   fun:_ZN4llvm17LLVMTargetMachine19addPassesToEmitFileERNS_6legacy15PassManagerBaseERNS_17raw_pwrite_streamEPS4_NS_15CodeGenFileTypeEbPNS_28MachineModuleInfoWrapperPassE
   fun:ac_create_llvm_passes
   fun:si_create_llvm_compiler
}
{
   <insert_a_suppression_name_here>
   Memcheck:Leak
   match-leak-kinds: possible
   fun:_Znwm
   fun:_ZN4llvm13PMDataManager3addEPNS_4PassEb
   fun:_ZN4llvm17PMTopLevelManager12schedulePassEPNS_4PassE
   fun:_ZN4llvm17PMTopLevelManager12schedulePassEPNS_4PassE
   fun:_ZN4llvm10RegionPass17assignPassManagerERNS_7PMStackENS_15PassManagerTypeE
   fun:_ZN4llvm17PMTopLevelManager12schedulePassEPNS_4PassE
   fun:_ZN4llvm16TargetPassConfig7addPassEPNS_4PassE
   fun:_ZN12_GLOBAL__N_113GCNPassConfig10addPreISelEv
   fun:_ZN4llvm16TargetPassConfig14addISelPrepareEv
   fun:_ZN4llvm16TargetPassConfig13addISelPassesEv
   fun:_ZL23addPassesToGenerateCodeRN4llvm17LLVMTargetMachineERNS_6legacy15PassManagerBaseEbRNS_28MachineModuleInfoWrapperPassE
   fun:_ZN4llvm17LLVMTargetMachine19addPassesToEmitFileERNS_6legacy15PassManagerBaseERNS_17raw_pwrite_streamEPS4_NS_15CodeGenFileTypeEbPNS_28MachineModuleInfoWrapperPassE
}
{
   <insert_a_suppression_name_here>
   Memcheck:Leak
   match-leak-kinds: possible
   fun:_Znwm
   fun:_ZN4llvm13PMDataManager3addEPNS_4PassEb
   fun:_ZN4llvm10RegionPass17assignPassManagerERNS_7PMStackENS_15PassManagerTypeE
   fun:_ZN4llvm17PMTopLevelManager12schedulePassEPNS_4PassE
   fun:_ZN4llvm16TargetPassConfig7addPassEPNS_4PassE
   fun:_ZN12_GLOBAL__N_113GCNPassConfig10addPreISelEv
   fun:_ZN4llvm16TargetPassConfig14addISelPrepareEv
   fun:_ZN4llvm16TargetPassConfig13addISelPassesEv
   fun:_ZL23addPassesToGenerateCodeRN4llvm17LLVMTargetMachineERNS_6legacy15PassManagerBaseEbRNS_28MachineModuleInfoWrapperPassE
   fun:_ZN4llvm17LLVMTargetMachine19addPassesToEmitFileERNS_6legacy15PassManagerBaseERNS_17raw_pwrite_streamEPS4_NS_15CodeGenFileTypeEbPNS_28MachineModuleInfoWrapperPassE
   fun:ac_create_llvm_passes
   fun:si_create_llvm_compiler
}
{
   <insert_a_suppression_name_here>
   Memcheck:Leak
   match-leak-kinds: possible
   fun:_Znwm
   fun:_ZN4llvm13PMDataManager3addEPNS_4PassEb
   fun:_ZN4llvm17PMTopLevelManager12schedulePassEPNS_4PassE
   fun:_ZN4llvm17PMTopLevelManager12schedulePassEPNS_4PassE
   fun:_ZN4llvm17PMTopLevelManager12schedulePassEPNS_4PassE
   fun:_ZN4llvm17PMTopLevelManager12schedulePassEPNS_4PassE
   fun:_ZN4llvm16TargetPassConfig7addPassEPNS_4PassE
   fun:_ZN12_GLOBAL__N_113GCNPassConfig10addPreISelEv
   fun:_ZN4llvm16TargetPassConfig14addISelPrepareEv
   fun:_ZN4llvm16TargetPassConfig13addISelPassesEv
   fun:_ZL23addPassesToGenerateCodeRN4llvm17LLVMTargetMachineERNS_6legacy15PassManagerBaseEbRNS_28MachineModuleInfoWrapperPassE
   fun:_ZN4llvm17LLVMTargetMachine19addPassesToEmitFileERNS_6legacy15PassManagerBaseERNS_17raw_pwrite_streamEPS4_NS_15CodeGenFileTypeEbPNS_28MachineModuleInfoWrapperPassE
}
{
   <insert_a_suppression_name_here>
   Memcheck:Leak
   match-leak-kinds: possible
   fun:_Znwm
   fun:_ZN4llvm13PMDataManager3addEPNS_4PassEb
   fun:_ZN4llvm17PMTopLevelManager12schedulePassEPNS_4PassE
   fun:_ZN4llvm17PMTopLevelManager12schedulePassEPNS_4PassE
   fun:_ZN4llvm16TargetPassConfig7addPassEPNS_4PassE
   fun:_ZN4llvm16TargetPassConfig7addPassEPKv
   fun:_ZN12_GLOBAL__N_113GCNPassConfig15addInstSelectorEv
   fun:_ZN4llvm16TargetPassConfig17addCoreISelPassesEv
   fun:_ZL23addPassesToGenerateCodeRN4llvm17LLVMTargetMachineERNS_6legacy15PassManagerBaseEbRNS_28MachineModuleInfoWrapperPassE
   fun:_ZN4llvm17LLVMTargetMachine19addPassesToEmitFileERNS_6legacy15PassManagerBaseERNS_17raw_pwrite_streamEPS4_NS_15CodeGenFileTypeEbPNS_28MachineModuleInfoWrapperPassE
   fun:ac_create_llvm_passes
   fun:si_create_llvm_compiler
}
{
   <insert_a_suppression_name_here>
   Memcheck:Leak
   match-leak-kinds: possible
   fun:_Znwm
   fun:_ZN4llvm13PMDataManager3addEPNS_4PassEb
   fun:_ZN4llvm17PMTopLevelManager12schedulePassEPNS_4PassE
   fun:_ZN4llvm17PMTopLevelManager12schedulePassEPNS_4PassE
   fun:_ZN4llvm16TargetPassConfig7addPassEPNS_4PassE
   fun:addPass
   fun:_ZN4llvm16TargetPassConfig25addMachineSSAOptimizationEv
   fun:_ZN12_GLOBAL__N_113GCNPassConfig25addMachineSSAOptimizationEv
   fun:_ZN4llvm16TargetPassConfig16addMachinePassesEv
   fun:_ZL23addPassesToGenerateCodeRN4llvm17LLVMTargetMachineERNS_6legacy15PassManagerBaseEbRNS_28MachineModuleInfoWrapperPassE
   fun:_ZN4llvm17LLVMTargetMachine19addPassesToEmitFileERNS_6legacy15PassManagerBaseERNS_17raw_pwrite_streamEPS4_NS_15CodeGenFileTypeEbPNS_28MachineModuleInfoWrapperPassE
   fun:ac_create_llvm_passes
   fun:si_create_llvm_compiler
}
{
   <insert_a_suppression_name_here>
   Memcheck:Leak
   match-leak-kinds: possible
   fun:_Znwm
   fun:_ZN4llvm13PMDataManager3addEPNS_4PassEb
   fun:_ZN4llvm17PMTopLevelManager12schedulePassEPNS_4PassE
   fun:_ZN4llvm17PMTopLevelManager12schedulePassEPNS_4PassE
   fun:_ZN4llvm17PMTopLevelManager12schedulePassEPNS_4PassE
   fun:_ZN4llvm16TargetPassConfig7addPassEPNS_4PassE
   fun:addPass
   fun:_ZN4llvm16TargetPassConfig25addMachineSSAOptimizationEv
   fun:_ZN12_GLOBAL__N_113GCNPassConfig25addMachineSSAOptimizationEv
   fun:_ZN4llvm16TargetPassConfig16addMachinePassesEv
   fun:_ZL23addPassesToGenerateCodeRN4llvm17LLVMTargetMachineERNS_6legacy15PassManagerBaseEbRNS_28MachineModuleInfoWrapperPassE
   fun:_ZN4llvm17LLVMTargetMachine19addPassesToEmitFileERNS_6legacy15PassManagerBaseERNS_17raw_pwrite_streamEPS4_NS_15CodeGenFileTypeEbPNS_28MachineModuleInfoWrapperPassE
   fun:ac_create_llvm_passes
}
{
   <insert_a_suppression_name_here>
   Memcheck:Leak
   match-leak-kinds: possible
   fun:_Znwm
   fun:_ZN4llvm13PMDataManager3addEPNS_4PassEb
   fun:_ZN4llvm17PMTopLevelManager12schedulePassEPNS_4PassE
   fun:_ZN4llvm17PMTopLevelManager12schedulePassEPNS_4PassE
   fun:_ZN4llvm17PMTopLevelManager12schedulePassEPNS_4PassE
   fun:_ZN4llvm16TargetPassConfig7addPassEPNS_4PassE
   fun:addPass
   fun:_ZN4llvm16TargetPassConfig20addOptimizedRegAllocEv
   fun:_ZN4llvm16TargetPassConfig16addMachinePassesEv
   fun:_ZL23addPassesToGenerateCodeRN4llvm17LLVMTargetMachineERNS_6legacy15PassManagerBaseEbRNS_28MachineModuleInfoWrapperPassE
   fun:_ZN4llvm17LLVMTargetMachine19addPassesToEmitFileERNS_6legacy15PassManagerBaseERNS_17raw_pwrite_streamEPS4_NS_15CodeGenFileTypeEbPNS_28MachineModuleInfoWrapperPassE
   fun:ac_create_llvm_passes
   fun:si_create_llvm_compiler
}
{
   <insert_a_suppression_name_here>
   Memcheck:Leak
   match-leak-kinds: possible
   fun:_Znwm
   fun:_ZN4llvm13PMDataManager3addEPNS_4PassEb
   fun:_ZN4llvm17PMTopLevelManager12schedulePassEPNS_4PassE
   fun:_ZN4llvm16TargetPassConfig7addPassEPNS_4PassE
   fun:_ZN4llvm16TargetPassConfig7addPassEPKv
   fun:_ZN12_GLOBAL__N_113GCNPassConfig31addRegAssignAndRewriteOptimizedEv
   fun:_ZN4llvm16TargetPassConfig20addOptimizedRegAllocEv
   fun:_ZN4llvm16TargetPassConfig16addMachinePassesEv
   fun:_ZL23addPassesToGenerateCodeRN4llvm17LLVMTargetMachineERNS_6legacy15PassManagerBaseEbRNS_28MachineModuleInfoWrapperPassE
   fun:_ZN4llvm17LLVMTargetMachine19addPassesToEmitFileERNS_6legacy15PassManagerBaseERNS_17raw_pwrite_streamEPS4_NS_15CodeGenFileTypeEbPNS_28MachineModuleInfoWrapperPassE
   fun:ac_create_llvm_passes
   fun:si_create_llvm_compiler
}
{
   <insert_a_suppression_name_here>
   Memcheck:Leak
   match-leak-kinds: possible
   fun:_Znwm
   fun:_ZN4llvm13PMDataManager3addEPNS_4PassEb
   fun:_ZN4llvm17PMTopLevelManager12schedulePassEPNS_4PassE
   fun:_ZN4llvm16TargetPassConfig7addPassEPNS_4PassE
   fun:_ZN4llvm16TargetPassConfig7addPassEPKv
   fun:addPreRewrite
   fun:_ZN12_GLOBAL__N_113GCNPassConfig31addRegAssignAndRewriteOptimizedEv
   fun:_ZN4llvm16TargetPassConfig20addOptimizedRegAllocEv
   fun:_ZN4llvm16TargetPassConfig16addMachinePassesEv
   fun:_ZL23addPassesToGenerateCodeRN4llvm17LLVMTargetMachineERNS_6legacy15PassManagerBaseEbRNS_28MachineModuleInfoWrapperPassE
   fun:_ZN4llvm17LLVMTargetMachine19addPassesToEmitFileERNS_6legacy15PassManagerBaseERNS_17raw_pwrite_streamEPS4_NS_15CodeGenFileTypeEbPNS_28MachineModuleInfoWrapperPassE
   fun:ac_create_llvm_passes
   fun:si_create_llvm_compiler
}
{
   <insert_a_suppression_name_here>
   Memcheck:Leak
   match-leak-kinds: possible
   fun:_Znwm
   fun:_ZN4llvm13PMDataManager3addEPNS_4PassEb
   fun:_ZN4llvm17PMTopLevelManager12schedulePassEPNS_4PassE
   fun:_ZN4llvm17PMTopLevelManager12schedulePassEPNS_4PassE
   fun:_ZN4llvm17PMTopLevelManager12schedulePassEPNS_4PassE
   fun:_ZN4llvm16TargetPassConfig7addPassEPNS_4PassE
   fun:_ZN12_GLOBAL__N_113GCNPassConfig14addPreEmitPassEv
   fun:_ZN4llvm16TargetPassConfig16addMachinePassesEv
   fun:_ZL23addPassesToGenerateCodeRN4llvm17LLVMTargetMachineERNS_6legacy15PassManagerBaseEbRNS_28MachineModuleInfoWrapperPassE
   fun:_ZN4llvm17LLVMTargetMachine19addPassesToEmitFileERNS_6legacy15PassManagerBaseERNS_17raw_pwrite_streamEPS4_NS_15CodeGenFileTypeEbPNS_28MachineModuleInfoWrapperPassE
   fun:ac_create_llvm_passes
   fun:si_create_llvm_compiler
}
{
   <insert_a_suppression_name_here>
   Memcheck:Leak
   match-leak-kinds: possible
   fun:calloc
   fun:amdgpu_va_range_alloc2
   fun:amdgpu_create_bo
   fun:amdgpu_bo_create
   fun:amdgpu_bo_slab_alloc
   fun:pb_slab_alloc_reclaimed
   fun:amdgpu_bo_create
   fun:si_alloc_resource
   fun:si_buffer_create
   fun:pipe_aligned_buffer_create
   fun:si_aligned_buffer_create
   fun:si_create_context
   fun:radeonsi_screen_create_impl
}
{
   <insert_a_suppression_name_here>
   Memcheck:Leak
   match-leak-kinds: possible
   fun:calloc
   fun:amdgpu_va_range_alloc2
   fun:amdgpu_create_bo
   fun:amdgpu_bo_create
   fun:amdgpu_bo_slab_alloc
   fun:pb_slab_alloc_reclaimed
   fun:amdgpu_bo_create
   fun:_ZL20amdgpu_ib_new_bufferP13amdgpu_winsysP9amdgpu_ibP9amdgpu_cs
   fun:_ZL17amdgpu_get_new_ibP13amdgpu_winsysP13radeon_cmdbufP9amdgpu_ibP9amdgpu_cs
   fun:_ZL16amdgpu_cs_createP13radeon_cmdbufP17radeon_winsys_ctx11amd_ip_typePFvPvjPP17pipe_fence_handleES4_
   fun:si_create_context
   fun:radeonsi_screen_create_impl
}
{
   <insert_a_suppression_name_here>
   Memcheck:Leak
   match-leak-kinds: possible
   fun:calloc
   fun:amdgpu_va_range_alloc2
   fun:amdgpu_create_bo
   fun:amdgpu_bo_create
   fun:amdgpu_bo_slab_alloc
   fun:pb_slab_alloc_reclaimed
   fun:amdgpu_bo_create
   fun:si_alloc_resource
   fun:si_buffer_create
   fun:pipe_buffer_create
   fun:si_create_context
   fun:radeonsi_screen_create_impl
   fun:amdgpu_winsys_create
}
{
   <insert_a_suppression_name_here>
   Memcheck:Leak
   match-leak-kinds: possible
   fun:calloc
   fun:si_create_sampler_state
   fun:util_blitter_create
   fun:si_create_context
   fun:si_pipe_create_context
   fun:st_api_create_context
   fun:dri_create_context
   fun:driCreateContextAttribs
   fun:dri3_create_context_attribs
   fun:dri_common_create_context
   fun:CreateContext
   fun:glXCreateContext
}
{
   <insert_a_suppression_name_here>
   Memcheck:Leak
   match-leak-kinds: possible
   fun:calloc
   fun:_mesa_init_shader_includes
   fun:_mesa_alloc_shared_state
   fun:_mesa_initialize_context
   fun:st_create_context
   fun:st_api_create_context
   fun:dri_create_context
   fun:driCreateContextAttribs
   fun:dri3_create_context_attribs
   fun:dri_common_create_context
   fun:CreateContext
   fun:glXCreateContext
}
{
   <insert_a_suppression_name_here>
   Memcheck:Leak
   match-leak-kinds: possible
   fun:calloc
   fun:amdgpu_va_range_alloc2
   fun:amdgpu_create_bo
   fun:amdgpu_bo_create
   fun:si_alloc_resource
   fun:si_texture_create_object
   fun:si_texture_create_with_modifier
   fun:dri2_create_image
   fun:dri3_alloc_render_buffer
   fun:dri3_get_buffer.isra.0
   fun:loader_dri3_get_buffers
   fun:dri_image_drawable_get_buffers
}
{
   <insert_a_suppression_name_here>
   Memcheck:Leak
   match-leak-kinds: possible
   fun:calloc
   fun:amdgpu_va_range_alloc2
   fun:amdgpu_create_bo
   fun:amdgpu_bo_create
   fun:amdgpu_bo_slab_alloc
   fun:pb_slab_alloc_reclaimed
   fun:amdgpu_bo_create
   fun:si_alloc_resource
   fun:si_buffer_create
   fun:u_upload_alloc_buffer
   fun:u_upload_alloc
   fun:si_upload_descriptors
   fun:si_emit_compute_shader_pointers
}
{
   <insert_a_suppression_name_here>
   Memcheck:Leak
   match-leak-kinds: possible
   fun:calloc
   fun:amdgpu_va_range_alloc2
   fun:amdgpu_create_bo
   fun:amdgpu_bo_create
   fun:amdgpu_bo_slab_alloc
   fun:pb_slab_alloc_reclaimed
   fun:amdgpu_bo_create
   fun:si_alloc_resource
   fun:si_buffer_create
   fun:pipe_buffer_create
   fun:pipe_buffer_create_with_data
   fun:si_set_framebuffer_state
   fun:tc_call_set_framebuffer_state
   fun:batch_execute
   fun:tc_batch_execute
}
{
   <insert_a_suppression_name_here>
   Memcheck:Leak
   match-leak-kinds: possible
   fun:calloc
   fun:amdgpu_va_range_alloc2
   fun:amdgpu_create_bo
   fun:amdgpu_bo_create
   fun:si_alloc_resource
   fun:si_texture_create_object
   fun:si_texture_create_with_modifier
   fun:dri2_allocate_textures
   fun:dri_st_framebuffer_validate
   fun:st_framebuffer_validate
   fun:st_api_make_current
   fun:dri_make_current
}
{
   <insert_a_suppression_name_here>
   Memcheck:Leak
   match-leak-kinds: possible
   fun:calloc
   fun:amdgpu_va_range_alloc2
   fun:amdgpu_create_bo
   fun:amdgpu_bo_create
   fun:si_alloc_resource
   fun:si_buffer_create
   fun:bufferobj_data
   fun:_mesa_bufferobj_data
   fun:vbo_exec_vtx_map
   fun:vbo_exec_wrap_upgrade_vertex
   fun:_mesa_Color4ub
   fun:_mesa_unmarshal_Color4ub
   fun:glthread_unmarshal_batch
}
{
   <insert_a_suppression_name_here>
   Memcheck:Leak
   match-leak-kinds: possible
   fun:_Znwm
   fun:_ZN4llvm17PMTopLevelManager12schedulePassEPNS_4PassE
   fun:ac_create_passmgr
   fun:ac_init_llvm_compiler
   fun:si_create_llvm_compiler
   fun:si_shader_select_with_key<false, si_shader_key_ge>
   fun:si_shader_select
   fun:_Z17si_update_shadersIL13amd_gfx_level11EL11si_has_tess0EL9si_has_gs0EL10si_has_ngg0EEbP10si_context
   fun:si_draw<(amd_gfx_level)11, (si_has_tess)0, (si_has_gs)0, (si_has_ngg)0, (si_is_draw_vertex_state)0, (si_has_sh_pairs_packed)0, (util_popcnt)0>
   fun:_Z11si_draw_vboIL13amd_gfx_level11EL11si_has_tess0EL9si_has_gs0EL10si_has_ngg0EL22si_has_sh_pairs_packed0EEvP12pipe_contextPK14pipe_draw_infojPK23pipe_draw_indirect_infoPK26pipe_draw_start_count_biasj
   fun:_ZL17si_draw_rectangleP15blitter_contextPvPFS1_S0_Eiiiifj19blitter_attrib_typePK14blitter_attrib
   fun:util_blitter_custom_color
   fun:si_blit_decompress_color
   fun:si_flush_resource
   fun:si_flush_resource
}
{
   <insert_a_suppression_name_here>
   Memcheck:Leak
   match-leak-kinds: possible
   fun:_Znwm
   fun:_ZN4llvm29createAlwaysInlinerLegacyPassEb
   fun:ac_create_passmgr
   fun:ac_init_llvm_compiler
   fun:si_create_llvm_compiler
   fun:si_shader_select_with_key<false, si_shader_key_ge>
   fun:si_shader_select
   fun:_Z17si_update_shadersIL13amd_gfx_level11EL11si_has_tess0EL9si_has_gs0EL10si_has_ngg0EEbP10si_context
   fun:si_draw<(amd_gfx_level)11, (si_has_tess)0, (si_has_gs)0, (si_has_ngg)0, (si_is_draw_vertex_state)0, (si_has_sh_pairs_packed)0, (util_popcnt)0>
   fun:_Z11si_draw_vboIL13amd_gfx_level11EL11si_has_tess0EL9si_has_gs0EL10si_has_ngg0EL22si_has_sh_pairs_packed0EEvP12pipe_contextPK14pipe_draw_infojPK23pipe_draw_indirect_infoPK26pipe_draw_start_count_biasj
   fun:_ZL17si_draw_rectangleP15blitter_contextPvPFS1_S0_Eiiiifj19blitter_attrib_typePK14blitter_attrib
   fun:util_blitter_custom_color
   fun:si_blit_decompress_color
   fun:si_flush_resource
   fun:si_flush_resource
}
{
   <insert_a_suppression_name_here>
   Memcheck:Leak
   match-leak-kinds: possible
   fun:_Znwm
   fun:_ZN4llvm13PMDataManager3addEPNS_4PassEb
   fun:_ZN4llvm17PMTopLevelManager12schedulePassEPNS_4PassE
   fun:ac_create_passmgr
   fun:ac_init_llvm_compiler
   fun:si_create_llvm_compiler
   fun:si_shader_select_with_key<false, si_shader_key_ge>
   fun:si_shader_select
   fun:_Z17si_update_shadersIL13amd_gfx_level11EL11si_has_tess0EL9si_has_gs0EL10si_has_ngg0EEbP10si_context
   fun:si_draw<(amd_gfx_level)11, (si_has_tess)0, (si_has_gs)0, (si_has_ngg)0, (si_is_draw_vertex_state)0, (si_has_sh_pairs_packed)0, (util_popcnt)0>
   fun:_Z11si_draw_vboIL13amd_gfx_level11EL11si_has_tess0EL9si_has_gs0EL10si_has_ngg0EL22si_has_sh_pairs_packed0EEvP12pipe_contextPK14pipe_draw_infojPK23pipe_draw_indirect_infoPK26pipe_draw_start_count_biasj
   fun:_ZL17si_draw_rectangleP15blitter_contextPvPFS1_S0_Eiiiifj19blitter_attrib_typePK14blitter_attrib
   fun:util_blitter_custom_color
   fun:si_blit_decompress_color
}
{
   <insert_a_suppression_name_here>
   Memcheck:Leak
   match-leak-kinds: possible
   fun:_Znwm
   fun:_ZN4llvm13PMDataManager3addEPNS_4PassEb
   fun:_ZN4llvm17PMTopLevelManager12schedulePassEPNS_4PassE
   fun:_ZN4llvm17PMTopLevelManager12schedulePassEPNS_4PassE
   fun:_ZN4llvm17PMTopLevelManager12schedulePassEPNS_4PassE
   fun:add
   fun:_ZN12_GLOBAL__N_113MPPassManager25addLowerLevelRequiredPassEPN4llvm4PassES3_
   fun:_ZN4llvm13PMDataManager3addEPNS_4PassEb
   fun:_ZN4llvm17PMTopLevelManager12schedulePassEPNS_4PassE
   fun:ac_create_passmgr
   fun:ac_init_llvm_compiler
   fun:si_create_llvm_compiler
   fun:si_shader_select_with_key<false, si_shader_key_ge>
   fun:si_shader_select
}
{
   <insert_a_suppression_name_here>
   Memcheck:Leak
   match-leak-kinds: possible
   fun:_Znwm
   fun:_ZN4llvm13PMDataManager3addEPNS_4PassEb
   fun:_ZN4llvm17PMTopLevelManager12schedulePassEPNS_4PassE
   fun:_ZN4llvm17PMTopLevelManager12schedulePassEPNS_4PassE
   fun:add
   fun:_ZN12_GLOBAL__N_113MPPassManager25addLowerLevelRequiredPassEPN4llvm4PassES3_
   fun:_ZN4llvm13PMDataManager3addEPNS_4PassEb
   fun:_ZN4llvm17PMTopLevelManager12schedulePassEPNS_4PassE
   fun:ac_create_passmgr
   fun:ac_init_llvm_compiler
   fun:si_create_llvm_compiler
   fun:si_shader_select_with_key<false, si_shader_key_ge>
   fun:si_shader_select
   fun:_Z17si_update_shadersIL13amd_gfx_level11EL11si_has_tess0EL9si_has_gs0EL10si_has_ngg0EEbP10si_context
}
{
   <insert_a_suppression_name_here>
   Memcheck:Leak
   match-leak-kinds: possible
   fun:_Znwm
   fun:_ZN4llvm13PMDataManager3addEPNS_4PassEb
   fun:_ZN4llvm17PMTopLevelManager12schedulePassEPNS_4PassE
   fun:add
   fun:_ZN12_GLOBAL__N_113MPPassManager25addLowerLevelRequiredPassEPN4llvm4PassES3_
   fun:_ZN4llvm13PMDataManager3addEPNS_4PassEb
   fun:_ZN4llvm17PMTopLevelManager12schedulePassEPNS_4PassE
   fun:ac_create_passmgr
   fun:ac_init_llvm_compiler
   fun:si_create_llvm_compiler
   fun:si_shader_select_with_key<false, si_shader_key_ge>
   fun:si_shader_select
   fun:_Z17si_update_shadersIL13amd_gfx_level11EL11si_has_tess0EL9si_has_gs0EL10si_has_ngg0EEbP10si_context
   fun:si_draw<(amd_gfx_level)11, (si_has_tess)0, (si_has_gs)0, (si_has_ngg)0, (si_is_draw_vertex_state)0, (si_has_sh_pairs_packed)0, (util_popcnt)0>
   fun:_Z11si_draw_vboIL13amd_gfx_level11EL11si_has_tess0EL9si_has_gs0EL10si_has_ngg0EL22si_has_sh_pairs_packed0EEvP12pipe_contextPK14pipe_draw_infojPK23pipe_draw_indirect_infoPK26pipe_draw_start_count_biasj
}
{
   <insert_a_suppression_name_here>
   Memcheck:Leak
   match-leak-kinds: possible
   fun:_Znwm
   fun:_ZN4llvm21createBarrierNoopPassEv
   fun:ac_create_passmgr
   fun:ac_init_llvm_compiler
   fun:si_create_llvm_compiler
   fun:si_shader_select_with_key<false, si_shader_key_ge>
   fun:si_shader_select
   fun:_Z17si_update_shadersIL13amd_gfx_level11EL11si_has_tess0EL9si_has_gs0EL10si_has_ngg0EEbP10si_context
   fun:si_draw<(amd_gfx_level)11, (si_has_tess)0, (si_has_gs)0, (si_has_ngg)0, (si_is_draw_vertex_state)0, (si_has_sh_pairs_packed)0, (util_popcnt)0>
   fun:_Z11si_draw_vboIL13amd_gfx_level11EL11si_has_tess0EL9si_has_gs0EL10si_has_ngg0EL22si_has_sh_pairs_packed0EEvP12pipe_contextPK14pipe_draw_infojPK23pipe_draw_indirect_infoPK26pipe_draw_start_count_biasj
   fun:_ZL17si_draw_rectangleP15blitter_contextPvPFS1_S0_Eiiiifj19blitter_attrib_typePK14blitter_attrib
   fun:util_blitter_custom_color
   fun:si_blit_decompress_color
   fun:si_flush_resource
   fun:si_flush_resource
}
{
   <insert_a_suppression_name_here>
   Memcheck:Leak
   match-leak-kinds: possible
   fun:_Znwm
   fun:_ZN4llvm14createSROAPassEb
   fun:ac_create_passmgr
   fun:ac_init_llvm_compiler
   fun:si_create_llvm_compiler
   fun:si_shader_select_with_key<false, si_shader_key_ge>
   fun:si_shader_select
   fun:_Z17si_update_shadersIL13amd_gfx_level11EL11si_has_tess0EL9si_has_gs0EL10si_has_ngg0EEbP10si_context
   fun:si_draw<(amd_gfx_level)11, (si_has_tess)0, (si_has_gs)0, (si_has_ngg)0, (si_is_draw_vertex_state)0, (si_has_sh_pairs_packed)0, (util_popcnt)0>
   fun:_Z11si_draw_vboIL13amd_gfx_level11EL11si_has_tess0EL9si_has_gs0EL10si_has_ngg0EL22si_has_sh_pairs_packed0EEvP12pipe_contextPK14pipe_draw_infojPK23pipe_draw_indirect_infoPK26pipe_draw_start_count_biasj
   fun:_ZL17si_draw_rectangleP15blitter_contextPvPFS1_S0_Eiiiifj19blitter_attrib_typePK14blitter_attrib
   fun:util_blitter_custom_color
   fun:si_blit_decompress_color
   fun:si_flush_resource
   fun:si_flush_resource
}
{
   <insert_a_suppression_name_here>
   Memcheck:Leak
   match-leak-kinds: possible
   fun:_Znwm
   fun:_ZN4llvm13PMDataManager3addEPNS_4PassEb
   fun:_ZN4llvm12FunctionPass17assignPassManagerERNS_7PMStackENS_15PassManagerTypeE
   fun:_ZN4llvm17PMTopLevelManager12schedulePassEPNS_4PassE
   fun:_ZN4llvm17PMTopLevelManager12schedulePassEPNS_4PassE
   fun:ac_create_passmgr
   fun:ac_init_llvm_compiler
   fun:si_create_llvm_compiler
   fun:si_shader_select_with_key<false, si_shader_key_ge>
   fun:si_shader_select
   fun:_Z17si_update_shadersIL13amd_gfx_level11EL11si_has_tess0EL9si_has_gs0EL10si_has_ngg0EEbP10si_context
   fun:si_draw<(amd_gfx_level)11, (si_has_tess)0, (si_has_gs)0, (si_has_ngg)0, (si_is_draw_vertex_state)0, (si_has_sh_pairs_packed)0, (util_popcnt)0>
   fun:_Z11si_draw_vboIL13amd_gfx_level11EL11si_has_tess0EL9si_has_gs0EL10si_has_ngg0EL22si_has_sh_pairs_packed0EEvP12pipe_contextPK14pipe_draw_infojPK23pipe_draw_indirect_infoPK26pipe_draw_start_count_biasj
   fun:_ZL17si_draw_rectangleP15blitter_contextPvPFS1_S0_Eiiiifj19blitter_attrib_typePK14blitter_attrib
}
{
   <insert_a_suppression_name_here>
   Memcheck:Leak
   match-leak-kinds: possible
   fun:_Znwm
   fun:_ZN4llvm13PMDataManager3addEPNS_4PassEb
   fun:_ZN4llvm17PMTopLevelManager12schedulePassEPNS_4PassE
   fun:_ZN4llvm17PMTopLevelManager12schedulePassEPNS_4PassE
   fun:ac_create_passmgr
   fun:ac_init_llvm_compiler
   fun:si_create_llvm_compiler
   fun:si_shader_select_with_key<false, si_shader_key_ge>
   fun:si_shader_select
   fun:_Z17si_update_shadersIL13amd_gfx_level11EL11si_has_tess0EL9si_has_gs0EL10si_has_ngg0EEbP10si_context
   fun:si_draw<(amd_gfx_level)11, (si_has_tess)0, (si_has_gs)0, (si_has_ngg)0, (si_is_draw_vertex_state)0, (si_has_sh_pairs_packed)0, (util_popcnt)0>
   fun:_Z11si_draw_vboIL13amd_gfx_level11EL11si_has_tess0EL9si_has_gs0EL10si_has_ngg0EL22si_has_sh_pairs_packed0EEvP12pipe_contextPK14pipe_draw_infojPK23pipe_draw_indirect_infoPK26pipe_draw_start_count_biasj
   fun:_ZL17si_draw_rectangleP15blitter_contextPvPFS1_S0_Eiiiifj19blitter_attrib_typePK14blitter_attrib
   fun:util_blitter_custom_color
}
{
   <insert_a_suppression_name_here>
   Memcheck:Leak
   match-leak-kinds: possible
   fun:_Znwm
   fun:_ZN4llvm13PMDataManager3addEPNS_4PassEb
   fun:_ZN4llvm17PMTopLevelManager12schedulePassEPNS_4PassE
   fun:_ZN4llvm17PMTopLevelManager12schedulePassEPNS_4PassE
   fun:_ZN4llvm17PMTopLevelManager12schedulePassEPNS_4PassE
   fun:_ZN4llvm17PMTopLevelManager12schedulePassEPNS_4PassE
   fun:ac_create_passmgr
   fun:ac_init_llvm_compiler
   fun:si_create_llvm_compiler
   fun:si_shader_select_with_key<false, si_shader_key_ge>
   fun:si_shader_select
   fun:_Z17si_update_shadersIL13amd_gfx_level11EL11si_has_tess0EL9si_has_gs0EL10si_has_ngg0EEbP10si_context
   fun:si_draw<(amd_gfx_level)11, (si_has_tess)0, (si_has_gs)0, (si_has_ngg)0, (si_is_draw_vertex_state)0, (si_has_sh_pairs_packed)0, (util_popcnt)0>
   fun:_Z11si_draw_vboIL13amd_gfx_level11EL11si_has_tess0EL9si_has_gs0EL10si_has_ngg0EL22si_has_sh_pairs_packed0EEvP12pipe_contextPK14pipe_draw_infojPK23pipe_draw_indirect_infoPK26pipe_draw_start_count_biasj
}
{
   <insert_a_suppression_name_here>
   Memcheck:Leak
   match-leak-kinds: possible
   fun:_Znwm
   fun:_ZN4llvm17PMTopLevelManager12schedulePassEPNS_4PassE
   fun:_ZN4llvm17PMTopLevelManager12schedulePassEPNS_4PassE
   fun:ac_create_passmgr
   fun:ac_init_llvm_compiler
   fun:si_create_llvm_compiler
   fun:si_shader_select_with_key<false, si_shader_key_ge>
   fun:si_shader_select
   fun:_Z17si_update_shadersIL13amd_gfx_level11EL11si_has_tess0EL9si_has_gs0EL10si_has_ngg0EEbP10si_context
   fun:si_draw<(amd_gfx_level)11, (si_has_tess)0, (si_has_gs)0, (si_has_ngg)0, (si_is_draw_vertex_state)0, (si_has_sh_pairs_packed)0, (util_popcnt)0>
   fun:_Z11si_draw_vboIL13amd_gfx_level11EL11si_has_tess0EL9si_has_gs0EL10si_has_ngg0EL22si_has_sh_pairs_packed0EEvP12pipe_contextPK14pipe_draw_infojPK23pipe_draw_indirect_infoPK26pipe_draw_start_count_biasj
   fun:_ZL17si_draw_rectangleP15blitter_contextPvPFS1_S0_Eiiiifj19blitter_attrib_typePK14blitter_attrib
   fun:util_blitter_custom_color
   fun:si_blit_decompress_color
}
{
   <insert_a_suppression_name_here>
   Memcheck:Leak
   match-leak-kinds: possible
   fun:_Znwm
   fun:_ZN4llvm15callDefaultCtorIN12_GLOBAL__N_112LoopSimplifyELb1EEEPNS_4PassEv
   fun:createPass
   fun:_ZN4llvm17PMTopLevelManager12schedulePassEPNS_4PassE
   fun:ac_create_passmgr
   fun:ac_init_llvm_compiler
   fun:si_create_llvm_compiler
   fun:si_shader_select_with_key<false, si_shader_key_ge>
   fun:si_shader_select
   fun:_Z17si_update_shadersIL13amd_gfx_level11EL11si_has_tess0EL9si_has_gs0EL10si_has_ngg0EEbP10si_context
   fun:si_draw<(amd_gfx_level)11, (si_has_tess)0, (si_has_gs)0, (si_has_ngg)0, (si_is_draw_vertex_state)0, (si_has_sh_pairs_packed)0, (util_popcnt)0>
   fun:_Z11si_draw_vboIL13amd_gfx_level11EL11si_has_tess0EL9si_has_gs0EL10si_has_ngg0EL22si_has_sh_pairs_packed0EEvP12pipe_contextPK14pipe_draw_infojPK23pipe_draw_indirect_infoPK26pipe_draw_start_count_biasj
   fun:_ZL17si_draw_rectangleP15blitter_contextPvPFS1_S0_Eiiiifj19blitter_attrib_typePK14blitter_attrib
   fun:util_blitter_custom_color
   fun:si_blit_decompress_color
}
{
   <insert_a_suppression_name_here>
   Memcheck:Leak
   match-leak-kinds: possible
   fun:_Znwm
   fun:_ZN4llvm15callDefaultCtorINS_21LCSSAVerificationPassELb1EEEPNS_4PassEv
   fun:createPass
   fun:_ZN4llvm17PMTopLevelManager12schedulePassEPNS_4PassE
   fun:_ZN4llvm17PMTopLevelManager12schedulePassEPNS_4PassE
   fun:ac_create_passmgr
   fun:ac_init_llvm_compiler
   fun:si_create_llvm_compiler
   fun:si_shader_select_with_key<false, si_shader_key_ge>
   fun:si_shader_select
   fun:_Z17si_update_shadersIL13amd_gfx_level11EL11si_has_tess0EL9si_has_gs0EL10si_has_ngg0EEbP10si_context
   fun:si_draw<(amd_gfx_level)11, (si_has_tess)0, (si_has_gs)0, (si_has_ngg)0, (si_is_draw_vertex_state)0, (si_has_sh_pairs_packed)0, (util_popcnt)0>
   fun:_Z11si_draw_vboIL13amd_gfx_level11EL11si_has_tess0EL9si_has_gs0EL10si_has_ngg0EL22si_has_sh_pairs_packed0EEvP12pipe_contextPK14pipe_draw_infojPK23pipe_draw_indirect_infoPK26pipe_draw_start_count_biasj
   fun:_ZL17si_draw_rectangleP15blitter_contextPvPFS1_S0_Eiiiifj19blitter_attrib_typePK14blitter_attrib
   fun:util_blitter_custom_color
}
{
   <insert_a_suppression_name_here>
   Memcheck:Leak
   match-leak-kinds: possible
   fun:_Znwm
   fun:_ZN4llvm13PMDataManager3addEPNS_4PassEb
   fun:_ZN4llvm8LoopPass17assignPassManagerERNS_7PMStackENS_15PassManagerTypeE
   fun:_ZN4llvm17PMTopLevelManager12schedulePassEPNS_4PassE
   fun:ac_create_passmgr
   fun:ac_init_llvm_compiler
   fun:si_create_llvm_compiler
   fun:si_shader_select_with_key<false, si_shader_key_ge>
   fun:si_shader_select
   fun:_Z17si_update_shadersIL13amd_gfx_level11EL11si_has_tess0EL9si_has_gs0EL10si_has_ngg0EEbP10si_context
   fun:si_draw<(amd_gfx_level)11, (si_has_tess)0, (si_has_gs)0, (si_has_ngg)0, (si_is_draw_vertex_state)0, (si_has_sh_pairs_packed)0, (util_popcnt)0>
   fun:_Z11si_draw_vboIL13amd_gfx_level11EL11si_has_tess0EL9si_has_gs0EL10si_has_ngg0EL22si_has_sh_pairs_packed0EEvP12pipe_contextPK14pipe_draw_infojPK23pipe_draw_indirect_infoPK26pipe_draw_start_count_biasj
   fun:_ZL17si_draw_rectangleP15blitter_contextPvPFS1_S0_Eiiiifj19blitter_attrib_typePK14blitter_attrib
   fun:util_blitter_custom_color
}
{
   <insert_a_suppression_name_here>
   Memcheck:Leak
   match-leak-kinds: possible
   fun:_Znwm
   fun:allocate
   fun:allocate
   fun:_M_allocate
   fun:_M_realloc_append<llvm::PMDataManager* const&>
   fun:push_back
   fun:_ZN4llvm7PMStack4pushEPNS_13PMDataManagerE
   fun:_ZN4llvm8LoopPass17assignPassManagerERNS_7PMStackENS_15PassManagerTypeE
   fun:_ZN4llvm17PMTopLevelManager12schedulePassEPNS_4PassE
   fun:ac_create_passmgr
   fun:ac_init_llvm_compiler
   fun:si_create_llvm_compiler
   fun:si_shader_select_with_key<false, si_shader_key_ge>
   fun:si_shader_select
   fun:_Z17si_update_shadersIL13amd_gfx_level11EL11si_has_tess0EL9si_has_gs0EL10si_has_ngg0EEbP10si_context
   fun:si_draw<(amd_gfx_level)11, (si_has_tess)0, (si_has_gs)0, (si_has_ngg)0, (si_is_draw_vertex_state)0, (si_has_sh_pairs_packed)0, (util_popcnt)0>
   fun:_Z11si_draw_vboIL13amd_gfx_level11EL11si_has_tess0EL9si_has_gs0EL10si_has_ngg0EL22si_has_sh_pairs_packed0EEvP12pipe_contextPK14pipe_draw_infojPK23pipe_draw_indirect_infoPK26pipe_draw_start_count_biasj
   fun:_ZL17si_draw_rectangleP15blitter_contextPvPFS1_S0_Eiiiifj19blitter_attrib_typePK14blitter_attrib
   fun:util_blitter_custom_color
}
{
   <insert_a_suppression_name_here>
   Memcheck:Leak
   match-leak-kinds: possible
   fun:_Znwm
   fun:_ZN4llvm18createEarlyCSEPassEb
   fun:ac_create_passmgr
   fun:ac_init_llvm_compiler
   fun:si_create_llvm_compiler
   fun:si_shader_select_with_key<false, si_shader_key_ge>
   fun:si_shader_select
   fun:_Z17si_update_shadersIL13amd_gfx_level11EL11si_has_tess0EL9si_has_gs0EL10si_has_ngg0EEbP10si_context
   fun:si_draw<(amd_gfx_level)11, (si_has_tess)0, (si_has_gs)0, (si_has_ngg)0, (si_is_draw_vertex_state)0, (si_has_sh_pairs_packed)0, (util_popcnt)0>
   fun:_Z11si_draw_vboIL13amd_gfx_level11EL11si_has_tess0EL9si_has_gs0EL10si_has_ngg0EL22si_has_sh_pairs_packed0EEvP12pipe_contextPK14pipe_draw_infojPK23pipe_draw_indirect_infoPK26pipe_draw_start_count_biasj
   fun:_ZL17si_draw_rectangleP15blitter_contextPvPFS1_S0_Eiiiifj19blitter_attrib_typePK14blitter_attrib
   fun:util_blitter_custom_color
   fun:si_blit_decompress_color
   fun:si_flush_resource
   fun:si_flush_resource
}
{
   <insert_a_suppression_name_here>
   Memcheck:Leak
   match-leak-kinds: possible
   fun:_Znwm
   fun:_ZN4llvm13PMDataManager3addEPNS_4PassEb
   fun:_ZN4llvm17PMTopLevelManager12schedulePassEPNS_4PassE
   fun:_ZN4llvm17PMTopLevelManager12schedulePassEPNS_4PassE
   fun:_ZN4llvm17PMTopLevelManager12schedulePassEPNS_4PassE
   fun:ac_create_passmgr
   fun:ac_init_llvm_compiler
   fun:si_create_llvm_compiler
   fun:si_shader_select_with_key<false, si_shader_key_ge>
   fun:si_shader_select
   fun:_Z17si_update_shadersIL13amd_gfx_level11EL11si_has_tess0EL9si_has_gs0EL10si_has_ngg0EEbP10si_context
   fun:si_draw<(amd_gfx_level)11, (si_has_tess)0, (si_has_gs)0, (si_has_ngg)0, (si_is_draw_vertex_state)0, (si_has_sh_pairs_packed)0, (util_popcnt)0>
   fun:_Z11si_draw_vboIL13amd_gfx_level11EL11si_has_tess0EL9si_has_gs0EL10si_has_ngg0EL22si_has_sh_pairs_packed0EEvP12pipe_contextPK14pipe_draw_infojPK23pipe_draw_indirect_infoPK26pipe_draw_start_count_biasj
   fun:_ZL17si_draw_rectangleP15blitter_contextPvPFS1_S0_Eiiiifj19blitter_attrib_typePK14blitter_attrib
}
{
   <insert_a_suppression_name_here>
   Memcheck:Leak
   match-leak-kinds: possible
   fun:_Znwm
   fun:_ZN4llvm17PMTopLevelManager12schedulePassEPNS_4PassE
   fun:_ZL23addPassesToGenerateCodeRN4llvm17LLVMTargetMachineERNS_6legacy15PassManagerBaseEbRNS_28MachineModuleInfoWrapperPassE
   fun:_ZN4llvm17LLVMTargetMachine19addPassesToEmitFileERNS_6legacy15PassManagerBaseERNS_17raw_pwrite_streamEPS4_NS_15CodeGenFileTypeEbPNS_28MachineModuleInfoWrapperPassE
   fun:ac_create_llvm_passes
   fun:si_create_llvm_compiler
   fun:si_shader_select_with_key<false, si_shader_key_ge>
   fun:si_shader_select
   fun:_Z17si_update_shadersIL13amd_gfx_level11EL11si_has_tess0EL9si_has_gs0EL10si_has_ngg0EEbP10si_context
   fun:si_draw<(amd_gfx_level)11, (si_has_tess)0, (si_has_gs)0, (si_has_ngg)0, (si_is_draw_vertex_state)0, (si_has_sh_pairs_packed)0, (util_popcnt)0>
   fun:_Z11si_draw_vboIL13amd_gfx_level11EL11si_has_tess0EL9si_has_gs0EL10si_has_ngg0EL22si_has_sh_pairs_packed0EEvP12pipe_contextPK14pipe_draw_infojPK23pipe_draw_indirect_infoPK26pipe_draw_start_count_biasj
   fun:_ZL17si_draw_rectangleP15blitter_contextPvPFS1_S0_Eiiiifj19blitter_attrib_typePK14blitter_attrib
   fun:util_blitter_custom_color
   fun:si_blit_decompress_color
}
{
   <insert_a_suppression_name_here>
   Memcheck:Leak
   match-leak-kinds: possible
   fun:_Znwm
   fun:_ZN4llvm17PMTopLevelManager12schedulePassEPNS_4PassE
   fun:_ZN4llvm16TargetPassConfig13addISelPassesEv
   fun:_ZL23addPassesToGenerateCodeRN4llvm17LLVMTargetMachineERNS_6legacy15PassManagerBaseEbRNS_28MachineModuleInfoWrapperPassE
   fun:_ZN4llvm17LLVMTargetMachine19addPassesToEmitFileERNS_6legacy15PassManagerBaseERNS_17raw_pwrite_streamEPS4_NS_15CodeGenFileTypeEbPNS_28MachineModuleInfoWrapperPassE
   fun:ac_create_llvm_passes
   fun:si_create_llvm_compiler
   fun:si_shader_select_with_key<false, si_shader_key_ge>
   fun:si_shader_select
   fun:_Z17si_update_shadersIL13amd_gfx_level11EL11si_has_tess0EL9si_has_gs0EL10si_has_ngg0EEbP10si_context
   fun:si_draw<(amd_gfx_level)11, (si_has_tess)0, (si_has_gs)0, (si_has_ngg)0, (si_is_draw_vertex_state)0, (si_has_sh_pairs_packed)0, (util_popcnt)0>
   fun:_Z11si_draw_vboIL13amd_gfx_level11EL11si_has_tess0EL9si_has_gs0EL10si_has_ngg0EL22si_has_sh_pairs_packed0EEvP12pipe_contextPK14pipe_draw_infojPK23pipe_draw_indirect_infoPK26pipe_draw_start_count_biasj
   fun:_ZL17si_draw_rectangleP15blitter_contextPvPFS1_S0_Eiiiifj19blitter_attrib_typePK14blitter_attrib
   fun:util_blitter_custom_color
}
{
   <insert_a_suppression_name_here>
   Memcheck:Leak
   match-leak-kinds: possible
   fun:_Znwm
   fun:_ZN4llvm34createPreISelIntrinsicLoweringPassEv
   fun:_ZN4llvm16TargetPassConfig13addISelPassesEv
   fun:_ZL23addPassesToGenerateCodeRN4llvm17LLVMTargetMachineERNS_6legacy15PassManagerBaseEbRNS_28MachineModuleInfoWrapperPassE
   fun:_ZN4llvm17LLVMTargetMachine19addPassesToEmitFileERNS_6legacy15PassManagerBaseERNS_17raw_pwrite_streamEPS4_NS_15CodeGenFileTypeEbPNS_28MachineModuleInfoWrapperPassE
   fun:ac_create_llvm_passes
   fun:si_create_llvm_compiler
   fun:si_shader_select_with_key<false, si_shader_key_ge>
   fun:si_shader_select
   fun:_Z17si_update_shadersIL13amd_gfx_level11EL11si_has_tess0EL9si_has_gs0EL10si_has_ngg0EEbP10si_context
   fun:si_draw<(amd_gfx_level)11, (si_has_tess)0, (si_has_gs)0, (si_has_ngg)0, (si_is_draw_vertex_state)0, (si_has_sh_pairs_packed)0, (util_popcnt)0>
   fun:_Z11si_draw_vboIL13amd_gfx_level11EL11si_has_tess0EL9si_has_gs0EL10si_has_ngg0EL22si_has_sh_pairs_packed0EEvP12pipe_contextPK14pipe_draw_infojPK23pipe_draw_indirect_infoPK26pipe_draw_start_count_biasj
   fun:_ZL17si_draw_rectangleP15blitter_contextPvPFS1_S0_Eiiiifj19blitter_attrib_typePK14blitter_attrib
   fun:util_blitter_custom_color
}
{
   <insert_a_suppression_name_here>
   Memcheck:Leak
   match-leak-kinds: possible
   fun:_Znwm
   fun:_ZN4llvm13PMDataManager3addEPNS_4PassEb
   fun:_ZN4llvm17PMTopLevelManager12schedulePassEPNS_4PassE
   fun:_ZN4llvm16TargetPassConfig7addPassEPNS_4PassE
   fun:_ZN4llvm16TargetPassConfig13addISelPassesEv
   fun:_ZL23addPassesToGenerateCodeRN4llvm17LLVMTargetMachineERNS_6legacy15PassManagerBaseEbRNS_28MachineModuleInfoWrapperPassE
   fun:_ZN4llvm17LLVMTargetMachine19addPassesToEmitFileERNS_6legacy15PassManagerBaseERNS_17raw_pwrite_streamEPS4_NS_15CodeGenFileTypeEbPNS_28MachineModuleInfoWrapperPassE
   fun:ac_create_llvm_passes
   fun:si_create_llvm_compiler
   fun:si_shader_select_with_key<false, si_shader_key_ge>
   fun:si_shader_select
   fun:_Z17si_update_shadersIL13amd_gfx_level11EL11si_has_tess0EL9si_has_gs0EL10si_has_ngg0EEbP10si_context
   fun:si_draw<(amd_gfx_level)11, (si_has_tess)0, (si_has_gs)0, (si_has_ngg)0, (si_is_draw_vertex_state)0, (si_has_sh_pairs_packed)0, (util_popcnt)0>
   fun:_Z11si_draw_vboIL13amd_gfx_level11EL11si_has_tess0EL9si_has_gs0EL10si_has_ngg0EL22si_has_sh_pairs_packed0EEvP12pipe_contextPK14pipe_draw_infojPK23pipe_draw_indirect_infoPK26pipe_draw_start_count_biasj
}
{
   <insert_a_suppression_name_here>
   Memcheck:Leak
   match-leak-kinds: possible
   fun:_Znwm
   fun:_ZN4llvm27createExpandLargeDivRemPassEv
   fun:_ZN4llvm16TargetPassConfig13addISelPassesEv
   fun:_ZL23addPassesToGenerateCodeRN4llvm17LLVMTargetMachineERNS_6legacy15PassManagerBaseEbRNS_28MachineModuleInfoWrapperPassE
   fun:_ZN4llvm17LLVMTargetMachine19addPassesToEmitFileERNS_6legacy15PassManagerBaseERNS_17raw_pwrite_streamEPS4_NS_15CodeGenFileTypeEbPNS_28MachineModuleInfoWrapperPassE
   fun:ac_create_llvm_passes
   fun:si_create_llvm_compiler
   fun:si_shader_select_with_key<false, si_shader_key_ge>
   fun:si_shader_select
   fun:_Z17si_update_shadersIL13amd_gfx_level11EL11si_has_tess0EL9si_has_gs0EL10si_has_ngg0EEbP10si_context
   fun:si_draw<(amd_gfx_level)11, (si_has_tess)0, (si_has_gs)0, (si_has_ngg)0, (si_is_draw_vertex_state)0, (si_has_sh_pairs_packed)0, (util_popcnt)0>
   fun:_Z11si_draw_vboIL13amd_gfx_level11EL11si_has_tess0EL9si_has_gs0EL10si_has_ngg0EL22si_has_sh_pairs_packed0EEvP12pipe_contextPK14pipe_draw_infojPK23pipe_draw_indirect_infoPK26pipe_draw_start_count_biasj
   fun:_ZL17si_draw_rectangleP15blitter_contextPvPFS1_S0_Eiiiifj19blitter_attrib_typePK14blitter_attrib
   fun:util_blitter_custom_color
}
{
   <insert_a_suppression_name_here>
   Memcheck:Leak
   match-leak-kinds: possible
   fun:_Znwm
   fun:_ZN4llvm13PMDataManager3addEPNS_4PassEb
   fun:_ZN4llvm12FunctionPass17assignPassManagerERNS_7PMStackENS_15PassManagerTypeE
   fun:_ZN4llvm17PMTopLevelManager12schedulePassEPNS_4PassE
   fun:_ZN4llvm16TargetPassConfig7addPassEPNS_4PassE
   fun:_ZN4llvm16TargetPassConfig13addISelPassesEv
   fun:_ZL23addPassesToGenerateCodeRN4llvm17LLVMTargetMachineERNS_6legacy15PassManagerBaseEbRNS_28MachineModuleInfoWrapperPassE
   fun:_ZN4llvm17LLVMTargetMachine19addPassesToEmitFileERNS_6legacy15PassManagerBaseERNS_17raw_pwrite_streamEPS4_NS_15CodeGenFileTypeEbPNS_28MachineModuleInfoWrapperPassE
   fun:ac_create_llvm_passes
   fun:si_create_llvm_compiler
   fun:si_shader_select_with_key<false, si_shader_key_ge>
   fun:si_shader_select
   fun:_Z17si_update_shadersIL13amd_gfx_level11EL11si_has_tess0EL9si_has_gs0EL10si_has_ngg0EEbP10si_context
}
{
   <insert_a_suppression_name_here>
   Memcheck:Leak
   match-leak-kinds: possible
   fun:_Znwm
   fun:_ZN4llvm30createExpandLargeFpConvertPassEv
   fun:_ZN4llvm16TargetPassConfig13addISelPassesEv
   fun:_ZL23addPassesToGenerateCodeRN4llvm17LLVMTargetMachineERNS_6legacy15PassManagerBaseEbRNS_28MachineModuleInfoWrapperPassE
   fun:_ZN4llvm17LLVMTargetMachine19addPassesToEmitFileERNS_6legacy15PassManagerBaseERNS_17raw_pwrite_streamEPS4_NS_15CodeGenFileTypeEbPNS_28MachineModuleInfoWrapperPassE
   fun:ac_create_llvm_passes
   fun:si_create_llvm_compiler
   fun:si_shader_select_with_key<false, si_shader_key_ge>
   fun:si_shader_select
   fun:_Z17si_update_shadersIL13amd_gfx_level11EL11si_has_tess0EL9si_has_gs0EL10si_has_ngg0EEbP10si_context
   fun:si_draw<(amd_gfx_level)11, (si_has_tess)0, (si_has_gs)0, (si_has_ngg)0, (si_is_draw_vertex_state)0, (si_has_sh_pairs_packed)0, (util_popcnt)0>
   fun:_Z11si_draw_vboIL13amd_gfx_level11EL11si_has_tess0EL9si_has_gs0EL10si_has_ngg0EL22si_has_sh_pairs_packed0EEvP12pipe_contextPK14pipe_draw_infojPK23pipe_draw_indirect_infoPK26pipe_draw_start_count_biasj
   fun:_ZL17si_draw_rectangleP15blitter_contextPvPFS1_S0_Eiiiifj19blitter_attrib_typePK14blitter_attrib
   fun:util_blitter_custom_color
}
{
   <insert_a_suppression_name_here>
   Memcheck:Leak
   match-leak-kinds: possible
   fun:_Znwm
   fun:_ZN4llvm13PMDataManager3addEPNS_4PassEb
   fun:_ZN4llvm17PMTopLevelManager12schedulePassEPNS_4PassE
   fun:_ZN4llvm16TargetPassConfig7addPassEPNS_4PassE
   fun:_ZN4llvm16AMDGPUPassConfig11addIRPassesEv
   fun:_ZN4llvm16TargetPassConfig13addISelPassesEv
   fun:_ZL23addPassesToGenerateCodeRN4llvm17LLVMTargetMachineERNS_6legacy15PassManagerBaseEbRNS_28MachineModuleInfoWrapperPassE
   fun:_ZN4llvm17LLVMTargetMachine19addPassesToEmitFileERNS_6legacy15PassManagerBaseERNS_17raw_pwrite_streamEPS4_NS_15CodeGenFileTypeEbPNS_28MachineModuleInfoWrapperPassE
   fun:ac_create_llvm_passes
   fun:si_create_llvm_compiler
   fun:si_shader_select_with_key<false, si_shader_key_ge>
   fun:si_shader_select
   fun:_Z17si_update_shadersIL13amd_gfx_level11EL11si_has_tess0EL9si_has_gs0EL10si_has_ngg0EEbP10si_context
}
{
   <insert_a_suppression_name_here>
   Memcheck:Leak
   match-leak-kinds: possible
   fun:_Znwm
   fun:_ZN4llvm32createAMDGPUPrintfRuntimeBindingEv
   fun:_ZN4llvm16AMDGPUPassConfig11addIRPassesEv
   fun:_ZN4llvm16TargetPassConfig13addISelPassesEv
   fun:_ZL23addPassesToGenerateCodeRN4llvm17LLVMTargetMachineERNS_6legacy15PassManagerBaseEbRNS_28MachineModuleInfoWrapperPassE
   fun:_ZN4llvm17LLVMTargetMachine19addPassesToEmitFileERNS_6legacy15PassManagerBaseERNS_17raw_pwrite_streamEPS4_NS_15CodeGenFileTypeEbPNS_28MachineModuleInfoWrapperPassE
   fun:ac_create_llvm_passes
   fun:si_create_llvm_compiler
   fun:si_shader_select_with_key<false, si_shader_key_ge>
   fun:si_shader_select
   fun:_Z17si_update_shadersIL13amd_gfx_level11EL11si_has_tess0EL9si_has_gs0EL10si_has_ngg0EEbP10si_context
   fun:si_draw<(amd_gfx_level)11, (si_has_tess)0, (si_has_gs)0, (si_has_ngg)0, (si_is_draw_vertex_state)0, (si_has_sh_pairs_packed)0, (util_popcnt)0>
   fun:_Z11si_draw_vboIL13amd_gfx_level11EL11si_has_tess0EL9si_has_gs0EL10si_has_ngg0EL22si_has_sh_pairs_packed0EEvP12pipe_contextPK14pipe_draw_infojPK23pipe_draw_indirect_infoPK26pipe_draw_start_count_biasj
   fun:_ZL17si_draw_rectangleP15blitter_contextPvPFS1_S0_Eiiiifj19blitter_attrib_typePK14blitter_attrib
}
{
   <insert_a_suppression_name_here>
   Memcheck:Leak
   match-leak-kinds: possible
   fun:_Znwm
   fun:_ZN4llvm38createAMDGPUCtorDtorLoweringLegacyPassEv
   fun:_ZN4llvm16AMDGPUPassConfig11addIRPassesEv
   fun:_ZN4llvm16TargetPassConfig13addISelPassesEv
   fun:_ZL23addPassesToGenerateCodeRN4llvm17LLVMTargetMachineERNS_6legacy15PassManagerBaseEbRNS_28MachineModuleInfoWrapperPassE
   fun:_ZN4llvm17LLVMTargetMachine19addPassesToEmitFileERNS_6legacy15PassManagerBaseERNS_17raw_pwrite_streamEPS4_NS_15CodeGenFileTypeEbPNS_28MachineModuleInfoWrapperPassE
   fun:ac_create_llvm_passes
   fun:si_create_llvm_compiler
   fun:si_shader_select_with_key<false, si_shader_key_ge>
   fun:si_shader_select
   fun:_Z17si_update_shadersIL13amd_gfx_level11EL11si_has_tess0EL9si_has_gs0EL10si_has_ngg0EEbP10si_context
   fun:si_draw<(amd_gfx_level)11, (si_has_tess)0, (si_has_gs)0, (si_has_ngg)0, (si_is_draw_vertex_state)0, (si_has_sh_pairs_packed)0, (util_popcnt)0>
   fun:_Z11si_draw_vboIL13amd_gfx_level11EL11si_has_tess0EL9si_has_gs0EL10si_has_ngg0EL22si_has_sh_pairs_packed0EEvP12pipe_contextPK14pipe_draw_infojPK23pipe_draw_indirect_infoPK26pipe_draw_start_count_biasj
   fun:_ZL17si_draw_rectangleP15blitter_contextPvPFS1_S0_Eiiiifj19blitter_attrib_typePK14blitter_attrib
}
{
   <insert_a_suppression_name_here>
   Memcheck:Leak
   match-leak-kinds: possible
   fun:_Znwm
   fun:_ZN4llvm28createAMDGPUAlwaysInlinePassEb
   fun:_ZN4llvm16AMDGPUPassConfig11addIRPassesEv
   fun:_ZN4llvm16TargetPassConfig13addISelPassesEv
   fun:_ZL23addPassesToGenerateCodeRN4llvm17LLVMTargetMachineERNS_6legacy15PassManagerBaseEbRNS_28MachineModuleInfoWrapperPassE
   fun:_ZN4llvm17LLVMTargetMachine19addPassesToEmitFileERNS_6legacy15PassManagerBaseERNS_17raw_pwrite_streamEPS4_NS_15CodeGenFileTypeEbPNS_28MachineModuleInfoWrapperPassE
   fun:ac_create_llvm_passes
   fun:si_create_llvm_compiler
   fun:si_shader_select_with_key<false, si_shader_key_ge>
   fun:si_shader_select
   fun:_Z17si_update_shadersIL13amd_gfx_level11EL11si_has_tess0EL9si_has_gs0EL10si_has_ngg0EEbP10si_context
   fun:si_draw<(amd_gfx_level)11, (si_has_tess)0, (si_has_gs)0, (si_has_ngg)0, (si_is_draw_vertex_state)0, (si_has_sh_pairs_packed)0, (util_popcnt)0>
   fun:_Z11si_draw_vboIL13amd_gfx_level11EL11si_has_tess0EL9si_has_gs0EL10si_has_ngg0EL22si_has_sh_pairs_packed0EEvP12pipe_contextPK14pipe_draw_infojPK23pipe_draw_indirect_infoPK26pipe_draw_start_count_biasj
   fun:_ZL17si_draw_rectangleP15blitter_contextPvPFS1_S0_Eiiiifj19blitter_attrib_typePK14blitter_attrib
}
{
   <insert_a_suppression_name_here>
   Memcheck:Leak
   match-leak-kinds: possible
   fun:_Znwm
   fun:_ZN4llvm29createAlwaysInlinerLegacyPassEb
   fun:_ZN4llvm16AMDGPUPassConfig11addIRPassesEv
   fun:_ZN4llvm16TargetPassConfig13addISelPassesEv
   fun:_ZL23addPassesToGenerateCodeRN4llvm17LLVMTargetMachineERNS_6legacy15PassManagerBaseEbRNS_28MachineModuleInfoWrapperPassE
   fun:_ZN4llvm17LLVMTargetMachine19addPassesToEmitFileERNS_6legacy15PassManagerBaseERNS_17raw_pwrite_streamEPS4_NS_15CodeGenFileTypeEbPNS_28MachineModuleInfoWrapperPassE
   fun:ac_create_llvm_passes
   fun:si_create_llvm_compiler
   fun:si_shader_select_with_key<false, si_shader_key_ge>
   fun:si_shader_select
   fun:_Z17si_update_shadersIL13amd_gfx_level11EL11si_has_tess0EL9si_has_gs0EL10si_has_ngg0EEbP10si_context
   fun:si_draw<(amd_gfx_level)11, (si_has_tess)0, (si_has_gs)0, (si_has_ngg)0, (si_is_draw_vertex_state)0, (si_has_sh_pairs_packed)0, (util_popcnt)0>
   fun:_Z11si_draw_vboIL13amd_gfx_level11EL11si_has_tess0EL9si_has_gs0EL10si_has_ngg0EL22si_has_sh_pairs_packed0EEvP12pipe_contextPK14pipe_draw_infojPK23pipe_draw_indirect_infoPK26pipe_draw_start_count_biasj
   fun:_ZL17si_draw_rectangleP15blitter_contextPvPFS1_S0_Eiiiifj19blitter_attrib_typePK14blitter_attrib
}
{
   <insert_a_suppression_name_here>
   Memcheck:Leak
   match-leak-kinds: possible
   fun:_Znwm
   fun:_ZN4llvm43createAMDGPUOpenCLEnqueuedBlockLoweringPassEv
   fun:_ZN4llvm16AMDGPUPassConfig11addIRPassesEv
   fun:_ZN4llvm16TargetPassConfig13addISelPassesEv
   fun:_ZL23addPassesToGenerateCodeRN4llvm17LLVMTargetMachineERNS_6legacy15PassManagerBaseEbRNS_28MachineModuleInfoWrapperPassE
   fun:_ZN4llvm17LLVMTargetMachine19addPassesToEmitFileERNS_6legacy15PassManagerBaseERNS_17raw_pwrite_streamEPS4_NS_15CodeGenFileTypeEbPNS_28MachineModuleInfoWrapperPassE
   fun:ac_create_llvm_passes
   fun:si_create_llvm_compiler
   fun:si_shader_select_with_key<false, si_shader_key_ge>
   fun:si_shader_select
   fun:_Z17si_update_shadersIL13amd_gfx_level11EL11si_has_tess0EL9si_has_gs0EL10si_has_ngg0EEbP10si_context
   fun:si_draw<(amd_gfx_level)11, (si_has_tess)0, (si_has_gs)0, (si_has_ngg)0, (si_is_draw_vertex_state)0, (si_has_sh_pairs_packed)0, (util_popcnt)0>
   fun:_Z11si_draw_vboIL13amd_gfx_level11EL11si_has_tess0EL9si_has_gs0EL10si_has_ngg0EL22si_has_sh_pairs_packed0EEvP12pipe_contextPK14pipe_draw_infojPK23pipe_draw_indirect_infoPK26pipe_draw_start_count_biasj
   fun:_ZL17si_draw_rectangleP15blitter_contextPvPFS1_S0_Eiiiifj19blitter_attrib_typePK14blitter_attrib
}
{
   <insert_a_suppression_name_here>
   Memcheck:Leak
   match-leak-kinds: possible
   fun:_Znwm
   fun:_ZN4llvm28createInferAddressSpacesPassEj
   fun:_ZN4llvm16AMDGPUPassConfig11addIRPassesEv
   fun:_ZN4llvm16TargetPassConfig13addISelPassesEv
   fun:_ZL23addPassesToGenerateCodeRN4llvm17LLVMTargetMachineERNS_6legacy15PassManagerBaseEbRNS_28MachineModuleInfoWrapperPassE
   fun:_ZN4llvm17LLVMTargetMachine19addPassesToEmitFileERNS_6legacy15PassManagerBaseERNS_17raw_pwrite_streamEPS4_NS_15CodeGenFileTypeEbPNS_28MachineModuleInfoWrapperPassE
   fun:ac_create_llvm_passes
   fun:si_create_llvm_compiler
   fun:si_shader_select_with_key<false, si_shader_key_ge>
   fun:si_shader_select
   fun:_Z17si_update_shadersIL13amd_gfx_level11EL11si_has_tess0EL9si_has_gs0EL10si_has_ngg0EEbP10si_context
   fun:si_draw<(amd_gfx_level)11, (si_has_tess)0, (si_has_gs)0, (si_has_ngg)0, (si_is_draw_vertex_state)0, (si_has_sh_pairs_packed)0, (util_popcnt)0>
   fun:_Z11si_draw_vboIL13amd_gfx_level11EL11si_has_tess0EL9si_has_gs0EL10si_has_ngg0EL22si_has_sh_pairs_packed0EEvP12pipe_contextPK14pipe_draw_infojPK23pipe_draw_indirect_infoPK26pipe_draw_start_count_biasj
   fun:_ZL17si_draw_rectangleP15blitter_contextPvPFS1_S0_Eiiiifj19blitter_attrib_typePK14blitter_attrib
}
{
   <insert_a_suppression_name_here>
   Memcheck:Leak
   match-leak-kinds: possible
   fun:_Znwm
   fun:_ZN4llvm13PMDataManager3addEPNS_4PassEb
   fun:_ZN4llvm12FunctionPass17assignPassManagerERNS_7PMStackENS_15PassManagerTypeE
   fun:_ZN4llvm17PMTopLevelManager12schedulePassEPNS_4PassE
   fun:_ZN4llvm16TargetPassConfig7addPassEPNS_4PassE
   fun:_ZN4llvm16AMDGPUPassConfig11addIRPassesEv
   fun:_ZN4llvm16TargetPassConfig13addISelPassesEv
   fun:_ZL23addPassesToGenerateCodeRN4llvm17LLVMTargetMachineERNS_6legacy15PassManagerBaseEbRNS_28MachineModuleInfoWrapperPassE
   fun:_ZN4llvm17LLVMTargetMachine19addPassesToEmitFileERNS_6legacy15PassManagerBaseERNS_17raw_pwrite_streamEPS4_NS_15CodeGenFileTypeEbPNS_28MachineModuleInfoWrapperPassE
   fun:ac_create_llvm_passes
   fun:si_create_llvm_compiler
   fun:si_shader_select_with_key<false, si_shader_key_ge>
   fun:si_shader_select
}
{
   <insert_a_suppression_name_here>
   Memcheck:Leak
   match-leak-kinds: possible
   fun:_Znwm
   fun:_ZN4llvm31createAMDGPUAtomicOptimizerPassENS_11ScanOptionsE
   fun:_ZN4llvm16AMDGPUPassConfig11addIRPassesEv
   fun:_ZN4llvm16TargetPassConfig13addISelPassesEv
   fun:_ZL23addPassesToGenerateCodeRN4llvm17LLVMTargetMachineERNS_6legacy15PassManagerBaseEbRNS_28MachineModuleInfoWrapperPassE
   fun:_ZN4llvm17LLVMTargetMachine19addPassesToEmitFileERNS_6legacy15PassManagerBaseERNS_17raw_pwrite_streamEPS4_NS_15CodeGenFileTypeEbPNS_28MachineModuleInfoWrapperPassE
   fun:ac_create_llvm_passes
   fun:si_create_llvm_compiler
   fun:si_shader_select_with_key<false, si_shader_key_ge>
   fun:si_shader_select
   fun:_Z17si_update_shadersIL13amd_gfx_level11EL11si_has_tess0EL9si_has_gs0EL10si_has_ngg0EEbP10si_context
   fun:si_draw<(amd_gfx_level)11, (si_has_tess)0, (si_has_gs)0, (si_has_ngg)0, (si_is_draw_vertex_state)0, (si_has_sh_pairs_packed)0, (util_popcnt)0>
   fun:_Z11si_draw_vboIL13amd_gfx_level11EL11si_has_tess0EL9si_has_gs0EL10si_has_ngg0EL22si_has_sh_pairs_packed0EEvP12pipe_contextPK14pipe_draw_infojPK23pipe_draw_indirect_infoPK26pipe_draw_start_count_biasj
   fun:_ZL17si_draw_rectangleP15blitter_contextPvPFS1_S0_Eiiiifj19blitter_attrib_typePK14blitter_attrib
}
{
   <insert_a_suppression_name_here>
   Memcheck:Leak
   match-leak-kinds: possible
   fun:_Znwm
   fun:_ZN4llvm13PMDataManager3addEPNS_4PassEb
   fun:_ZN4llvm17PMTopLevelManager12schedulePassEPNS_4PassE
   fun:_ZN4llvm17PMTopLevelManager12schedulePassEPNS_4PassE
   fun:_ZN4llvm16TargetPassConfig7addPassEPNS_4PassE
   fun:_ZN4llvm16AMDGPUPassConfig11addIRPassesEv
   fun:_ZN4llvm16TargetPassConfig13addISelPassesEv
   fun:_ZL23addPassesToGenerateCodeRN4llvm17LLVMTargetMachineERNS_6legacy15PassManagerBaseEbRNS_28MachineModuleInfoWrapperPassE
   fun:_ZN4llvm17LLVMTargetMachine19addPassesToEmitFileERNS_6legacy15PassManagerBaseERNS_17raw_pwrite_streamEPS4_NS_15CodeGenFileTypeEbPNS_28MachineModuleInfoWrapperPassE
   fun:ac_create_llvm_passes
   fun:si_create_llvm_compiler
   fun:si_shader_select_with_key<false, si_shader_key_ge>
   fun:si_shader_select
}
{
   <insert_a_suppression_name_here>
   Memcheck:Leak
   match-leak-kinds: possible
   fun:_Znwm
   fun:_ZN4llvm25createAMDGPUPromoteAllocaEv
   fun:_ZN4llvm16AMDGPUPassConfig11addIRPassesEv
   fun:_ZN4llvm16TargetPassConfig13addISelPassesEv
   fun:_ZL23addPassesToGenerateCodeRN4llvm17LLVMTargetMachineERNS_6legacy15PassManagerBaseEbRNS_28MachineModuleInfoWrapperPassE
   fun:_ZN4llvm17LLVMTargetMachine19addPassesToEmitFileERNS_6legacy15PassManagerBaseERNS_17raw_pwrite_streamEPS4_NS_15CodeGenFileTypeEbPNS_28MachineModuleInfoWrapperPassE
   fun:ac_create_llvm_passes
   fun:si_create_llvm_compiler
   fun:si_shader_select_with_key<false, si_shader_key_ge>
   fun:si_shader_select
   fun:_Z17si_update_shadersIL13amd_gfx_level11EL11si_has_tess0EL9si_has_gs0EL10si_has_ngg0EEbP10si_context
   fun:si_draw<(amd_gfx_level)11, (si_has_tess)0, (si_has_gs)0, (si_has_ngg)0, (si_is_draw_vertex_state)0, (si_has_sh_pairs_packed)0, (util_popcnt)0>
   fun:_Z11si_draw_vboIL13amd_gfx_level11EL11si_has_tess0EL9si_has_gs0EL10si_has_ngg0EL22si_has_sh_pairs_packed0EEvP12pipe_contextPK14pipe_draw_infojPK23pipe_draw_indirect_infoPK26pipe_draw_start_count_biasj
   fun:_ZL17si_draw_rectangleP15blitter_contextPvPFS1_S0_Eiiiifj19blitter_attrib_typePK14blitter_attrib
}
{
   <insert_a_suppression_name_here>
   Memcheck:Leak
   match-leak-kinds: possible
   fun:_Znwm
   fun:_ZN4llvm36createSeparateConstOffsetFromGEPPassEb
   fun:_ZN4llvm16AMDGPUPassConfig39addStraightLineScalarOptimizationPassesEv
   fun:_ZN4llvm16AMDGPUPassConfig11addIRPassesEv
   fun:_ZN4llvm16TargetPassConfig13addISelPassesEv
   fun:_ZL23addPassesToGenerateCodeRN4llvm17LLVMTargetMachineERNS_6legacy15PassManagerBaseEbRNS_28MachineModuleInfoWrapperPassE
   fun:_ZN4llvm17LLVMTargetMachine19addPassesToEmitFileERNS_6legacy15PassManagerBaseERNS_17raw_pwrite_streamEPS4_NS_15CodeGenFileTypeEbPNS_28MachineModuleInfoWrapperPassE
   fun:ac_create_llvm_passes
   fun:si_create_llvm_compiler
   fun:si_shader_select_with_key<false, si_shader_key_ge>
   fun:si_shader_select
   fun:_Z17si_update_shadersIL13amd_gfx_level11EL11si_has_tess0EL9si_has_gs0EL10si_has_ngg0EEbP10si_context
   fun:si_draw<(amd_gfx_level)11, (si_has_tess)0, (si_has_gs)0, (si_has_ngg)0, (si_is_draw_vertex_state)0, (si_has_sh_pairs_packed)0, (util_popcnt)0>
   fun:_Z11si_draw_vboIL13amd_gfx_level11EL11si_has_tess0EL9si_has_gs0EL10si_has_ngg0EL22si_has_sh_pairs_packed0EEvP12pipe_contextPK14pipe_draw_infojPK23pipe_draw_indirect_infoPK26pipe_draw_start_count_biasj
}
{
   <insert_a_suppression_name_here>
   Memcheck:Leak
   match-leak-kinds: possible
   fun:_Znwm
   fun:_ZN4llvm17PMTopLevelManager12schedulePassEPNS_4PassE
   fun:_ZN4llvm17PMTopLevelManager12schedulePassEPNS_4PassE
   fun:_ZN4llvm16TargetPassConfig7addPassEPNS_4PassE
   fun:_ZN4llvm16AMDGPUPassConfig39addStraightLineScalarOptimizationPassesEv
   fun:_ZN4llvm16AMDGPUPassConfig11addIRPassesEv
   fun:_ZN4llvm16TargetPassConfig13addISelPassesEv
   fun:_ZL23addPassesToGenerateCodeRN4llvm17LLVMTargetMachineERNS_6legacy15PassManagerBaseEbRNS_28MachineModuleInfoWrapperPassE
   fun:_ZN4llvm17LLVMTargetMachine19addPassesToEmitFileERNS_6legacy15PassManagerBaseERNS_17raw_pwrite_streamEPS4_NS_15CodeGenFileTypeEbPNS_28MachineModuleInfoWrapperPassE
   fun:ac_create_llvm_passes
   fun:si_create_llvm_compiler
   fun:si_shader_select_with_key<false, si_shader_key_ge>
   fun:si_shader_select
}
{
   <insert_a_suppression_name_here>
   Memcheck:Leak
   match-leak-kinds: possible
   fun:_Znwm
   fun:_ZN4llvm13PMDataManager3addEPNS_4PassEb
   fun:_ZN4llvm17PMTopLevelManager12schedulePassEPNS_4PassE
   fun:_ZN4llvm16TargetPassConfig7addPassEPNS_4PassE
   fun:_ZN4llvm16AMDGPUPassConfig39addStraightLineScalarOptimizationPassesEv
   fun:_ZN4llvm16AMDGPUPassConfig11addIRPassesEv
   fun:_ZN4llvm16TargetPassConfig13addISelPassesEv
   fun:_ZL23addPassesToGenerateCodeRN4llvm17LLVMTargetMachineERNS_6legacy15PassManagerBaseEbRNS_28MachineModuleInfoWrapperPassE
   fun:_ZN4llvm17LLVMTargetMachine19addPassesToEmitFileERNS_6legacy15PassManagerBaseERNS_17raw_pwrite_streamEPS4_NS_15CodeGenFileTypeEbPNS_28MachineModuleInfoWrapperPassE
   fun:ac_create_llvm_passes
   fun:si_create_llvm_compiler
   fun:si_shader_select_with_key<false, si_shader_key_ge>
   fun:si_shader_select
}
{
   <insert_a_suppression_name_here>
   Memcheck:Leak
   match-leak-kinds: possible
   fun:_Znwm
   fun:_ZN4llvm18createEarlyCSEPassEb
   fun:addEarlyCSEOrGVNPass
   fun:_ZN4llvm16AMDGPUPassConfig39addStraightLineScalarOptimizationPassesEv
   fun:_ZN4llvm16AMDGPUPassConfig11addIRPassesEv
   fun:_ZN4llvm16TargetPassConfig13addISelPassesEv
   fun:_ZL23addPassesToGenerateCodeRN4llvm17LLVMTargetMachineERNS_6legacy15PassManagerBaseEbRNS_28MachineModuleInfoWrapperPassE
   fun:_ZN4llvm17LLVMTargetMachine19addPassesToEmitFileERNS_6legacy15PassManagerBaseERNS_17raw_pwrite_streamEPS4_NS_15CodeGenFileTypeEbPNS_28MachineModuleInfoWrapperPassE
   fun:ac_create_llvm_passes
   fun:si_create_llvm_compiler
   fun:si_shader_select_with_key<false, si_shader_key_ge>
   fun:si_shader_select
   fun:_Z17si_update_shadersIL13amd_gfx_level11EL11si_has_tess0EL9si_has_gs0EL10si_has_ngg0EEbP10si_context
   fun:si_draw<(amd_gfx_level)11, (si_has_tess)0, (si_has_gs)0, (si_has_ngg)0, (si_is_draw_vertex_state)0, (si_has_sh_pairs_packed)0, (util_popcnt)0>
   fun:_Z11si_draw_vboIL13amd_gfx_level11EL11si_has_tess0EL9si_has_gs0EL10si_has_ngg0EL22si_has_sh_pairs_packed0EEvP12pipe_contextPK14pipe_draw_infojPK23pipe_draw_indirect_infoPK26pipe_draw_start_count_biasj
}
{
   <insert_a_suppression_name_here>
   Memcheck:Leak
   match-leak-kinds: possible
   fun:_Znwm
   fun:_ZN4llvm13PMDataManager3addEPNS_4PassEb
   fun:_ZN4llvm17PMTopLevelManager12schedulePassEPNS_4PassE
   fun:_ZN4llvm16TargetPassConfig7addPassEPNS_4PassE
   fun:addEarlyCSEOrGVNPass
   fun:_ZN4llvm16AMDGPUPassConfig39addStraightLineScalarOptimizationPassesEv
   fun:_ZN4llvm16AMDGPUPassConfig11addIRPassesEv
   fun:_ZN4llvm16TargetPassConfig13addISelPassesEv
   fun:_ZL23addPassesToGenerateCodeRN4llvm17LLVMTargetMachineERNS_6legacy15PassManagerBaseEbRNS_28MachineModuleInfoWrapperPassE
   fun:_ZN4llvm17LLVMTargetMachine19addPassesToEmitFileERNS_6legacy15PassManagerBaseERNS_17raw_pwrite_streamEPS4_NS_15CodeGenFileTypeEbPNS_28MachineModuleInfoWrapperPassE
   fun:ac_create_llvm_passes
   fun:si_create_llvm_compiler
   fun:si_shader_select_with_key<false, si_shader_key_ge>
   fun:si_shader_select
}
{
   <insert_a_suppression_name_here>
   Memcheck:Leak
   match-leak-kinds: possible
   fun:_Znwm
   fun:_ZN4llvm18createEarlyCSEPassEb
   fun:_ZN4llvm16AMDGPUPassConfig39addStraightLineScalarOptimizationPassesEv
   fun:_ZN4llvm16AMDGPUPassConfig11addIRPassesEv
   fun:_ZN4llvm16TargetPassConfig13addISelPassesEv
   fun:_ZL23addPassesToGenerateCodeRN4llvm17LLVMTargetMachineERNS_6legacy15PassManagerBaseEbRNS_28MachineModuleInfoWrapperPassE
   fun:_ZN4llvm17LLVMTargetMachine19addPassesToEmitFileERNS_6legacy15PassManagerBaseERNS_17raw_pwrite_streamEPS4_NS_15CodeGenFileTypeEbPNS_28MachineModuleInfoWrapperPassE
   fun:ac_create_llvm_passes
   fun:si_create_llvm_compiler
   fun:si_shader_select_with_key<false, si_shader_key_ge>
   fun:si_shader_select
   fun:_Z17si_update_shadersIL13amd_gfx_level11EL11si_has_tess0EL9si_has_gs0EL10si_has_ngg0EEbP10si_context
   fun:si_draw<(amd_gfx_level)11, (si_has_tess)0, (si_has_gs)0, (si_has_ngg)0, (si_is_draw_vertex_state)0, (si_has_sh_pairs_packed)0, (util_popcnt)0>
   fun:_Z11si_draw_vboIL13amd_gfx_level11EL11si_has_tess0EL9si_has_gs0EL10si_has_ngg0EL22si_has_sh_pairs_packed0EEvP12pipe_contextPK14pipe_draw_infojPK23pipe_draw_indirect_infoPK26pipe_draw_start_count_biasj
}
{
   <insert_a_suppression_name_here>
   Memcheck:Leak
   match-leak-kinds: possible
   fun:_Znwm
   fun:_ZN4llvm17PMTopLevelManager12schedulePassEPNS_4PassE
   fun:_ZN4llvm16TargetPassConfig7addPassEPNS_4PassE
   fun:_ZN4llvm16AMDGPUPassConfig11addIRPassesEv
   fun:_ZN4llvm16TargetPassConfig13addISelPassesEv
   fun:_ZL23addPassesToGenerateCodeRN4llvm17LLVMTargetMachineERNS_6legacy15PassManagerBaseEbRNS_28MachineModuleInfoWrapperPassE
   fun:_ZN4llvm17LLVMTargetMachine19addPassesToEmitFileERNS_6legacy15PassManagerBaseERNS_17raw_pwrite_streamEPS4_NS_15CodeGenFileTypeEbPNS_28MachineModuleInfoWrapperPassE
   fun:ac_create_llvm_passes
   fun:si_create_llvm_compiler
   fun:si_shader_select_with_key<false, si_shader_key_ge>
   fun:si_shader_select
   fun:_Z17si_update_shadersIL13amd_gfx_level11EL11si_has_tess0EL9si_has_gs0EL10si_has_ngg0EEbP10si_context
   fun:si_draw<(amd_gfx_level)11, (si_has_tess)0, (si_has_gs)0, (si_has_ngg)0, (si_is_draw_vertex_state)0, (si_has_sh_pairs_packed)0, (util_popcnt)0>
   fun:_Z11si_draw_vboIL13amd_gfx_level11EL11si_has_tess0EL9si_has_gs0EL10si_has_ngg0EL22si_has_sh_pairs_packed0EEvP12pipe_contextPK14pipe_draw_infojPK23pipe_draw_indirect_infoPK26pipe_draw_start_count_biasj
}
{
   <insert_a_suppression_name_here>
   Memcheck:Leak
   match-leak-kinds: possible
   fun:_Znwm
   fun:_ZN4llvm15callDefaultCtorIN12_GLOBAL__N_112LoopSimplifyELb1EEEPNS_4PassEv
   fun:createPass
   fun:_ZN4llvm17PMTopLevelManager12schedulePassEPNS_4PassE
   fun:_ZN4llvm16TargetPassConfig7addPassEPNS_4PassE
   fun:_ZN4llvm16AMDGPUPassConfig11addIRPassesEv
   fun:_ZN4llvm16TargetPassConfig13addISelPassesEv
   fun:_ZL23addPassesToGenerateCodeRN4llvm17LLVMTargetMachineERNS_6legacy15PassManagerBaseEbRNS_28MachineModuleInfoWrapperPassE
   fun:_ZN4llvm17LLVMTargetMachine19addPassesToEmitFileERNS_6legacy15PassManagerBaseERNS_17raw_pwrite_streamEPS4_NS_15CodeGenFileTypeEbPNS_28MachineModuleInfoWrapperPassE
   fun:ac_create_llvm_passes
   fun:si_create_llvm_compiler
   fun:si_shader_select_with_key<false, si_shader_key_ge>
   fun:si_shader_select
   fun:_Z17si_update_shadersIL13amd_gfx_level11EL11si_has_tess0EL9si_has_gs0EL10si_has_ngg0EEbP10si_context
}
{
   <insert_a_suppression_name_here>
   Memcheck:Leak
   match-leak-kinds: possible
   fun:_Znwm
   fun:_ZN4llvm15callDefaultCtorINS_21LCSSAVerificationPassELb1EEEPNS_4PassEv
   fun:createPass
   fun:_ZN4llvm17PMTopLevelManager12schedulePassEPNS_4PassE
   fun:_ZN4llvm17PMTopLevelManager12schedulePassEPNS_4PassE
   fun:_ZN4llvm16TargetPassConfig7addPassEPNS_4PassE
   fun:_ZN4llvm16AMDGPUPassConfig11addIRPassesEv
   fun:_ZN4llvm16TargetPassConfig13addISelPassesEv
   fun:_ZL23addPassesToGenerateCodeRN4llvm17LLVMTargetMachineERNS_6legacy15PassManagerBaseEbRNS_28MachineModuleInfoWrapperPassE
   fun:_ZN4llvm17LLVMTargetMachine19addPassesToEmitFileERNS_6legacy15PassManagerBaseERNS_17raw_pwrite_streamEPS4_NS_15CodeGenFileTypeEbPNS_28MachineModuleInfoWrapperPassE
   fun:ac_create_llvm_passes
   fun:si_create_llvm_compiler
   fun:si_shader_select_with_key<false, si_shader_key_ge>
   fun:si_shader_select
}
{
   <insert_a_suppression_name_here>
   Memcheck:Leak
   match-leak-kinds: possible
   fun:_Znwm
   fun:_ZN4llvm13PMDataManager3addEPNS_4PassEb
   fun:_ZN4llvm8LoopPass17assignPassManagerERNS_7PMStackENS_15PassManagerTypeE
   fun:_ZN4llvm17PMTopLevelManager12schedulePassEPNS_4PassE
   fun:_ZN4llvm16TargetPassConfig7addPassEPNS_4PassE
   fun:_ZN4llvm16AMDGPUPassConfig11addIRPassesEv
   fun:_ZN4llvm16TargetPassConfig13addISelPassesEv
   fun:_ZL23addPassesToGenerateCodeRN4llvm17LLVMTargetMachineERNS_6legacy15PassManagerBaseEbRNS_28MachineModuleInfoWrapperPassE
   fun:_ZN4llvm17LLVMTargetMachine19addPassesToEmitFileERNS_6legacy15PassManagerBaseERNS_17raw_pwrite_streamEPS4_NS_15CodeGenFileTypeEbPNS_28MachineModuleInfoWrapperPassE
   fun:ac_create_llvm_passes
   fun:si_create_llvm_compiler
   fun:si_shader_select_with_key<false, si_shader_key_ge>
   fun:si_shader_select
}
{
   <insert_a_suppression_name_here>
   Memcheck:Leak
   match-leak-kinds: possible
   fun:_Znwm
   fun:allocate
   fun:allocate
   fun:_M_allocate
   fun:_M_realloc_append<llvm::PMDataManager* const&>
   fun:push_back
   fun:_ZN4llvm7PMStack4pushEPNS_13PMDataManagerE
   fun:_ZN4llvm8LoopPass17assignPassManagerERNS_7PMStackENS_15PassManagerTypeE
   fun:_ZN4llvm17PMTopLevelManager12schedulePassEPNS_4PassE
   fun:_ZN4llvm16TargetPassConfig7addPassEPNS_4PassE
   fun:_ZN4llvm16AMDGPUPassConfig11addIRPassesEv
   fun:_ZN4llvm16TargetPassConfig13addISelPassesEv
   fun:_ZL23addPassesToGenerateCodeRN4llvm17LLVMTargetMachineERNS_6legacy15PassManagerBaseEbRNS_28MachineModuleInfoWrapperPassE
   fun:_ZN4llvm17LLVMTargetMachine19addPassesToEmitFileERNS_6legacy15PassManagerBaseERNS_17raw_pwrite_streamEPS4_NS_15CodeGenFileTypeEbPNS_28MachineModuleInfoWrapperPassE
   fun:ac_create_llvm_passes
   fun:si_create_llvm_compiler
   fun:si_shader_select_with_key<false, si_shader_key_ge>
   fun:si_shader_select
}
{
   <insert_a_suppression_name_here>
   Memcheck:Leak
   match-leak-kinds: possible
   fun:_Znwm
   fun:_ZN4llvm17PMTopLevelManager12schedulePassEPNS_4PassE
   fun:_ZN4llvm16TargetPassConfig7addPassEPNS_4PassE
   fun:_ZN4llvm16TargetPassConfig11addIRPassesEv
   fun:_ZN4llvm16AMDGPUPassConfig11addIRPassesEv
   fun:_ZN4llvm16TargetPassConfig13addISelPassesEv
   fun:_ZL23addPassesToGenerateCodeRN4llvm17LLVMTargetMachineERNS_6legacy15PassManagerBaseEbRNS_28MachineModuleInfoWrapperPassE
   fun:_ZN4llvm17LLVMTargetMachine19addPassesToEmitFileERNS_6legacy15PassManagerBaseERNS_17raw_pwrite_streamEPS4_NS_15CodeGenFileTypeEbPNS_28MachineModuleInfoWrapperPassE
   fun:ac_create_llvm_passes
   fun:si_create_llvm_compiler
   fun:si_shader_select_with_key<false, si_shader_key_ge>
   fun:si_shader_select
   fun:_Z17si_update_shadersIL13amd_gfx_level11EL11si_has_tess0EL9si_has_gs0EL10si_has_ngg0EEbP10si_context
}
{
   <insert_a_suppression_name_here>
   Memcheck:Leak
   match-leak-kinds: possible
   fun:_Znwm
   fun:_ZN4llvm35createCanonicalizeFreezeInLoopsPassEv
   fun:_ZN4llvm16TargetPassConfig11addIRPassesEv
   fun:_ZN4llvm16AMDGPUPassConfig11addIRPassesEv
   fun:_ZN4llvm16TargetPassConfig13addISelPassesEv
   fun:_ZL23addPassesToGenerateCodeRN4llvm17LLVMTargetMachineERNS_6legacy15PassManagerBaseEbRNS_28MachineModuleInfoWrapperPassE
   fun:_ZN4llvm17LLVMTargetMachine19addPassesToEmitFileERNS_6legacy15PassManagerBaseERNS_17raw_pwrite_streamEPS4_NS_15CodeGenFileTypeEbPNS_28MachineModuleInfoWrapperPassE
   fun:ac_create_llvm_passes
   fun:si_create_llvm_compiler
   fun:si_shader_select_with_key<false, si_shader_key_ge>
   fun:si_shader_select
   fun:_Z17si_update_shadersIL13amd_gfx_level11EL11si_has_tess0EL9si_has_gs0EL10si_has_ngg0EEbP10si_context
   fun:si_draw<(amd_gfx_level)11, (si_has_tess)0, (si_has_gs)0, (si_has_ngg)0, (si_is_draw_vertex_state)0, (si_has_sh_pairs_packed)0, (util_popcnt)0>
   fun:_Z11si_draw_vboIL13amd_gfx_level11EL11si_has_tess0EL9si_has_gs0EL10si_has_ngg0EL22si_has_sh_pairs_packed0EEvP12pipe_contextPK14pipe_draw_infojPK23pipe_draw_indirect_infoPK26pipe_draw_start_count_biasj
}
{
   <insert_a_suppression_name_here>
   Memcheck:Leak
   match-leak-kinds: possible
   fun:_Znwm
   fun:_ZN4llvm13PMDataManager3addEPNS_4PassEb
   fun:_ZN4llvm17PMTopLevelManager12schedulePassEPNS_4PassE
   fun:_ZN4llvm16TargetPassConfig7addPassEPNS_4PassE
   fun:_ZN4llvm16TargetPassConfig11addIRPassesEv
   fun:_ZN4llvm16AMDGPUPassConfig11addIRPassesEv
   fun:_ZN4llvm16TargetPassConfig13addISelPassesEv
   fun:_ZL23addPassesToGenerateCodeRN4llvm17LLVMTargetMachineERNS_6legacy15PassManagerBaseEbRNS_28MachineModuleInfoWrapperPassE
   fun:_ZN4llvm17LLVMTargetMachine19addPassesToEmitFileERNS_6legacy15PassManagerBaseERNS_17raw_pwrite_streamEPS4_NS_15CodeGenFileTypeEbPNS_28MachineModuleInfoWrapperPassE
   fun:ac_create_llvm_passes
   fun:si_create_llvm_compiler
   fun:si_shader_select_with_key<false, si_shader_key_ge>
   fun:si_shader_select
}
{
   <insert_a_suppression_name_here>
   Memcheck:Leak
   match-leak-kinds: possible
   fun:_Znwm
   fun:_ZN4llvm28createLoopStrengthReducePassEv
   fun:_ZN4llvm16TargetPassConfig11addIRPassesEv
   fun:_ZN4llvm16AMDGPUPassConfig11addIRPassesEv
   fun:_ZN4llvm16TargetPassConfig13addISelPassesEv
   fun:_ZL23addPassesToGenerateCodeRN4llvm17LLVMTargetMachineERNS_6legacy15PassManagerBaseEbRNS_28MachineModuleInfoWrapperPassE
   fun:_ZN4llvm17LLVMTargetMachine19addPassesToEmitFileERNS_6legacy15PassManagerBaseERNS_17raw_pwrite_streamEPS4_NS_15CodeGenFileTypeEbPNS_28MachineModuleInfoWrapperPassE
   fun:ac_create_llvm_passes
   fun:si_create_llvm_compiler
   fun:si_shader_select_with_key<false, si_shader_key_ge>
   fun:si_shader_select
   fun:_Z17si_update_shadersIL13amd_gfx_level11EL11si_has_tess0EL9si_has_gs0EL10si_has_ngg0EEbP10si_context
   fun:si_draw<(amd_gfx_level)11, (si_has_tess)0, (si_has_gs)0, (si_has_ngg)0, (si_is_draw_vertex_state)0, (si_has_sh_pairs_packed)0, (util_popcnt)0>
   fun:_Z11si_draw_vboIL13amd_gfx_level11EL11si_has_tess0EL9si_has_gs0EL10si_has_ngg0EL22si_has_sh_pairs_packed0EEvP12pipe_contextPK14pipe_draw_infojPK23pipe_draw_indirect_infoPK26pipe_draw_start_count_biasj
}
{
   <insert_a_suppression_name_here>
   Memcheck:Leak
   match-leak-kinds: possible
   fun:_Znwm
   fun:_ZN4llvm26createMergeICmpsLegacyPassEv
   fun:_ZN4llvm16TargetPassConfig11addIRPassesEv
   fun:_ZN4llvm16AMDGPUPassConfig11addIRPassesEv
   fun:_ZN4llvm16TargetPassConfig13addISelPassesEv
   fun:_ZL23addPassesToGenerateCodeRN4llvm17LLVMTargetMachineERNS_6legacy15PassManagerBaseEbRNS_28MachineModuleInfoWrapperPassE
   fun:_ZN4llvm17LLVMTargetMachine19addPassesToEmitFileERNS_6legacy15PassManagerBaseERNS_17raw_pwrite_streamEPS4_NS_15CodeGenFileTypeEbPNS_28MachineModuleInfoWrapperPassE
   fun:ac_create_llvm_passes
   fun:si_create_llvm_compiler
   fun:si_shader_select_with_key<false, si_shader_key_ge>
   fun:si_shader_select
   fun:_Z17si_update_shadersIL13amd_gfx_level11EL11si_has_tess0EL9si_has_gs0EL10si_has_ngg0EEbP10si_context
   fun:si_draw<(amd_gfx_level)11, (si_has_tess)0, (si_has_gs)0, (si_has_ngg)0, (si_is_draw_vertex_state)0, (si_has_sh_pairs_packed)0, (util_popcnt)0>
   fun:_Z11si_draw_vboIL13amd_gfx_level11EL11si_has_tess0EL9si_has_gs0EL10si_has_ngg0EL22si_has_sh_pairs_packed0EEvP12pipe_contextPK14pipe_draw_infojPK23pipe_draw_indirect_infoPK26pipe_draw_start_count_biasj
}
{
   <insert_a_suppression_name_here>
   Memcheck:Leak
   match-leak-kinds: possible
   fun:_Znwm
   fun:_ZN4llvm28createExpandMemCmpLegacyPassEv
   fun:_ZN4llvm16TargetPassConfig11addIRPassesEv
   fun:_ZN4llvm16AMDGPUPassConfig11addIRPassesEv
   fun:_ZN4llvm16TargetPassConfig13addISelPassesEv
   fun:_ZL23addPassesToGenerateCodeRN4llvm17LLVMTargetMachineERNS_6legacy15PassManagerBaseEbRNS_28MachineModuleInfoWrapperPassE
   fun:_ZN4llvm17LLVMTargetMachine19addPassesToEmitFileERNS_6legacy15PassManagerBaseERNS_17raw_pwrite_streamEPS4_NS_15CodeGenFileTypeEbPNS_28MachineModuleInfoWrapperPassE
   fun:ac_create_llvm_passes
   fun:si_create_llvm_compiler
   fun:si_shader_select_with_key<false, si_shader_key_ge>
   fun:si_shader_select
   fun:_Z17si_update_shadersIL13amd_gfx_level11EL11si_has_tess0EL9si_has_gs0EL10si_has_ngg0EEbP10si_context
   fun:si_draw<(amd_gfx_level)11, (si_has_tess)0, (si_has_gs)0, (si_has_ngg)0, (si_is_draw_vertex_state)0, (si_has_sh_pairs_packed)0, (util_popcnt)0>
   fun:_Z11si_draw_vboIL13amd_gfx_level11EL11si_has_tess0EL9si_has_gs0EL10si_has_ngg0EL22si_has_sh_pairs_packed0EEvP12pipe_contextPK14pipe_draw_infojPK23pipe_draw_indirect_infoPK26pipe_draw_start_count_biasj
}
{
   <insert_a_suppression_name_here>
   Memcheck:Leak
   match-leak-kinds: possible
   fun:_Znwm
   fun:_ZN4llvm33createLowerConstantIntrinsicsPassEv
   fun:_ZN4llvm16TargetPassConfig11addIRPassesEv
   fun:_ZN4llvm16AMDGPUPassConfig11addIRPassesEv
   fun:_ZN4llvm16TargetPassConfig13addISelPassesEv
   fun:_ZL23addPassesToGenerateCodeRN4llvm17LLVMTargetMachineERNS_6legacy15PassManagerBaseEbRNS_28MachineModuleInfoWrapperPassE
   fun:_ZN4llvm17LLVMTargetMachine19addPassesToEmitFileERNS_6legacy15PassManagerBaseERNS_17raw_pwrite_streamEPS4_NS_15CodeGenFileTypeEbPNS_28MachineModuleInfoWrapperPassE
   fun:ac_create_llvm_passes
   fun:si_create_llvm_compiler
   fun:si_shader_select_with_key<false, si_shader_key_ge>
   fun:si_shader_select
   fun:_Z17si_update_shadersIL13amd_gfx_level11EL11si_has_tess0EL9si_has_gs0EL10si_has_ngg0EEbP10si_context
   fun:si_draw<(amd_gfx_level)11, (si_has_tess)0, (si_has_gs)0, (si_has_ngg)0, (si_is_draw_vertex_state)0, (si_has_sh_pairs_packed)0, (util_popcnt)0>
   fun:_Z11si_draw_vboIL13amd_gfx_level11EL11si_has_tess0EL9si_has_gs0EL10si_has_ngg0EL22si_has_sh_pairs_packed0EEvP12pipe_contextPK14pipe_draw_infojPK23pipe_draw_indirect_infoPK26pipe_draw_start_count_biasj
}
{
   <insert_a_suppression_name_here>
   Memcheck:Leak
   match-leak-kinds: possible
   fun:_Znwm
   fun:_ZN4llvm37createUnreachableBlockEliminationPassEv
   fun:_ZN4llvm16TargetPassConfig11addIRPassesEv
   fun:_ZN4llvm16AMDGPUPassConfig11addIRPassesEv
   fun:_ZN4llvm16TargetPassConfig13addISelPassesEv
   fun:_ZL23addPassesToGenerateCodeRN4llvm17LLVMTargetMachineERNS_6legacy15PassManagerBaseEbRNS_28MachineModuleInfoWrapperPassE
   fun:_ZN4llvm17LLVMTargetMachine19addPassesToEmitFileERNS_6legacy15PassManagerBaseERNS_17raw_pwrite_streamEPS4_NS_15CodeGenFileTypeEbPNS_28MachineModuleInfoWrapperPassE
   fun:ac_create_llvm_passes
   fun:si_create_llvm_compiler
   fun:si_shader_select_with_key<false, si_shader_key_ge>
   fun:si_shader_select
   fun:_Z17si_update_shadersIL13amd_gfx_level11EL11si_has_tess0EL9si_has_gs0EL10si_has_ngg0EEbP10si_context
   fun:si_draw<(amd_gfx_level)11, (si_has_tess)0, (si_has_gs)0, (si_has_ngg)0, (si_is_draw_vertex_state)0, (si_has_sh_pairs_packed)0, (util_popcnt)0>
   fun:_Z11si_draw_vboIL13amd_gfx_level11EL11si_has_tess0EL9si_has_gs0EL10si_has_ngg0EL22si_has_sh_pairs_packed0EEvP12pipe_contextPK14pipe_draw_infojPK23pipe_draw_indirect_infoPK26pipe_draw_start_count_biasj
}
{
   <insert_a_suppression_name_here>
   Memcheck:Leak
   match-leak-kinds: possible
   fun:_Znwm
   fun:_ZN4llvm33createReplaceWithVeclibLegacyPassEv
   fun:_ZN4llvm16TargetPassConfig11addIRPassesEv
   fun:_ZN4llvm16AMDGPUPassConfig11addIRPassesEv
   fun:_ZN4llvm16TargetPassConfig13addISelPassesEv
   fun:_ZL23addPassesToGenerateCodeRN4llvm17LLVMTargetMachineERNS_6legacy15PassManagerBaseEbRNS_28MachineModuleInfoWrapperPassE
   fun:_ZN4llvm17LLVMTargetMachine19addPassesToEmitFileERNS_6legacy15PassManagerBaseERNS_17raw_pwrite_streamEPS4_NS_15CodeGenFileTypeEbPNS_28MachineModuleInfoWrapperPassE
   fun:ac_create_llvm_passes
   fun:si_create_llvm_compiler
   fun:si_shader_select_with_key<false, si_shader_key_ge>
   fun:si_shader_select
   fun:_Z17si_update_shadersIL13amd_gfx_level11EL11si_has_tess0EL9si_has_gs0EL10si_has_ngg0EEbP10si_context
   fun:si_draw<(amd_gfx_level)11, (si_has_tess)0, (si_has_gs)0, (si_has_ngg)0, (si_is_draw_vertex_state)0, (si_has_sh_pairs_packed)0, (util_popcnt)0>
   fun:_Z11si_draw_vboIL13amd_gfx_level11EL11si_has_tess0EL9si_has_gs0EL10si_has_ngg0EL22si_has_sh_pairs_packed0EEvP12pipe_contextPK14pipe_draw_infojPK23pipe_draw_indirect_infoPK26pipe_draw_start_count_biasj
}
{
   <insert_a_suppression_name_here>
   Memcheck:Leak
   match-leak-kinds: possible
   fun:_Znwm
   fun:_ZN4llvm33createPartiallyInlineLibCallsPassEv
   fun:_ZN4llvm16TargetPassConfig11addIRPassesEv
   fun:_ZN4llvm16AMDGPUPassConfig11addIRPassesEv
   fun:_ZN4llvm16TargetPassConfig13addISelPassesEv
   fun:_ZL23addPassesToGenerateCodeRN4llvm17LLVMTargetMachineERNS_6legacy15PassManagerBaseEbRNS_28MachineModuleInfoWrapperPassE
   fun:_ZN4llvm17LLVMTargetMachine19addPassesToEmitFileERNS_6legacy15PassManagerBaseERNS_17raw_pwrite_streamEPS4_NS_15CodeGenFileTypeEbPNS_28MachineModuleInfoWrapperPassE
   fun:ac_create_llvm_passes
   fun:si_create_llvm_compiler
   fun:si_shader_select_with_key<false, si_shader_key_ge>
   fun:si_shader_select
   fun:_Z17si_update_shadersIL13amd_gfx_level11EL11si_has_tess0EL9si_has_gs0EL10si_has_ngg0EEbP10si_context
   fun:si_draw<(amd_gfx_level)11, (si_has_tess)0, (si_has_gs)0, (si_has_ngg)0, (si_is_draw_vertex_state)0, (si_has_sh_pairs_packed)0, (util_popcnt)0>
   fun:_Z11si_draw_vboIL13amd_gfx_level11EL11si_has_tess0EL9si_has_gs0EL10si_has_ngg0EL22si_has_sh_pairs_packed0EEvP12pipe_contextPK14pipe_draw_infojPK23pipe_draw_indirect_infoPK26pipe_draw_start_count_biasj
}
{
   <insert_a_suppression_name_here>
   Memcheck:Leak
   match-leak-kinds: possible
   fun:_Znwm
   fun:_ZN4llvm33createExpandVectorPredicationPassEv
   fun:_ZN4llvm16TargetPassConfig11addIRPassesEv
   fun:_ZN4llvm16AMDGPUPassConfig11addIRPassesEv
   fun:_ZN4llvm16TargetPassConfig13addISelPassesEv
   fun:_ZL23addPassesToGenerateCodeRN4llvm17LLVMTargetMachineERNS_6legacy15PassManagerBaseEbRNS_28MachineModuleInfoWrapperPassE
   fun:_ZN4llvm17LLVMTargetMachine19addPassesToEmitFileERNS_6legacy15PassManagerBaseERNS_17raw_pwrite_streamEPS4_NS_15CodeGenFileTypeEbPNS_28MachineModuleInfoWrapperPassE
   fun:ac_create_llvm_passes
   fun:si_create_llvm_compiler
   fun:si_shader_select_with_key<false, si_shader_key_ge>
   fun:si_shader_select
   fun:_Z17si_update_shadersIL13amd_gfx_level11EL11si_has_tess0EL9si_has_gs0EL10si_has_ngg0EEbP10si_context
   fun:si_draw<(amd_gfx_level)11, (si_has_tess)0, (si_has_gs)0, (si_has_ngg)0, (si_is_draw_vertex_state)0, (si_has_sh_pairs_packed)0, (util_popcnt)0>
   fun:_Z11si_draw_vboIL13amd_gfx_level11EL11si_has_tess0EL9si_has_gs0EL10si_has_ngg0EL22si_has_sh_pairs_packed0EEvP12pipe_contextPK14pipe_draw_infojPK23pipe_draw_indirect_infoPK26pipe_draw_start_count_biasj
}
{
   <insert_a_suppression_name_here>
   Memcheck:Leak
   match-leak-kinds: possible
   fun:_Znwm
   fun:_ZN4llvm40createScalarizeMaskedMemIntrinLegacyPassEv
   fun:_ZN4llvm16TargetPassConfig11addIRPassesEv
   fun:_ZN4llvm16AMDGPUPassConfig11addIRPassesEv
   fun:_ZN4llvm16TargetPassConfig13addISelPassesEv
   fun:_ZL23addPassesToGenerateCodeRN4llvm17LLVMTargetMachineERNS_6legacy15PassManagerBaseEbRNS_28MachineModuleInfoWrapperPassE
   fun:_ZN4llvm17LLVMTargetMachine19addPassesToEmitFileERNS_6legacy15PassManagerBaseERNS_17raw_pwrite_streamEPS4_NS_15CodeGenFileTypeEbPNS_28MachineModuleInfoWrapperPassE
   fun:ac_create_llvm_passes
   fun:si_create_llvm_compiler
   fun:si_shader_select_with_key<false, si_shader_key_ge>
   fun:si_shader_select
   fun:_Z17si_update_shadersIL13amd_gfx_level11EL11si_has_tess0EL9si_has_gs0EL10si_has_ngg0EEbP10si_context
   fun:si_draw<(amd_gfx_level)11, (si_has_tess)0, (si_has_gs)0, (si_has_ngg)0, (si_is_draw_vertex_state)0, (si_has_sh_pairs_packed)0, (util_popcnt)0>
   fun:_Z11si_draw_vboIL13amd_gfx_level11EL11si_has_tess0EL9si_has_gs0EL10si_has_ngg0EL22si_has_sh_pairs_packed0EEvP12pipe_contextPK14pipe_draw_infojPK23pipe_draw_indirect_infoPK26pipe_draw_start_count_biasj
}
{
   <insert_a_suppression_name_here>
   Memcheck:Leak
   match-leak-kinds: possible
   fun:_Znwm
   fun:_ZN4llvm26createExpandReductionsPassEv
   fun:_ZN4llvm16TargetPassConfig11addIRPassesEv
   fun:_ZN4llvm16AMDGPUPassConfig11addIRPassesEv
   fun:_ZN4llvm16TargetPassConfig13addISelPassesEv
   fun:_ZL23addPassesToGenerateCodeRN4llvm17LLVMTargetMachineERNS_6legacy15PassManagerBaseEbRNS_28MachineModuleInfoWrapperPassE
   fun:_ZN4llvm17LLVMTargetMachine19addPassesToEmitFileERNS_6legacy15PassManagerBaseERNS_17raw_pwrite_streamEPS4_NS_15CodeGenFileTypeEbPNS_28MachineModuleInfoWrapperPassE
   fun:ac_create_llvm_passes
   fun:si_create_llvm_compiler
   fun:si_shader_select_with_key<false, si_shader_key_ge>
   fun:si_shader_select
   fun:_Z17si_update_shadersIL13amd_gfx_level11EL11si_has_tess0EL9si_has_gs0EL10si_has_ngg0EEbP10si_context
   fun:si_draw<(amd_gfx_level)11, (si_has_tess)0, (si_has_gs)0, (si_has_ngg)0, (si_is_draw_vertex_state)0, (si_has_sh_pairs_packed)0, (util_popcnt)0>
   fun:_Z11si_draw_vboIL13amd_gfx_level11EL11si_has_tess0EL9si_has_gs0EL10si_has_ngg0EL22si_has_sh_pairs_packed0EEvP12pipe_contextPK14pipe_draw_infojPK23pipe_draw_indirect_infoPK26pipe_draw_start_count_biasj
}
{
   <insert_a_suppression_name_here>
   Memcheck:Leak
   match-leak-kinds: possible
   fun:_Znwm
   fun:_ZN4llvm18createEarlyCSEPassEb
   fun:addEarlyCSEOrGVNPass
   fun:_ZN4llvm16AMDGPUPassConfig11addIRPassesEv
   fun:_ZN4llvm16TargetPassConfig13addISelPassesEv
   fun:_ZL23addPassesToGenerateCodeRN4llvm17LLVMTargetMachineERNS_6legacy15PassManagerBaseEbRNS_28MachineModuleInfoWrapperPassE
   fun:_ZN4llvm17LLVMTargetMachine19addPassesToEmitFileERNS_6legacy15PassManagerBaseERNS_17raw_pwrite_streamEPS4_NS_15CodeGenFileTypeEbPNS_28MachineModuleInfoWrapperPassE
   fun:ac_create_llvm_passes
   fun:si_create_llvm_compiler
   fun:si_shader_select_with_key<false, si_shader_key_ge>
   fun:si_shader_select
   fun:_Z17si_update_shadersIL13amd_gfx_level11EL11si_has_tess0EL9si_has_gs0EL10si_has_ngg0EEbP10si_context
   fun:si_draw<(amd_gfx_level)11, (si_has_tess)0, (si_has_gs)0, (si_has_ngg)0, (si_is_draw_vertex_state)0, (si_has_sh_pairs_packed)0, (util_popcnt)0>
   fun:_Z11si_draw_vboIL13amd_gfx_level11EL11si_has_tess0EL9si_has_gs0EL10si_has_ngg0EL22si_has_sh_pairs_packed0EEvP12pipe_contextPK14pipe_draw_infojPK23pipe_draw_indirect_infoPK26pipe_draw_start_count_biasj
   fun:_ZL17si_draw_rectangleP15blitter_contextPvPFS1_S0_Eiiiifj19blitter_attrib_typePK14blitter_attrib
}
{
   <insert_a_suppression_name_here>
   Memcheck:Leak
   match-leak-kinds: possible
   fun:_Znwm
   fun:_ZN4llvm13PMDataManager3addEPNS_4PassEb
   fun:_ZN4llvm17PMTopLevelManager12schedulePassEPNS_4PassE
   fun:_ZN4llvm17PMTopLevelManager12schedulePassEPNS_4PassE
   fun:_ZN4llvm16TargetPassConfig7addPassEPNS_4PassE
   fun:_ZN4llvm16AMDGPUPassConfig17addCodeGenPrepareEv
   fun:_ZN4llvm16TargetPassConfig13addISelPassesEv
   fun:_ZL23addPassesToGenerateCodeRN4llvm17LLVMTargetMachineERNS_6legacy15PassManagerBaseEbRNS_28MachineModuleInfoWrapperPassE
   fun:_ZN4llvm17LLVMTargetMachine19addPassesToEmitFileERNS_6legacy15PassManagerBaseERNS_17raw_pwrite_streamEPS4_NS_15CodeGenFileTypeEbPNS_28MachineModuleInfoWrapperPassE
   fun:ac_create_llvm_passes
   fun:si_create_llvm_compiler
   fun:si_shader_select_with_key<false, si_shader_key_ge>
   fun:si_shader_select
}
{
   <insert_a_suppression_name_here>
   Memcheck:Leak
   match-leak-kinds: possible
   fun:_Znwm
   fun:_ZN4llvm13PMDataManager3addEPNS_4PassEb
   fun:_ZN4llvm16CallGraphSCCPass17assignPassManagerERNS_7PMStackENS_15PassManagerTypeE
   fun:_ZN4llvm17PMTopLevelManager12schedulePassEPNS_4PassE
   fun:_ZN4llvm16TargetPassConfig7addPassEPNS_4PassE
   fun:_ZN4llvm16AMDGPUPassConfig17addCodeGenPrepareEv
   fun:_ZN4llvm16TargetPassConfig13addISelPassesEv
   fun:_ZL23addPassesToGenerateCodeRN4llvm17LLVMTargetMachineERNS_6legacy15PassManagerBaseEbRNS_28MachineModuleInfoWrapperPassE
   fun:_ZN4llvm17LLVMTargetMachine19addPassesToEmitFileERNS_6legacy15PassManagerBaseERNS_17raw_pwrite_streamEPS4_NS_15CodeGenFileTypeEbPNS_28MachineModuleInfoWrapperPassE
   fun:ac_create_llvm_passes
   fun:si_create_llvm_compiler
   fun:si_shader_select_with_key<false, si_shader_key_ge>
   fun:si_shader_select
}
{
   <insert_a_suppression_name_here>
   Memcheck:Leak
   match-leak-kinds: possible
   fun:_Znwm
   fun:_ZN4llvm13PMDataManager3addEPNS_4PassEb
   fun:_ZN4llvm17PMTopLevelManager12schedulePassEPNS_4PassE
   fun:_ZN4llvm16TargetPassConfig7addPassEPNS_4PassE
   fun:_ZN4llvm16AMDGPUPassConfig17addCodeGenPrepareEv
   fun:_ZN4llvm16TargetPassConfig13addISelPassesEv
   fun:_ZL23addPassesToGenerateCodeRN4llvm17LLVMTargetMachineERNS_6legacy15PassManagerBaseEbRNS_28MachineModuleInfoWrapperPassE
   fun:_ZN4llvm17LLVMTargetMachine19addPassesToEmitFileERNS_6legacy15PassManagerBaseERNS_17raw_pwrite_streamEPS4_NS_15CodeGenFileTypeEbPNS_28MachineModuleInfoWrapperPassE
   fun:ac_create_llvm_passes
   fun:si_create_llvm_compiler
   fun:si_shader_select_with_key<false, si_shader_key_ge>
   fun:si_shader_select
   fun:_Z17si_update_shadersIL13amd_gfx_level11EL11si_has_tess0EL9si_has_gs0EL10si_has_ngg0EEbP10si_context
}
{
   <insert_a_suppression_name_here>
   Memcheck:Leak
   match-leak-kinds: possible
   fun:_Znwm
   fun:_ZN4llvm36createAMDGPULowerKernelArgumentsPassEv
   fun:_ZN4llvm16AMDGPUPassConfig17addCodeGenPrepareEv
   fun:_ZN4llvm16TargetPassConfig13addISelPassesEv
   fun:_ZL23addPassesToGenerateCodeRN4llvm17LLVMTargetMachineERNS_6legacy15PassManagerBaseEbRNS_28MachineModuleInfoWrapperPassE
   fun:_ZN4llvm17LLVMTargetMachine19addPassesToEmitFileERNS_6legacy15PassManagerBaseERNS_17raw_pwrite_streamEPS4_NS_15CodeGenFileTypeEbPNS_28MachineModuleInfoWrapperPassE
   fun:ac_create_llvm_passes
   fun:si_create_llvm_compiler
   fun:si_shader_select_with_key<false, si_shader_key_ge>
   fun:si_shader_select
   fun:_Z17si_update_shadersIL13amd_gfx_level11EL11si_has_tess0EL9si_has_gs0EL10si_has_ngg0EEbP10si_context
   fun:si_draw<(amd_gfx_level)11, (si_has_tess)0, (si_has_gs)0, (si_has_ngg)0, (si_is_draw_vertex_state)0, (si_has_sh_pairs_packed)0, (util_popcnt)0>
   fun:_Z11si_draw_vboIL13amd_gfx_level11EL11si_has_tess0EL9si_has_gs0EL10si_has_ngg0EL22si_has_sh_pairs_packed0EEvP12pipe_contextPK14pipe_draw_infojPK23pipe_draw_indirect_infoPK26pipe_draw_start_count_biasj
   fun:_ZL17si_draw_rectangleP15blitter_contextPvPFS1_S0_Eiiiifj19blitter_attrib_typePK14blitter_attrib
}
{
   <insert_a_suppression_name_here>
   Memcheck:Leak
   match-leak-kinds: possible
   fun:_Znwm
   fun:_ZN4llvm13PMDataManager3addEPNS_4PassEb
   fun:_ZN4llvm12FunctionPass17assignPassManagerERNS_7PMStackENS_15PassManagerTypeE
   fun:_ZN4llvm17PMTopLevelManager12schedulePassEPNS_4PassE
   fun:_ZN4llvm16TargetPassConfig7addPassEPNS_4PassE
   fun:_ZN4llvm16AMDGPUPassConfig17addCodeGenPrepareEv
   fun:_ZN4llvm16TargetPassConfig13addISelPassesEv
   fun:_ZL23addPassesToGenerateCodeRN4llvm17LLVMTargetMachineERNS_6legacy15PassManagerBaseEbRNS_28MachineModuleInfoWrapperPassE
   fun:_ZN4llvm17LLVMTargetMachine19addPassesToEmitFileERNS_6legacy15PassManagerBaseERNS_17raw_pwrite_streamEPS4_NS_15CodeGenFileTypeEbPNS_28MachineModuleInfoWrapperPassE
   fun:ac_create_llvm_passes
   fun:si_create_llvm_compiler
   fun:si_shader_select_with_key<false, si_shader_key_ge>
   fun:si_shader_select
}
{
   <insert_a_suppression_name_here>
   Memcheck:Leak
   match-leak-kinds: possible
   fun:_Znwm
   fun:_ZN4llvm30createCodeGenPrepareLegacyPassEv
   fun:addCodeGenPrepare
   fun:_ZN4llvm16TargetPassConfig17addCodeGenPrepareEv
   fun:_ZN4llvm16AMDGPUPassConfig17addCodeGenPrepareEv
   fun:_ZN4llvm16TargetPassConfig13addISelPassesEv
   fun:_ZL23addPassesToGenerateCodeRN4llvm17LLVMTargetMachineERNS_6legacy15PassManagerBaseEbRNS_28MachineModuleInfoWrapperPassE
   fun:_ZN4llvm17LLVMTargetMachine19addPassesToEmitFileERNS_6legacy15PassManagerBaseERNS_17raw_pwrite_streamEPS4_NS_15CodeGenFileTypeEbPNS_28MachineModuleInfoWrapperPassE
   fun:ac_create_llvm_passes
   fun:si_create_llvm_compiler
   fun:si_shader_select_with_key<false, si_shader_key_ge>
   fun:si_shader_select
   fun:_Z17si_update_shadersIL13amd_gfx_level11EL11si_has_tess0EL9si_has_gs0EL10si_has_ngg0EEbP10si_context
   fun:si_draw<(amd_gfx_level)11, (si_has_tess)0, (si_has_gs)0, (si_has_ngg)0, (si_is_draw_vertex_state)0, (si_has_sh_pairs_packed)0, (util_popcnt)0>
   fun:_Z11si_draw_vboIL13amd_gfx_level11EL11si_has_tess0EL9si_has_gs0EL10si_has_ngg0EL22si_has_sh_pairs_packed0EEvP12pipe_contextPK14pipe_draw_infojPK23pipe_draw_indirect_infoPK26pipe_draw_start_count_biasj
}
{
   <insert_a_suppression_name_here>
   Memcheck:Leak
   match-leak-kinds: possible
   fun:_Znwm
   fun:_ZN4llvm29createLoadStoreVectorizerPassEv
   fun:_ZN4llvm16AMDGPUPassConfig17addCodeGenPrepareEv
   fun:_ZN4llvm16TargetPassConfig13addISelPassesEv
   fun:_ZL23addPassesToGenerateCodeRN4llvm17LLVMTargetMachineERNS_6legacy15PassManagerBaseEbRNS_28MachineModuleInfoWrapperPassE
   fun:_ZN4llvm17LLVMTargetMachine19addPassesToEmitFileERNS_6legacy15PassManagerBaseERNS_17raw_pwrite_streamEPS4_NS_15CodeGenFileTypeEbPNS_28MachineModuleInfoWrapperPassE
   fun:ac_create_llvm_passes
   fun:si_create_llvm_compiler
   fun:si_shader_select_with_key<false, si_shader_key_ge>
   fun:si_shader_select
   fun:_Z17si_update_shadersIL13amd_gfx_level11EL11si_has_tess0EL9si_has_gs0EL10si_has_ngg0EEbP10si_context
   fun:si_draw<(amd_gfx_level)11, (si_has_tess)0, (si_has_gs)0, (si_has_ngg)0, (si_is_draw_vertex_state)0, (si_has_sh_pairs_packed)0, (util_popcnt)0>
   fun:_Z11si_draw_vboIL13amd_gfx_level11EL11si_has_tess0EL9si_has_gs0EL10si_has_ngg0EL22si_has_sh_pairs_packed0EEvP12pipe_contextPK14pipe_draw_infojPK23pipe_draw_indirect_infoPK26pipe_draw_start_count_biasj
   fun:_ZL17si_draw_rectangleP15blitter_contextPvPFS1_S0_Eiiiifj19blitter_attrib_typePK14blitter_attrib
}
{
   <insert_a_suppression_name_here>
   Memcheck:Leak
   match-leak-kinds: possible
   fun:_Znwm
   fun:_ZN4llvm21createLowerSwitchPassEv
   fun:_ZN4llvm16AMDGPUPassConfig17addCodeGenPrepareEv
   fun:_ZN4llvm16TargetPassConfig13addISelPassesEv
   fun:_ZL23addPassesToGenerateCodeRN4llvm17LLVMTargetMachineERNS_6legacy15PassManagerBaseEbRNS_28MachineModuleInfoWrapperPassE
   fun:_ZN4llvm17LLVMTargetMachine19addPassesToEmitFileERNS_6legacy15PassManagerBaseERNS_17raw_pwrite_streamEPS4_NS_15CodeGenFileTypeEbPNS_28MachineModuleInfoWrapperPassE
   fun:ac_create_llvm_passes
   fun:si_create_llvm_compiler
   fun:si_shader_select_with_key<false, si_shader_key_ge>
   fun:si_shader_select
   fun:_Z17si_update_shadersIL13amd_gfx_level11EL11si_has_tess0EL9si_has_gs0EL10si_has_ngg0EEbP10si_context
   fun:si_draw<(amd_gfx_level)11, (si_has_tess)0, (si_has_gs)0, (si_has_ngg)0, (si_is_draw_vertex_state)0, (si_has_sh_pairs_packed)0, (util_popcnt)0>
   fun:_Z11si_draw_vboIL13amd_gfx_level11EL11si_has_tess0EL9si_has_gs0EL10si_has_ngg0EL22si_has_sh_pairs_packed0EEvP12pipe_contextPK14pipe_draw_infojPK23pipe_draw_indirect_infoPK26pipe_draw_start_count_biasj
   fun:_ZL17si_draw_rectangleP15blitter_contextPvPFS1_S0_Eiiiifj19blitter_attrib_typePK14blitter_attrib
}
{
   <insert_a_suppression_name_here>
   Memcheck:Leak
   match-leak-kinds: possible
   fun:_Znwm
   fun:_ZN4llvm13PMDataManager3addEPNS_4PassEb
   fun:_ZN4llvm17PMTopLevelManager12schedulePassEPNS_4PassE
   fun:_ZN4llvm17PMTopLevelManager12schedulePassEPNS_4PassE
   fun:_ZN4llvm16TargetPassConfig7addPassEPNS_4PassE
   fun:_ZN4llvm16TargetPassConfig13addISelPassesEv
   fun:_ZL23addPassesToGenerateCodeRN4llvm17LLVMTargetMachineERNS_6legacy15PassManagerBaseEbRNS_28MachineModuleInfoWrapperPassE
   fun:_ZN4llvm17LLVMTargetMachine19addPassesToEmitFileERNS_6legacy15PassManagerBaseERNS_17raw_pwrite_streamEPS4_NS_15CodeGenFileTypeEbPNS_28MachineModuleInfoWrapperPassE
   fun:ac_create_llvm_passes
   fun:si_create_llvm_compiler
   fun:si_shader_select_with_key<false, si_shader_key_ge>
   fun:si_shader_select
   fun:_Z17si_update_shadersIL13amd_gfx_level11EL11si_has_tess0EL9si_has_gs0EL10si_has_ngg0EEbP10si_context
}
{
   <insert_a_suppression_name_here>
   Memcheck:Leak
   match-leak-kinds: possible
   fun:_Znwm
   fun:_ZN4llvm21createLowerInvokePassEv
   fun:_ZN4llvm16TargetPassConfig27addPassesToHandleExceptionsEv
   fun:_ZN4llvm16TargetPassConfig13addISelPassesEv
   fun:_ZL23addPassesToGenerateCodeRN4llvm17LLVMTargetMachineERNS_6legacy15PassManagerBaseEbRNS_28MachineModuleInfoWrapperPassE
   fun:_ZN4llvm17LLVMTargetMachine19addPassesToEmitFileERNS_6legacy15PassManagerBaseERNS_17raw_pwrite_streamEPS4_NS_15CodeGenFileTypeEbPNS_28MachineModuleInfoWrapperPassE
   fun:ac_create_llvm_passes
   fun:si_create_llvm_compiler
   fun:si_shader_select_with_key<false, si_shader_key_ge>
   fun:si_shader_select
   fun:_Z17si_update_shadersIL13amd_gfx_level11EL11si_has_tess0EL9si_has_gs0EL10si_has_ngg0EEbP10si_context
   fun:si_draw<(amd_gfx_level)11, (si_has_tess)0, (si_has_gs)0, (si_has_ngg)0, (si_is_draw_vertex_state)0, (si_has_sh_pairs_packed)0, (util_popcnt)0>
   fun:_Z11si_draw_vboIL13amd_gfx_level11EL11si_has_tess0EL9si_has_gs0EL10si_has_ngg0EL22si_has_sh_pairs_packed0EEvP12pipe_contextPK14pipe_draw_infojPK23pipe_draw_indirect_infoPK26pipe_draw_start_count_biasj
   fun:_ZL17si_draw_rectangleP15blitter_contextPvPFS1_S0_Eiiiifj19blitter_attrib_typePK14blitter_attrib
}
{
   <insert_a_suppression_name_here>
   Memcheck:Leak
   match-leak-kinds: possible
   fun:_Znwm
   fun:_ZN4llvm13PMDataManager3addEPNS_4PassEb
   fun:_ZN4llvm17PMTopLevelManager12schedulePassEPNS_4PassE
   fun:_ZN4llvm16TargetPassConfig7addPassEPNS_4PassE
   fun:_ZN4llvm16TargetPassConfig27addPassesToHandleExceptionsEv
   fun:_ZN4llvm16TargetPassConfig13addISelPassesEv
   fun:_ZL23addPassesToGenerateCodeRN4llvm17LLVMTargetMachineERNS_6legacy15PassManagerBaseEbRNS_28MachineModuleInfoWrapperPassE
   fun:_ZN4llvm17LLVMTargetMachine19addPassesToEmitFileERNS_6legacy15PassManagerBaseERNS_17raw_pwrite_streamEPS4_NS_15CodeGenFileTypeEbPNS_28MachineModuleInfoWrapperPassE
   fun:ac_create_llvm_passes
   fun:si_create_llvm_compiler
   fun:si_shader_select_with_key<false, si_shader_key_ge>
   fun:si_shader_select
   fun:_Z17si_update_shadersIL13amd_gfx_level11EL11si_has_tess0EL9si_has_gs0EL10si_has_ngg0EEbP10si_context
}
{
   <insert_a_suppression_name_here>
   Memcheck:Leak
   match-leak-kinds: possible
   fun:_Znwm
   fun:_ZN4llvm37createUnreachableBlockEliminationPassEv
   fun:_ZN4llvm16TargetPassConfig27addPassesToHandleExceptionsEv
   fun:_ZN4llvm16TargetPassConfig13addISelPassesEv
   fun:_ZL23addPassesToGenerateCodeRN4llvm17LLVMTargetMachineERNS_6legacy15PassManagerBaseEbRNS_28MachineModuleInfoWrapperPassE
   fun:_ZN4llvm17LLVMTargetMachine19addPassesToEmitFileERNS_6legacy15PassManagerBaseERNS_17raw_pwrite_streamEPS4_NS_15CodeGenFileTypeEbPNS_28MachineModuleInfoWrapperPassE
   fun:ac_create_llvm_passes
   fun:si_create_llvm_compiler
   fun:si_shader_select_with_key<false, si_shader_key_ge>
   fun:si_shader_select
   fun:_Z17si_update_shadersIL13amd_gfx_level11EL11si_has_tess0EL9si_has_gs0EL10si_has_ngg0EEbP10si_context
   fun:si_draw<(amd_gfx_level)11, (si_has_tess)0, (si_has_gs)0, (si_has_ngg)0, (si_is_draw_vertex_state)0, (si_has_sh_pairs_packed)0, (util_popcnt)0>
   fun:_Z11si_draw_vboIL13amd_gfx_level11EL11si_has_tess0EL9si_has_gs0EL10si_has_ngg0EL22si_has_sh_pairs_packed0EEvP12pipe_contextPK14pipe_draw_infojPK23pipe_draw_indirect_infoPK26pipe_draw_start_count_biasj
   fun:_ZL17si_draw_rectangleP15blitter_contextPvPFS1_S0_Eiiiifj19blitter_attrib_typePK14blitter_attrib
}
{
   <insert_a_suppression_name_here>
   Memcheck:Leak
   match-leak-kinds: possible
   fun:_Znwm
   fun:_ZN4llvm13PMDataManager3addEPNS_4PassEb
   fun:_ZN4llvm17PMTopLevelManager12schedulePassEPNS_4PassE
   fun:_ZN4llvm16TargetPassConfig7addPassEPNS_4PassE
   fun:addPreISel
   fun:addPreISel
   fun:_ZN12_GLOBAL__N_113GCNPassConfig10addPreISelEv
   fun:_ZN4llvm16TargetPassConfig14addISelPrepareEv
   fun:_ZN4llvm16TargetPassConfig13addISelPassesEv
   fun:_ZL23addPassesToGenerateCodeRN4llvm17LLVMTargetMachineERNS_6legacy15PassManagerBaseEbRNS_28MachineModuleInfoWrapperPassE
   fun:_ZN4llvm17LLVMTargetMachine19addPassesToEmitFileERNS_6legacy15PassManagerBaseERNS_17raw_pwrite_streamEPS4_NS_15CodeGenFileTypeEbPNS_28MachineModuleInfoWrapperPassE
   fun:ac_create_llvm_passes
   fun:si_create_llvm_compiler
   fun:si_shader_select_with_key<false, si_shader_key_ge>
   fun:si_shader_select
}
{
   <insert_a_suppression_name_here>
   Memcheck:Leak
   match-leak-kinds: possible
   fun:_Znwm
   fun:_ZN4llvm13PMDataManager3addEPNS_4PassEb
   fun:_ZN4llvm17PMTopLevelManager12schedulePassEPNS_4PassE
   fun:_ZN4llvm16TargetPassConfig7addPassEPNS_4PassE
   fun:_ZN12_GLOBAL__N_113GCNPassConfig10addPreISelEv
   fun:_ZN4llvm16TargetPassConfig14addISelPrepareEv
   fun:_ZN4llvm16TargetPassConfig13addISelPassesEv
   fun:_ZL23addPassesToGenerateCodeRN4llvm17LLVMTargetMachineERNS_6legacy15PassManagerBaseEbRNS_28MachineModuleInfoWrapperPassE
   fun:_ZN4llvm17LLVMTargetMachine19addPassesToEmitFileERNS_6legacy15PassManagerBaseERNS_17raw_pwrite_streamEPS4_NS_15CodeGenFileTypeEbPNS_28MachineModuleInfoWrapperPassE
   fun:ac_create_llvm_passes
   fun:si_create_llvm_compiler
   fun:si_shader_select_with_key<false, si_shader_key_ge>
   fun:si_shader_select
}
{
   <insert_a_suppression_name_here>
   Memcheck:Leak
   match-leak-kinds: possible
   fun:_Znwm
   fun:_ZN4llvm17createSinkingPassEv
   fun:_ZN12_GLOBAL__N_113GCNPassConfig10addPreISelEv
   fun:_ZN4llvm16TargetPassConfig14addISelPrepareEv
   fun:_ZN4llvm16TargetPassConfig13addISelPassesEv
   fun:_ZL23addPassesToGenerateCodeRN4llvm17LLVMTargetMachineERNS_6legacy15PassManagerBaseEbRNS_28MachineModuleInfoWrapperPassE
   fun:_ZN4llvm17LLVMTargetMachine19addPassesToEmitFileERNS_6legacy15PassManagerBaseERNS_17raw_pwrite_streamEPS4_NS_15CodeGenFileTypeEbPNS_28MachineModuleInfoWrapperPassE
   fun:ac_create_llvm_passes
   fun:si_create_llvm_compiler
   fun:si_shader_select_with_key<false, si_shader_key_ge>
   fun:si_shader_select
   fun:_Z17si_update_shadersIL13amd_gfx_level11EL11si_has_tess0EL9si_has_gs0EL10si_has_ngg0EEbP10si_context
   fun:si_draw<(amd_gfx_level)11, (si_has_tess)0, (si_has_gs)0, (si_has_ngg)0, (si_is_draw_vertex_state)0, (si_has_sh_pairs_packed)0, (util_popcnt)0>
   fun:_Z11si_draw_vboIL13amd_gfx_level11EL11si_has_tess0EL9si_has_gs0EL10si_has_ngg0EL22si_has_sh_pairs_packed0EEvP12pipe_contextPK14pipe_draw_infojPK23pipe_draw_indirect_infoPK26pipe_draw_start_count_biasj
}
{
   <insert_a_suppression_name_here>
   Memcheck:Leak
   match-leak-kinds: possible
   fun:_Znwm
   fun:_ZN4llvm15callDefaultCtorIN12_GLOBAL__N_129AMDGPUUnifyDivergentExitNodesELb1EEEPNS_4PassEv
   fun:_ZN4llvm16TargetPassConfig7addPassEPKv
   fun:_ZN12_GLOBAL__N_113GCNPassConfig10addPreISelEv
   fun:_ZN4llvm16TargetPassConfig14addISelPrepareEv
   fun:_ZN4llvm16TargetPassConfig13addISelPassesEv
   fun:_ZL23addPassesToGenerateCodeRN4llvm17LLVMTargetMachineERNS_6legacy15PassManagerBaseEbRNS_28MachineModuleInfoWrapperPassE
   fun:_ZN4llvm17LLVMTargetMachine19addPassesToEmitFileERNS_6legacy15PassManagerBaseERNS_17raw_pwrite_streamEPS4_NS_15CodeGenFileTypeEbPNS_28MachineModuleInfoWrapperPassE
   fun:ac_create_llvm_passes
   fun:si_create_llvm_compiler
   fun:si_shader_select_with_key<false, si_shader_key_ge>
   fun:si_shader_select
   fun:_Z17si_update_shadersIL13amd_gfx_level11EL11si_has_tess0EL9si_has_gs0EL10si_has_ngg0EEbP10si_context
}
{
   <insert_a_suppression_name_here>
   Memcheck:Leak
   match-leak-kinds: possible
   fun:_Znwm
   fun:_ZN4llvm24createFixIrreduciblePassEv
   fun:_ZN12_GLOBAL__N_113GCNPassConfig10addPreISelEv
   fun:_ZN4llvm16TargetPassConfig14addISelPrepareEv
   fun:_ZN4llvm16TargetPassConfig13addISelPassesEv
   fun:_ZL23addPassesToGenerateCodeRN4llvm17LLVMTargetMachineERNS_6legacy15PassManagerBaseEbRNS_28MachineModuleInfoWrapperPassE
   fun:_ZN4llvm17LLVMTargetMachine19addPassesToEmitFileERNS_6legacy15PassManagerBaseERNS_17raw_pwrite_streamEPS4_NS_15CodeGenFileTypeEbPNS_28MachineModuleInfoWrapperPassE
   fun:ac_create_llvm_passes
   fun:si_create_llvm_compiler
   fun:si_shader_select_with_key<false, si_shader_key_ge>
   fun:si_shader_select
   fun:_Z17si_update_shadersIL13amd_gfx_level11EL11si_has_tess0EL9si_has_gs0EL10si_has_ngg0EEbP10si_context
   fun:si_draw<(amd_gfx_level)11, (si_has_tess)0, (si_has_gs)0, (si_has_ngg)0, (si_is_draw_vertex_state)0, (si_has_sh_pairs_packed)0, (util_popcnt)0>
   fun:_Z11si_draw_vboIL13amd_gfx_level11EL11si_has_tess0EL9si_has_gs0EL10si_has_ngg0EL22si_has_sh_pairs_packed0EEvP12pipe_contextPK14pipe_draw_infojPK23pipe_draw_indirect_infoPK26pipe_draw_start_count_biasj
}
{
   <insert_a_suppression_name_here>
   Memcheck:Leak
   match-leak-kinds: possible
   fun:_Znwm
   fun:_ZN4llvm24createUnifyLoopExitsPassEv
   fun:_ZN12_GLOBAL__N_113GCNPassConfig10addPreISelEv
   fun:_ZN4llvm16TargetPassConfig14addISelPrepareEv
   fun:_ZN4llvm16TargetPassConfig13addISelPassesEv
   fun:_ZL23addPassesToGenerateCodeRN4llvm17LLVMTargetMachineERNS_6legacy15PassManagerBaseEbRNS_28MachineModuleInfoWrapperPassE
   fun:_ZN4llvm17LLVMTargetMachine19addPassesToEmitFileERNS_6legacy15PassManagerBaseERNS_17raw_pwrite_streamEPS4_NS_15CodeGenFileTypeEbPNS_28MachineModuleInfoWrapperPassE
   fun:ac_create_llvm_passes
   fun:si_create_llvm_compiler
   fun:si_shader_select_with_key<false, si_shader_key_ge>
   fun:si_shader_select
   fun:_Z17si_update_shadersIL13amd_gfx_level11EL11si_has_tess0EL9si_has_gs0EL10si_has_ngg0EEbP10si_context
   fun:si_draw<(amd_gfx_level)11, (si_has_tess)0, (si_has_gs)0, (si_has_ngg)0, (si_is_draw_vertex_state)0, (si_has_sh_pairs_packed)0, (util_popcnt)0>
   fun:_Z11si_draw_vboIL13amd_gfx_level11EL11si_has_tess0EL9si_has_gs0EL10si_has_ngg0EL22si_has_sh_pairs_packed0EEvP12pipe_contextPK14pipe_draw_infojPK23pipe_draw_indirect_infoPK26pipe_draw_start_count_biasj
}
{
   <insert_a_suppression_name_here>
   Memcheck:Leak
   match-leak-kinds: possible
   fun:_Znwm
   fun:_ZN4llvm24createStructurizeCFGPassEb
   fun:_ZN12_GLOBAL__N_113GCNPassConfig10addPreISelEv
   fun:_ZN4llvm16TargetPassConfig14addISelPrepareEv
   fun:_ZN4llvm16TargetPassConfig13addISelPassesEv
   fun:_ZL23addPassesToGenerateCodeRN4llvm17LLVMTargetMachineERNS_6legacy15PassManagerBaseEbRNS_28MachineModuleInfoWrapperPassE
   fun:_ZN4llvm17LLVMTargetMachine19addPassesToEmitFileERNS_6legacy15PassManagerBaseERNS_17raw_pwrite_streamEPS4_NS_15CodeGenFileTypeEbPNS_28MachineModuleInfoWrapperPassE
   fun:ac_create_llvm_passes
   fun:si_create_llvm_compiler
   fun:si_shader_select_with_key<false, si_shader_key_ge>
   fun:si_shader_select
   fun:_Z17si_update_shadersIL13amd_gfx_level11EL11si_has_tess0EL9si_has_gs0EL10si_has_ngg0EEbP10si_context
   fun:si_draw<(amd_gfx_level)11, (si_has_tess)0, (si_has_gs)0, (si_has_ngg)0, (si_is_draw_vertex_state)0, (si_has_sh_pairs_packed)0, (util_popcnt)0>
   fun:_Z11si_draw_vboIL13amd_gfx_level11EL11si_has_tess0EL9si_has_gs0EL10si_has_ngg0EL22si_has_sh_pairs_packed0EEvP12pipe_contextPK14pipe_draw_infojPK23pipe_draw_indirect_infoPK26pipe_draw_start_count_biasj
}
{
   <insert_a_suppression_name_here>
   Memcheck:Leak
   match-leak-kinds: possible
   fun:_Znwm
   fun:_ZN4llvm40createAMDGPURewriteUndefForPHILegacyPassEv
   fun:_ZN12_GLOBAL__N_113GCNPassConfig10addPreISelEv
   fun:_ZN4llvm16TargetPassConfig14addISelPrepareEv
   fun:_ZN4llvm16TargetPassConfig13addISelPassesEv
   fun:_ZL23addPassesToGenerateCodeRN4llvm17LLVMTargetMachineERNS_6legacy15PassManagerBaseEbRNS_28MachineModuleInfoWrapperPassE
   fun:_ZN4llvm17LLVMTargetMachine19addPassesToEmitFileERNS_6legacy15PassManagerBaseERNS_17raw_pwrite_streamEPS4_NS_15CodeGenFileTypeEbPNS_28MachineModuleInfoWrapperPassE
   fun:ac_create_llvm_passes
   fun:si_create_llvm_compiler
   fun:si_shader_select_with_key<false, si_shader_key_ge>
   fun:si_shader_select
   fun:_Z17si_update_shadersIL13amd_gfx_level11EL11si_has_tess0EL9si_has_gs0EL10si_has_ngg0EEbP10si_context
   fun:si_draw<(amd_gfx_level)11, (si_has_tess)0, (si_has_gs)0, (si_has_ngg)0, (si_is_draw_vertex_state)0, (si_has_sh_pairs_packed)0, (util_popcnt)0>
   fun:_Z11si_draw_vboIL13amd_gfx_level11EL11si_has_tess0EL9si_has_gs0EL10si_has_ngg0EL22si_has_sh_pairs_packed0EEvP12pipe_contextPK14pipe_draw_infojPK23pipe_draw_indirect_infoPK26pipe_draw_start_count_biasj
}
{
   <insert_a_suppression_name_here>
   Memcheck:Leak
   match-leak-kinds: possible
   fun:_Znwm
   fun:_ZN4llvm15callDefaultCtorINS_21LCSSAVerificationPassELb1EEEPNS_4PassEv
   fun:createPass
   fun:_ZN4llvm17PMTopLevelManager12schedulePassEPNS_4PassE
   fun:_ZN4llvm16TargetPassConfig7addPassEPNS_4PassE
   fun:_ZN12_GLOBAL__N_113GCNPassConfig10addPreISelEv
   fun:_ZN4llvm16TargetPassConfig14addISelPrepareEv
   fun:_ZN4llvm16TargetPassConfig13addISelPassesEv
   fun:_ZL23addPassesToGenerateCodeRN4llvm17LLVMTargetMachineERNS_6legacy15PassManagerBaseEbRNS_28MachineModuleInfoWrapperPassE
   fun:_ZN4llvm17LLVMTargetMachine19addPassesToEmitFileERNS_6legacy15PassManagerBaseERNS_17raw_pwrite_streamEPS4_NS_15CodeGenFileTypeEbPNS_28MachineModuleInfoWrapperPassE
   fun:ac_create_llvm_passes
   fun:si_create_llvm_compiler
   fun:si_shader_select_with_key<false, si_shader_key_ge>
   fun:si_shader_select
}
{
   <insert_a_suppression_name_here>
   Memcheck:Leak
   match-leak-kinds: possible
   fun:_Znwm
   fun:_ZN4llvm16TargetPassConfig14addISelPrepareEv
   fun:_ZN4llvm16TargetPassConfig13addISelPassesEv
   fun:_ZL23addPassesToGenerateCodeRN4llvm17LLVMTargetMachineERNS_6legacy15PassManagerBaseEbRNS_28MachineModuleInfoWrapperPassE
   fun:_ZN4llvm17LLVMTargetMachine19addPassesToEmitFileERNS_6legacy15PassManagerBaseERNS_17raw_pwrite_streamEPS4_NS_15CodeGenFileTypeEbPNS_28MachineModuleInfoWrapperPassE
   fun:ac_create_llvm_passes
   fun:si_create_llvm_compiler
   fun:si_shader_select_with_key<false, si_shader_key_ge>
   fun:si_shader_select
   fun:_Z17si_update_shadersIL13amd_gfx_level11EL11si_has_tess0EL9si_has_gs0EL10si_has_ngg0EEbP10si_context
   fun:si_draw<(amd_gfx_level)11, (si_has_tess)0, (si_has_gs)0, (si_has_ngg)0, (si_is_draw_vertex_state)0, (si_has_sh_pairs_packed)0, (util_popcnt)0>
   fun:_Z11si_draw_vboIL13amd_gfx_level11EL11si_has_tess0EL9si_has_gs0EL10si_has_ngg0EL22si_has_sh_pairs_packed0EEvP12pipe_contextPK14pipe_draw_infojPK23pipe_draw_indirect_infoPK26pipe_draw_start_count_biasj
   fun:_ZL17si_draw_rectangleP15blitter_contextPvPFS1_S0_Eiiiifj19blitter_attrib_typePK14blitter_attrib
   fun:util_blitter_custom_color
}
{
   <insert_a_suppression_name_here>
   Memcheck:Leak
   match-leak-kinds: possible
   fun:_Znwm
   fun:_ZN4llvm13PMDataManager3addEPNS_4PassEb
   fun:_ZN4llvm17PMTopLevelManager12schedulePassEPNS_4PassE
   fun:_ZN4llvm16TargetPassConfig7addPassEPNS_4PassE
   fun:_ZN4llvm16TargetPassConfig14addISelPrepareEv
   fun:_ZN4llvm16TargetPassConfig13addISelPassesEv
   fun:_ZL23addPassesToGenerateCodeRN4llvm17LLVMTargetMachineERNS_6legacy15PassManagerBaseEbRNS_28MachineModuleInfoWrapperPassE
   fun:_ZN4llvm17LLVMTargetMachine19addPassesToEmitFileERNS_6legacy15PassManagerBaseERNS_17raw_pwrite_streamEPS4_NS_15CodeGenFileTypeEbPNS_28MachineModuleInfoWrapperPassE
   fun:ac_create_llvm_passes
   fun:si_create_llvm_compiler
   fun:si_shader_select_with_key<false, si_shader_key_ge>
   fun:si_shader_select
   fun:_Z17si_update_shadersIL13amd_gfx_level11EL11si_has_tess0EL9si_has_gs0EL10si_has_ngg0EEbP10si_context
}
{
   <insert_a_suppression_name_here>
   Memcheck:Leak
   match-leak-kinds: possible
   fun:_Znwm
   fun:_ZN4llvm16createCallBrPassEv
   fun:_ZN4llvm16TargetPassConfig14addISelPrepareEv
   fun:_ZN4llvm16TargetPassConfig13addISelPassesEv
   fun:_ZL23addPassesToGenerateCodeRN4llvm17LLVMTargetMachineERNS_6legacy15PassManagerBaseEbRNS_28MachineModuleInfoWrapperPassE
   fun:_ZN4llvm17LLVMTargetMachine19addPassesToEmitFileERNS_6legacy15PassManagerBaseERNS_17raw_pwrite_streamEPS4_NS_15CodeGenFileTypeEbPNS_28MachineModuleInfoWrapperPassE
   fun:ac_create_llvm_passes
   fun:si_create_llvm_compiler
   fun:si_shader_select_with_key<false, si_shader_key_ge>
   fun:si_shader_select
   fun:_Z17si_update_shadersIL13amd_gfx_level11EL11si_has_tess0EL9si_has_gs0EL10si_has_ngg0EEbP10si_context
   fun:si_draw<(amd_gfx_level)11, (si_has_tess)0, (si_has_gs)0, (si_has_ngg)0, (si_is_draw_vertex_state)0, (si_has_sh_pairs_packed)0, (util_popcnt)0>
   fun:_Z11si_draw_vboIL13amd_gfx_level11EL11si_has_tess0EL9si_has_gs0EL10si_has_ngg0EL22si_has_sh_pairs_packed0EEvP12pipe_contextPK14pipe_draw_infojPK23pipe_draw_indirect_infoPK26pipe_draw_start_count_biasj
   fun:_ZL17si_draw_rectangleP15blitter_contextPvPFS1_S0_Eiiiifj19blitter_attrib_typePK14blitter_attrib
}
{
   <insert_a_suppression_name_here>
   Memcheck:Leak
   match-leak-kinds: possible
   fun:_Znwm
   fun:_ZN4llvm13PMDataManager3addEPNS_4PassEb
   fun:_ZN4llvm12FunctionPass17assignPassManagerERNS_7PMStackENS_15PassManagerTypeE
   fun:_ZN4llvm17PMTopLevelManager12schedulePassEPNS_4PassE
   fun:_ZN4llvm16TargetPassConfig7addPassEPNS_4PassE
   fun:_ZN4llvm16TargetPassConfig14addISelPrepareEv
   fun:_ZN4llvm16TargetPassConfig13addISelPassesEv
   fun:_ZL23addPassesToGenerateCodeRN4llvm17LLVMTargetMachineERNS_6legacy15PassManagerBaseEbRNS_28MachineModuleInfoWrapperPassE
   fun:_ZN4llvm17LLVMTargetMachine19addPassesToEmitFileERNS_6legacy15PassManagerBaseERNS_17raw_pwrite_streamEPS4_NS_15CodeGenFileTypeEbPNS_28MachineModuleInfoWrapperPassE
   fun:ac_create_llvm_passes
   fun:si_create_llvm_compiler
   fun:si_shader_select_with_key<false, si_shader_key_ge>
   fun:si_shader_select
}
{
   <insert_a_suppression_name_here>
   Memcheck:Leak
   match-leak-kinds: possible
   fun:_Znwm
   fun:_ZN4llvm13PMDataManager3addEPNS_4PassEb
   fun:_ZN4llvm17PMTopLevelManager12schedulePassEPNS_4PassE
   fun:_ZN4llvm16TargetPassConfig7addPassEPNS_4PassE
   fun:addInstSelector
   fun:_ZN12_GLOBAL__N_113GCNPassConfig15addInstSelectorEv
   fun:_ZN4llvm16TargetPassConfig17addCoreISelPassesEv
   fun:_ZL23addPassesToGenerateCodeRN4llvm17LLVMTargetMachineERNS_6legacy15PassManagerBaseEbRNS_28MachineModuleInfoWrapperPassE
   fun:_ZN4llvm17LLVMTargetMachine19addPassesToEmitFileERNS_6legacy15PassManagerBaseERNS_17raw_pwrite_streamEPS4_NS_15CodeGenFileTypeEbPNS_28MachineModuleInfoWrapperPassE
   fun:ac_create_llvm_passes
   fun:si_create_llvm_compiler
   fun:si_shader_select_with_key<false, si_shader_key_ge>
   fun:si_shader_select
   fun:_Z17si_update_shadersIL13amd_gfx_level11EL11si_has_tess0EL9si_has_gs0EL10si_has_ngg0EEbP10si_context
}
{
   <insert_a_suppression_name_here>
   Memcheck:Leak
   match-leak-kinds: possible
   fun:_Znwm
   fun:_ZN4llvm13PMDataManager3addEPNS_4PassEb
   fun:_ZN4llvm17PMTopLevelManager12schedulePassEPNS_4PassE
   fun:_ZN4llvm16TargetPassConfig7addPassEPNS_4PassE
   fun:_ZN4llvm16TargetPassConfig7addPassEPKv
   fun:_ZN12_GLOBAL__N_113GCNPassConfig15addInstSelectorEv
   fun:_ZN4llvm16TargetPassConfig17addCoreISelPassesEv
   fun:_ZL23addPassesToGenerateCodeRN4llvm17LLVMTargetMachineERNS_6legacy15PassManagerBaseEbRNS_28MachineModuleInfoWrapperPassE
   fun:_ZN4llvm17LLVMTargetMachine19addPassesToEmitFileERNS_6legacy15PassManagerBaseERNS_17raw_pwrite_streamEPS4_NS_15CodeGenFileTypeEbPNS_28MachineModuleInfoWrapperPassE
   fun:ac_create_llvm_passes
   fun:si_create_llvm_compiler
   fun:si_shader_select_with_key<false, si_shader_key_ge>
   fun:si_shader_select
}
{
   <insert_a_suppression_name_here>
   Memcheck:Leak
   match-leak-kinds: possible
   fun:_Znwm
   fun:_ZN4llvm13PMDataManager3addEPNS_4PassEb
   fun:_ZN4llvm17PMTopLevelManager12schedulePassEPNS_4PassE
   fun:_ZN4llvm17PMTopLevelManager12schedulePassEPNS_4PassE
   fun:_ZN4llvm16TargetPassConfig7addPassEPNS_4PassE
   fun:_ZN12_GLOBAL__N_113GCNPassConfig15addInstSelectorEv
   fun:_ZN4llvm16TargetPassConfig17addCoreISelPassesEv
   fun:_ZL23addPassesToGenerateCodeRN4llvm17LLVMTargetMachineERNS_6legacy15PassManagerBaseEbRNS_28MachineModuleInfoWrapperPassE
   fun:_ZN4llvm17LLVMTargetMachine19addPassesToEmitFileERNS_6legacy15PassManagerBaseERNS_17raw_pwrite_streamEPS4_NS_15CodeGenFileTypeEbPNS_28MachineModuleInfoWrapperPassE
   fun:ac_create_llvm_passes
   fun:si_create_llvm_compiler
   fun:si_shader_select_with_key<false, si_shader_key_ge>
   fun:si_shader_select
}
{
   <insert_a_suppression_name_here>
   Memcheck:Leak
   match-leak-kinds: possible
   fun:_Znwm
   fun:_ZN4llvm13PMDataManager3addEPNS_4PassEb
   fun:_ZN4llvm17PMTopLevelManager12schedulePassEPNS_4PassE
   fun:_ZN4llvm16TargetPassConfig7addPassEPNS_4PassE
   fun:_ZN12_GLOBAL__N_113GCNPassConfig15addInstSelectorEv
   fun:_ZN4llvm16TargetPassConfig17addCoreISelPassesEv
   fun:_ZL23addPassesToGenerateCodeRN4llvm17LLVMTargetMachineERNS_6legacy15PassManagerBaseEbRNS_28MachineModuleInfoWrapperPassE
   fun:_ZN4llvm17LLVMTargetMachine19addPassesToEmitFileERNS_6legacy15PassManagerBaseERNS_17raw_pwrite_streamEPS4_NS_15CodeGenFileTypeEbPNS_28MachineModuleInfoWrapperPassE
   fun:ac_create_llvm_passes
   fun:si_create_llvm_compiler
   fun:si_shader_select_with_key<false, si_shader_key_ge>
   fun:si_shader_select
   fun:_Z17si_update_shadersIL13amd_gfx_level11EL11si_has_tess0EL9si_has_gs0EL10si_has_ngg0EEbP10si_context
}
{
   <insert_a_suppression_name_here>
   Memcheck:Leak
   match-leak-kinds: possible
   fun:_Znwm
   fun:_ZN4llvm13PMDataManager3addEPNS_4PassEb
   fun:_ZN4llvm17PMTopLevelManager12schedulePassEPNS_4PassE
   fun:_ZN4llvm16TargetPassConfig7addPassEPNS_4PassE
   fun:addPass
   fun:_ZN4llvm16TargetPassConfig17addCoreISelPassesEv
   fun:_ZL23addPassesToGenerateCodeRN4llvm17LLVMTargetMachineERNS_6legacy15PassManagerBaseEbRNS_28MachineModuleInfoWrapperPassE
   fun:_ZN4llvm17LLVMTargetMachine19addPassesToEmitFileERNS_6legacy15PassManagerBaseERNS_17raw_pwrite_streamEPS4_NS_15CodeGenFileTypeEbPNS_28MachineModuleInfoWrapperPassE
   fun:ac_create_llvm_passes
   fun:si_create_llvm_compiler
   fun:si_shader_select_with_key<false, si_shader_key_ge>
   fun:si_shader_select
   fun:_Z17si_update_shadersIL13amd_gfx_level11EL11si_has_tess0EL9si_has_gs0EL10si_has_ngg0EEbP10si_context
   fun:si_draw<(amd_gfx_level)11, (si_has_tess)0, (si_has_gs)0, (si_has_ngg)0, (si_is_draw_vertex_state)0, (si_has_sh_pairs_packed)0, (util_popcnt)0>
   fun:_Z11si_draw_vboIL13amd_gfx_level11EL11si_has_tess0EL9si_has_gs0EL10si_has_ngg0EL22si_has_sh_pairs_packed0EEvP12pipe_contextPK14pipe_draw_infojPK23pipe_draw_indirect_infoPK26pipe_draw_start_count_biasj
}
{
   <insert_a_suppression_name_here>
   Memcheck:Leak
   match-leak-kinds: possible
   fun:_Znwm
   fun:_ZN4llvm15callDefaultCtorINS_28MachineBranchProbabilityInfoELb1EEEPNS_4PassEv
   fun:createPass
   fun:_ZN4llvm17PMTopLevelManager12schedulePassEPNS_4PassE
   fun:_ZN4llvm16TargetPassConfig7addPassEPNS_4PassE
   fun:addPass
   fun:_ZN4llvm16TargetPassConfig25addMachineSSAOptimizationEv
   fun:_ZN12_GLOBAL__N_113GCNPassConfig25addMachineSSAOptimizationEv
   fun:_ZN4llvm16TargetPassConfig16addMachinePassesEv
   fun:_ZL23addPassesToGenerateCodeRN4llvm17LLVMTargetMachineERNS_6legacy15PassManagerBaseEbRNS_28MachineModuleInfoWrapperPassE
   fun:_ZN4llvm17LLVMTargetMachine19addPassesToEmitFileERNS_6legacy15PassManagerBaseERNS_17raw_pwrite_streamEPS4_NS_15CodeGenFileTypeEbPNS_28MachineModuleInfoWrapperPassE
   fun:ac_create_llvm_passes
   fun:si_create_llvm_compiler
   fun:si_shader_select_with_key<false, si_shader_key_ge>
   fun:si_shader_select
}
{
   <insert_a_suppression_name_here>
   Memcheck:Leak
   match-leak-kinds: possible
   fun:_Znwm
   fun:_ZN4llvm17PMTopLevelManager12schedulePassEPNS_4PassE
   fun:_ZN4llvm17PMTopLevelManager12schedulePassEPNS_4PassE
   fun:_ZN4llvm16TargetPassConfig7addPassEPNS_4PassE
   fun:addPass
   fun:_ZN4llvm16TargetPassConfig25addMachineSSAOptimizationEv
   fun:_ZN12_GLOBAL__N_113GCNPassConfig25addMachineSSAOptimizationEv
   fun:_ZN4llvm16TargetPassConfig16addMachinePassesEv
   fun:_ZL23addPassesToGenerateCodeRN4llvm17LLVMTargetMachineERNS_6legacy15PassManagerBaseEbRNS_28MachineModuleInfoWrapperPassE
   fun:_ZN4llvm17LLVMTargetMachine19addPassesToEmitFileERNS_6legacy15PassManagerBaseERNS_17raw_pwrite_streamEPS4_NS_15CodeGenFileTypeEbPNS_28MachineModuleInfoWrapperPassE
   fun:ac_create_llvm_passes
   fun:si_create_llvm_compiler
   fun:si_shader_select_with_key<false, si_shader_key_ge>
   fun:si_shader_select
}
{
   <insert_a_suppression_name_here>
   Memcheck:Leak
   match-leak-kinds: possible
   fun:_Znwm
   fun:_ZN4llvm13PMDataManager3addEPNS_4PassEb
   fun:_ZN4llvm17PMTopLevelManager12schedulePassEPNS_4PassE
   fun:_ZN4llvm16TargetPassConfig7addPassEPNS_4PassE
   fun:addPass
   fun:_ZN4llvm16TargetPassConfig25addMachineSSAOptimizationEv
   fun:_ZN12_GLOBAL__N_113GCNPassConfig25addMachineSSAOptimizationEv
   fun:_ZN4llvm16TargetPassConfig16addMachinePassesEv
   fun:_ZL23addPassesToGenerateCodeRN4llvm17LLVMTargetMachineERNS_6legacy15PassManagerBaseEbRNS_28MachineModuleInfoWrapperPassE
   fun:_ZN4llvm17LLVMTargetMachine19addPassesToEmitFileERNS_6legacy15PassManagerBaseERNS_17raw_pwrite_streamEPS4_NS_15CodeGenFileTypeEbPNS_28MachineModuleInfoWrapperPassE
   fun:ac_create_llvm_passes
   fun:si_create_llvm_compiler
   fun:si_shader_select_with_key<false, si_shader_key_ge>
   fun:si_shader_select
}
{
   <insert_a_suppression_name_here>
   Memcheck:Leak
   match-leak-kinds: possible
   fun:_Znwm
   fun:_ZN4llvm13PMDataManager3addEPNS_4PassEb
   fun:_ZN4llvm17PMTopLevelManager12schedulePassEPNS_4PassE
   fun:_ZN4llvm16TargetPassConfig7addPassEPNS_4PassE
   fun:_ZN12_GLOBAL__N_113GCNPassConfig25addMachineSSAOptimizationEv
   fun:_ZN4llvm16TargetPassConfig16addMachinePassesEv
   fun:_ZL23addPassesToGenerateCodeRN4llvm17LLVMTargetMachineERNS_6legacy15PassManagerBaseEbRNS_28MachineModuleInfoWrapperPassE
   fun:_ZN4llvm17LLVMTargetMachine19addPassesToEmitFileERNS_6legacy15PassManagerBaseERNS_17raw_pwrite_streamEPS4_NS_15CodeGenFileTypeEbPNS_28MachineModuleInfoWrapperPassE
   fun:ac_create_llvm_passes
   fun:si_create_llvm_compiler
   fun:si_shader_select_with_key<false, si_shader_key_ge>
   fun:si_shader_select
   fun:_Z17si_update_shadersIL13amd_gfx_level11EL11si_has_tess0EL9si_has_gs0EL10si_has_ngg0EEbP10si_context
}
{
   <insert_a_suppression_name_here>
   Memcheck:Leak
   match-leak-kinds: possible
   fun:_Znwm
   fun:_ZN4llvm13PMDataManager3addEPNS_4PassEb
   fun:_ZN4llvm17PMTopLevelManager12schedulePassEPNS_4PassE
   fun:_ZN4llvm16TargetPassConfig7addPassEPNS_4PassE
   fun:_ZN4llvm16TargetPassConfig7addPassEPKv
   fun:_ZN12_GLOBAL__N_113GCNPassConfig25addMachineSSAOptimizationEv
   fun:_ZN4llvm16TargetPassConfig16addMachinePassesEv
   fun:_ZL23addPassesToGenerateCodeRN4llvm17LLVMTargetMachineERNS_6legacy15PassManagerBaseEbRNS_28MachineModuleInfoWrapperPassE
   fun:_ZN4llvm17LLVMTargetMachine19addPassesToEmitFileERNS_6legacy15PassManagerBaseERNS_17raw_pwrite_streamEPS4_NS_15CodeGenFileTypeEbPNS_28MachineModuleInfoWrapperPassE
   fun:ac_create_llvm_passes
   fun:si_create_llvm_compiler
   fun:si_shader_select_with_key<false, si_shader_key_ge>
   fun:si_shader_select
}
{
   <insert_a_suppression_name_here>
   Memcheck:Leak
   match-leak-kinds: possible
   fun:_Znwm
   fun:_ZN4llvm13PMDataManager3addEPNS_4PassEb
   fun:_ZN4llvm17PMTopLevelManager12schedulePassEPNS_4PassE
   fun:_ZN4llvm16TargetPassConfig7addPassEPNS_4PassE
   fun:_ZN4llvm16TargetPassConfig16addMachinePassesEv
   fun:_ZL23addPassesToGenerateCodeRN4llvm17LLVMTargetMachineERNS_6legacy15PassManagerBaseEbRNS_28MachineModuleInfoWrapperPassE
   fun:_ZN4llvm17LLVMTargetMachine19addPassesToEmitFileERNS_6legacy15PassManagerBaseERNS_17raw_pwrite_streamEPS4_NS_15CodeGenFileTypeEbPNS_28MachineModuleInfoWrapperPassE
   fun:ac_create_llvm_passes
   fun:si_create_llvm_compiler
   fun:si_shader_select_with_key<false, si_shader_key_ge>
   fun:si_shader_select
   fun:_Z17si_update_shadersIL13amd_gfx_level11EL11si_has_tess0EL9si_has_gs0EL10si_has_ngg0EEbP10si_context
   fun:si_draw<(amd_gfx_level)11, (si_has_tess)0, (si_has_gs)0, (si_has_ngg)0, (si_is_draw_vertex_state)0, (si_has_sh_pairs_packed)0, (util_popcnt)0>
   fun:_Z11si_draw_vboIL13amd_gfx_level11EL11si_has_tess0EL9si_has_gs0EL10si_has_ngg0EL22si_has_sh_pairs_packed0EEvP12pipe_contextPK14pipe_draw_infojPK23pipe_draw_indirect_infoPK26pipe_draw_start_count_biasj
}
{
   <insert_a_suppression_name_here>
   Memcheck:Leak
   match-leak-kinds: possible
   fun:_Znwm
   fun:_ZN4llvm17PMTopLevelManager12schedulePassEPNS_4PassE
   fun:_ZN4llvm17PMTopLevelManager12schedulePassEPNS_4PassE
   fun:_ZN4llvm16TargetPassConfig7addPassEPNS_4PassE
   fun:_ZN4llvm16TargetPassConfig16addMachinePassesEv
   fun:_ZL23addPassesToGenerateCodeRN4llvm17LLVMTargetMachineERNS_6legacy15PassManagerBaseEbRNS_28MachineModuleInfoWrapperPassE
   fun:_ZN4llvm17LLVMTargetMachine19addPassesToEmitFileERNS_6legacy15PassManagerBaseERNS_17raw_pwrite_streamEPS4_NS_15CodeGenFileTypeEbPNS_28MachineModuleInfoWrapperPassE
   fun:ac_create_llvm_passes
   fun:si_create_llvm_compiler
   fun:si_shader_select_with_key<false, si_shader_key_ge>
   fun:si_shader_select
   fun:_Z17si_update_shadersIL13amd_gfx_level11EL11si_has_tess0EL9si_has_gs0EL10si_has_ngg0EEbP10si_context
   fun:si_draw<(amd_gfx_level)11, (si_has_tess)0, (si_has_gs)0, (si_has_ngg)0, (si_is_draw_vertex_state)0, (si_has_sh_pairs_packed)0, (util_popcnt)0>
   fun:_Z11si_draw_vboIL13amd_gfx_level11EL11si_has_tess0EL9si_has_gs0EL10si_has_ngg0EL22si_has_sh_pairs_packed0EEvP12pipe_contextPK14pipe_draw_infojPK23pipe_draw_indirect_infoPK26pipe_draw_start_count_biasj
}
{
   <insert_a_suppression_name_here>
   Memcheck:Leak
   match-leak-kinds: possible
   fun:_Znwm
   fun:_ZN4llvm13PMDataManager3addEPNS_4PassEb
   fun:_ZN4llvm17PMTopLevelManager12schedulePassEPNS_4PassE
   fun:_ZN4llvm16TargetPassConfig7addPassEPNS_4PassE
   fun:addPass
   fun:_ZN4llvm16TargetPassConfig20addOptimizedRegAllocEv
   fun:_ZN4llvm16TargetPassConfig16addMachinePassesEv
   fun:_ZL23addPassesToGenerateCodeRN4llvm17LLVMTargetMachineERNS_6legacy15PassManagerBaseEbRNS_28MachineModuleInfoWrapperPassE
   fun:_ZN4llvm17LLVMTargetMachine19addPassesToEmitFileERNS_6legacy15PassManagerBaseERNS_17raw_pwrite_streamEPS4_NS_15CodeGenFileTypeEbPNS_28MachineModuleInfoWrapperPassE
   fun:ac_create_llvm_passes
   fun:si_create_llvm_compiler
   fun:si_shader_select_with_key<false, si_shader_key_ge>
   fun:si_shader_select
   fun:_Z17si_update_shadersIL13amd_gfx_level11EL11si_has_tess0EL9si_has_gs0EL10si_has_ngg0EEbP10si_context
}
{
   <insert_a_suppression_name_here>
   Memcheck:Leak
   match-leak-kinds: possible
   fun:_Znwm
   fun:_ZN4llvm13PMDataManager3addEPNS_4PassEb
   fun:_ZN4llvm17PMTopLevelManager12schedulePassEPNS_4PassE
   fun:_ZN4llvm16TargetPassConfig7addPassEPNS_4PassE
   fun:_ZN4llvm16TargetPassConfig7addPassEPNS_4PassE
   fun:addPass
   fun:_ZN4llvm16TargetPassConfig20addOptimizedRegAllocEv
   fun:_ZN4llvm16TargetPassConfig16addMachinePassesEv
   fun:_ZL23addPassesToGenerateCodeRN4llvm17LLVMTargetMachineERNS_6legacy15PassManagerBaseEbRNS_28MachineModuleInfoWrapperPassE
   fun:_ZN4llvm17LLVMTargetMachine19addPassesToEmitFileERNS_6legacy15PassManagerBaseERNS_17raw_pwrite_streamEPS4_NS_15CodeGenFileTypeEbPNS_28MachineModuleInfoWrapperPassE
   fun:ac_create_llvm_passes
   fun:si_create_llvm_compiler
   fun:si_shader_select_with_key<false, si_shader_key_ge>
   fun:si_shader_select
}
{
   <insert_a_suppression_name_here>
   Memcheck:Leak
   match-leak-kinds: possible
   fun:_Znwm
   fun:_ZN4llvm13PMDataManager3addEPNS_4PassEb
   fun:_ZN4llvm17PMTopLevelManager12schedulePassEPNS_4PassE
   fun:_ZN4llvm16TargetPassConfig7addPassEPNS_4PassE
   fun:_ZN12_GLOBAL__N_113GCNPassConfig31addRegAssignAndRewriteOptimizedEv
   fun:_ZN4llvm16TargetPassConfig20addOptimizedRegAllocEv
   fun:_ZN4llvm16TargetPassConfig16addMachinePassesEv
   fun:_ZL23addPassesToGenerateCodeRN4llvm17LLVMTargetMachineERNS_6legacy15PassManagerBaseEbRNS_28MachineModuleInfoWrapperPassE
   fun:_ZN4llvm17LLVMTargetMachine19addPassesToEmitFileERNS_6legacy15PassManagerBaseERNS_17raw_pwrite_streamEPS4_NS_15CodeGenFileTypeEbPNS_28MachineModuleInfoWrapperPassE
   fun:ac_create_llvm_passes
   fun:si_create_llvm_compiler
   fun:si_shader_select_with_key<false, si_shader_key_ge>
   fun:si_shader_select
}
{
   <insert_a_suppression_name_here>
   Memcheck:Leak
   match-leak-kinds: possible
   fun:_Znwm
   fun:_ZN4llvm13PMDataManager3addEPNS_4PassEb
   fun:_ZN4llvm17PMTopLevelManager12schedulePassEPNS_4PassE
   fun:_ZN4llvm16TargetPassConfig7addPassEPNS_4PassE
   fun:_ZN4llvm16TargetPassConfig7addPassEPKv
   fun:_ZN12_GLOBAL__N_113GCNPassConfig15addPostRegAllocEv
   fun:_ZN4llvm16TargetPassConfig16addMachinePassesEv
   fun:_ZL23addPassesToGenerateCodeRN4llvm17LLVMTargetMachineERNS_6legacy15PassManagerBaseEbRNS_28MachineModuleInfoWrapperPassE
   fun:_ZN4llvm17LLVMTargetMachine19addPassesToEmitFileERNS_6legacy15PassManagerBaseERNS_17raw_pwrite_streamEPS4_NS_15CodeGenFileTypeEbPNS_28MachineModuleInfoWrapperPassE
   fun:ac_create_llvm_passes
   fun:si_create_llvm_compiler
   fun:si_shader_select_with_key<false, si_shader_key_ge>
   fun:si_shader_select
}
{
   <insert_a_suppression_name_here>
   Memcheck:Leak
   match-leak-kinds: possible
   fun:_Znwm
   fun:_ZN4llvm13PMDataManager3addEPNS_4PassEb
   fun:_ZN4llvm17PMTopLevelManager12schedulePassEPNS_4PassE
   fun:_ZN4llvm16TargetPassConfig7addPassEPNS_4PassE
   fun:_ZN4llvm16TargetPassConfig7addPassEPKv
   fun:_ZN4llvm16TargetPassConfig16addMachinePassesEv
   fun:_ZL23addPassesToGenerateCodeRN4llvm17LLVMTargetMachineERNS_6legacy15PassManagerBaseEbRNS_28MachineModuleInfoWrapperPassE
   fun:_ZN4llvm17LLVMTargetMachine19addPassesToEmitFileERNS_6legacy15PassManagerBaseERNS_17raw_pwrite_streamEPS4_NS_15CodeGenFileTypeEbPNS_28MachineModuleInfoWrapperPassE
   fun:ac_create_llvm_passes
   fun:si_create_llvm_compiler
   fun:si_shader_select_with_key<false, si_shader_key_ge>
   fun:si_shader_select
   fun:_Z17si_update_shadersIL13amd_gfx_level11EL11si_has_tess0EL9si_has_gs0EL10si_has_ngg0EEbP10si_context
}
{
   <insert_a_suppression_name_here>
   Memcheck:Leak
   match-leak-kinds: possible
   fun:_Znwm
   fun:_ZN4llvm13PMDataManager3addEPNS_4PassEb
   fun:_ZN4llvm17PMTopLevelManager12schedulePassEPNS_4PassE
   fun:_ZN4llvm16TargetPassConfig7addPassEPNS_4PassE
   fun:addPass
   fun:_ZN4llvm16TargetPassConfig16addMachinePassesEv
   fun:_ZL23addPassesToGenerateCodeRN4llvm17LLVMTargetMachineERNS_6legacy15PassManagerBaseEbRNS_28MachineModuleInfoWrapperPassE
   fun:_ZN4llvm17LLVMTargetMachine19addPassesToEmitFileERNS_6legacy15PassManagerBaseERNS_17raw_pwrite_streamEPS4_NS_15CodeGenFileTypeEbPNS_28MachineModuleInfoWrapperPassE
   fun:ac_create_llvm_passes
   fun:si_create_llvm_compiler
   fun:si_shader_select_with_key<false, si_shader_key_ge>
   fun:si_shader_select
   fun:_Z17si_update_shadersIL13amd_gfx_level11EL11si_has_tess0EL9si_has_gs0EL10si_has_ngg0EEbP10si_context
   fun:si_draw<(amd_gfx_level)11, (si_has_tess)0, (si_has_gs)0, (si_has_ngg)0, (si_is_draw_vertex_state)0, (si_has_sh_pairs_packed)0, (util_popcnt)0>
   fun:_Z11si_draw_vboIL13amd_gfx_level11EL11si_has_tess0EL9si_has_gs0EL10si_has_ngg0EL22si_has_sh_pairs_packed0EEvP12pipe_contextPK14pipe_draw_infojPK23pipe_draw_indirect_infoPK26pipe_draw_start_count_biasj
}
{
   <insert_a_suppression_name_here>
   Memcheck:Leak
   match-leak-kinds: possible
   fun:_Znwm
   fun:_ZN4llvm13PMDataManager3addEPNS_4PassEb
   fun:_ZN4llvm17PMTopLevelManager12schedulePassEPNS_4PassE
   fun:_ZN4llvm17PMTopLevelManager12schedulePassEPNS_4PassE
   fun:_ZN4llvm17PMTopLevelManager12schedulePassEPNS_4PassE
   fun:_ZN4llvm16TargetPassConfig7addPassEPNS_4PassE
   fun:addPass
   fun:_ZN4llvm16TargetPassConfig16addMachinePassesEv
   fun:_ZL23addPassesToGenerateCodeRN4llvm17LLVMTargetMachineERNS_6legacy15PassManagerBaseEbRNS_28MachineModuleInfoWrapperPassE
   fun:_ZN4llvm17LLVMTargetMachine19addPassesToEmitFileERNS_6legacy15PassManagerBaseERNS_17raw_pwrite_streamEPS4_NS_15CodeGenFileTypeEbPNS_28MachineModuleInfoWrapperPassE
   fun:ac_create_llvm_passes
   fun:si_create_llvm_compiler
   fun:si_shader_select_with_key<false, si_shader_key_ge>
   fun:si_shader_select
}
{
   <insert_a_suppression_name_here>
   Memcheck:Leak
   match-leak-kinds: possible
   fun:_Znwm
   fun:_ZN4llvm13PMDataManager3addEPNS_4PassEb
   fun:_ZN4llvm17PMTopLevelManager12schedulePassEPNS_4PassE
   fun:_ZN4llvm16TargetPassConfig7addPassEPNS_4PassE
   fun:addPass
   fun:addMachineLateOptimization
   fun:_ZN4llvm16TargetPassConfig16addMachinePassesEv
   fun:_ZL23addPassesToGenerateCodeRN4llvm17LLVMTargetMachineERNS_6legacy15PassManagerBaseEbRNS_28MachineModuleInfoWrapperPassE
   fun:_ZN4llvm17LLVMTargetMachine19addPassesToEmitFileERNS_6legacy15PassManagerBaseERNS_17raw_pwrite_streamEPS4_NS_15CodeGenFileTypeEbPNS_28MachineModuleInfoWrapperPassE
   fun:ac_create_llvm_passes
   fun:si_create_llvm_compiler
   fun:si_shader_select_with_key<false, si_shader_key_ge>
   fun:si_shader_select
   fun:_Z17si_update_shadersIL13amd_gfx_level11EL11si_has_tess0EL9si_has_gs0EL10si_has_ngg0EEbP10si_context
   fun:si_draw<(amd_gfx_level)11, (si_has_tess)0, (si_has_gs)0, (si_has_ngg)0, (si_is_draw_vertex_state)0, (si_has_sh_pairs_packed)0, (util_popcnt)0>
   fun:_Z11si_draw_vboIL13amd_gfx_level11EL11si_has_tess0EL9si_has_gs0EL10si_has_ngg0EL22si_has_sh_pairs_packed0EEvP12pipe_contextPK14pipe_draw_infojPK23pipe_draw_indirect_infoPK26pipe_draw_start_count_biasj
}
{
   <insert_a_suppression_name_here>
   Memcheck:Leak
   match-leak-kinds: possible
   fun:_Znwm
   fun:_ZN4llvm13PMDataManager3addEPNS_4PassEb
   fun:_ZN4llvm17PMTopLevelManager12schedulePassEPNS_4PassE
   fun:_ZN4llvm17PMTopLevelManager12schedulePassEPNS_4PassE
   fun:_ZN4llvm16TargetPassConfig7addPassEPNS_4PassE
   fun:addPass
   fun:addMachineLateOptimization
   fun:_ZN4llvm16TargetPassConfig16addMachinePassesEv
   fun:_ZL23addPassesToGenerateCodeRN4llvm17LLVMTargetMachineERNS_6legacy15PassManagerBaseEbRNS_28MachineModuleInfoWrapperPassE
   fun:_ZN4llvm17LLVMTargetMachine19addPassesToEmitFileERNS_6legacy15PassManagerBaseERNS_17raw_pwrite_streamEPS4_NS_15CodeGenFileTypeEbPNS_28MachineModuleInfoWrapperPassE
   fun:ac_create_llvm_passes
   fun:si_create_llvm_compiler
   fun:si_shader_select_with_key<false, si_shader_key_ge>
   fun:si_shader_select
   fun:_Z17si_update_shadersIL13amd_gfx_level11EL11si_has_tess0EL9si_has_gs0EL10si_has_ngg0EEbP10si_context
}
{
   <insert_a_suppression_name_here>
   Memcheck:Leak
   match-leak-kinds: possible
   fun:_Znwm
   fun:_ZN4llvm13PMDataManager3addEPNS_4PassEb
   fun:_ZN4llvm17PMTopLevelManager12schedulePassEPNS_4PassE
   fun:_ZN4llvm16TargetPassConfig7addPassEPNS_4PassE
   fun:_ZN12_GLOBAL__N_113GCNPassConfig12addPreSched2Ev
   fun:_ZN4llvm16TargetPassConfig16addMachinePassesEv
   fun:_ZL23addPassesToGenerateCodeRN4llvm17LLVMTargetMachineERNS_6legacy15PassManagerBaseEbRNS_28MachineModuleInfoWrapperPassE
   fun:_ZN4llvm17LLVMTargetMachine19addPassesToEmitFileERNS_6legacy15PassManagerBaseERNS_17raw_pwrite_streamEPS4_NS_15CodeGenFileTypeEbPNS_28MachineModuleInfoWrapperPassE
   fun:ac_create_llvm_passes
   fun:si_create_llvm_compiler
   fun:si_shader_select_with_key<false, si_shader_key_ge>
   fun:si_shader_select
   fun:_Z17si_update_shadersIL13amd_gfx_level11EL11si_has_tess0EL9si_has_gs0EL10si_has_ngg0EEbP10si_context
}
{
   <insert_a_suppression_name_here>
   Memcheck:Leak
   match-leak-kinds: possible
   fun:_Znwm
   fun:_ZN4llvm13PMDataManager3addEPNS_4PassEb
   fun:_ZN4llvm17PMTopLevelManager12schedulePassEPNS_4PassE
   fun:_ZN4llvm16TargetPassConfig7addPassEPNS_4PassE
   fun:addPass
   fun:_ZN4llvm16TargetPassConfig17addBlockPlacementEv
   fun:_ZN4llvm16TargetPassConfig16addMachinePassesEv
   fun:_ZL23addPassesToGenerateCodeRN4llvm17LLVMTargetMachineERNS_6legacy15PassManagerBaseEbRNS_28MachineModuleInfoWrapperPassE
   fun:_ZN4llvm17LLVMTargetMachine19addPassesToEmitFileERNS_6legacy15PassManagerBaseERNS_17raw_pwrite_streamEPS4_NS_15CodeGenFileTypeEbPNS_28MachineModuleInfoWrapperPassE
   fun:ac_create_llvm_passes
   fun:si_create_llvm_compiler
   fun:si_shader_select_with_key<false, si_shader_key_ge>
   fun:si_shader_select
   fun:_Z17si_update_shadersIL13amd_gfx_level11EL11si_has_tess0EL9si_has_gs0EL10si_has_ngg0EEbP10si_context
}
{
   <insert_a_suppression_name_here>
   Memcheck:Leak
   match-leak-kinds: possible
   fun:_Znwm
   fun:_ZN4llvm13PMDataManager3addEPNS_4PassEb
   fun:_ZN4llvm17PMTopLevelManager12schedulePassEPNS_4PassE
   fun:_ZN4llvm16TargetPassConfig7addPassEPNS_4PassE
   fun:_ZN4llvm16TargetPassConfig7addPassEPKv
   fun:_ZN12_GLOBAL__N_113GCNPassConfig14addPreEmitPassEv
   fun:_ZN4llvm16TargetPassConfig16addMachinePassesEv
   fun:_ZL23addPassesToGenerateCodeRN4llvm17LLVMTargetMachineERNS_6legacy15PassManagerBaseEbRNS_28MachineModuleInfoWrapperPassE
   fun:_ZN4llvm17LLVMTargetMachine19addPassesToEmitFileERNS_6legacy15PassManagerBaseERNS_17raw_pwrite_streamEPS4_NS_15CodeGenFileTypeEbPNS_28MachineModuleInfoWrapperPassE
   fun:ac_create_llvm_passes
   fun:si_create_llvm_compiler
   fun:si_shader_select_with_key<false, si_shader_key_ge>
   fun:si_shader_select
}
{
   <insert_a_suppression_name_here>
   Memcheck:Leak
   match-leak-kinds: possible
   fun:_Znwm
   fun:_ZN4llvm13PMDataManager3addEPNS_4PassEb
   fun:_ZN4llvm17PMTopLevelManager12schedulePassEPNS_4PassE
   fun:_ZN4llvm16TargetPassConfig7addPassEPNS_4PassE
   fun:_ZN12_GLOBAL__N_113GCNPassConfig14addPreEmitPassEv
   fun:_ZN4llvm16TargetPassConfig16addMachinePassesEv
   fun:_ZL23addPassesToGenerateCodeRN4llvm17LLVMTargetMachineERNS_6legacy15PassManagerBaseEbRNS_28MachineModuleInfoWrapperPassE
   fun:_ZN4llvm17LLVMTargetMachine19addPassesToEmitFileERNS_6legacy15PassManagerBaseERNS_17raw_pwrite_streamEPS4_NS_15CodeGenFileTypeEbPNS_28MachineModuleInfoWrapperPassE
   fun:ac_create_llvm_passes
   fun:si_create_llvm_compiler
   fun:si_shader_select_with_key<false, si_shader_key_ge>
   fun:si_shader_select
   fun:_Z17si_update_shadersIL13amd_gfx_level11EL11si_has_tess0EL9si_has_gs0EL10si_has_ngg0EEbP10si_context
}
{
   <insert_a_suppression_name_here>
   Memcheck:Leak
   match-leak-kinds: possible
   fun:_Znwm
   fun:_ZN4llvm13PMDataManager3addEPNS_4PassEb
   fun:_ZN4llvm17PMTopLevelManager12schedulePassEPNS_4PassE
   fun:_ZN4llvm17PMTopLevelManager12schedulePassEPNS_4PassE
   fun:_ZN4llvm17PMTopLevelManager12schedulePassEPNS_4PassE
   fun:_ZN4llvm16TargetPassConfig16addMachinePassesEv
   fun:_ZL23addPassesToGenerateCodeRN4llvm17LLVMTargetMachineERNS_6legacy15PassManagerBaseEbRNS_28MachineModuleInfoWrapperPassE
   fun:_ZN4llvm17LLVMTargetMachine19addPassesToEmitFileERNS_6legacy15PassManagerBaseERNS_17raw_pwrite_streamEPS4_NS_15CodeGenFileTypeEbPNS_28MachineModuleInfoWrapperPassE
   fun:ac_create_llvm_passes
   fun:si_create_llvm_compiler
   fun:si_shader_select_with_key<false, si_shader_key_ge>
   fun:si_shader_select
   fun:_Z17si_update_shadersIL13amd_gfx_level11EL11si_has_tess0EL9si_has_gs0EL10si_has_ngg0EEbP10si_context
}
{
   <insert_a_suppression_name_here>
   Memcheck:Leak
   match-leak-kinds: possible
   fun:_Znwm
   fun:_ZN4llvm13PMDataManager3addEPNS_4PassEb
   fun:_ZN4llvm17PMTopLevelManager12schedulePassEPNS_4PassE
   fun:_ZN4llvm17PMTopLevelManager12schedulePassEPNS_4PassE
   fun:_ZN4llvm16TargetPassConfig16addMachinePassesEv
   fun:_ZL23addPassesToGenerateCodeRN4llvm17LLVMTargetMachineERNS_6legacy15PassManagerBaseEbRNS_28MachineModuleInfoWrapperPassE
   fun:_ZN4llvm17LLVMTargetMachine19addPassesToEmitFileERNS_6legacy15PassManagerBaseERNS_17raw_pwrite_streamEPS4_NS_15CodeGenFileTypeEbPNS_28MachineModuleInfoWrapperPassE
   fun:ac_create_llvm_passes
   fun:si_create_llvm_compiler
   fun:si_shader_select_with_key<false, si_shader_key_ge>
   fun:si_shader_select
   fun:_Z17si_update_shadersIL13amd_gfx_level11EL11si_has_tess0EL9si_has_gs0EL10si_has_ngg0EEbP10si_context
   fun:si_draw<(amd_gfx_level)11, (si_has_tess)0, (si_has_gs)0, (si_has_ngg)0, (si_is_draw_vertex_state)0, (si_has_sh_pairs_packed)0, (util_popcnt)0>
   fun:_Z11si_draw_vboIL13amd_gfx_level11EL11si_has_tess0EL9si_has_gs0EL10si_has_ngg0EL22si_has_sh_pairs_packed0EEvP12pipe_contextPK14pipe_draw_infojPK23pipe_draw_indirect_infoPK26pipe_draw_start_count_biasj
}
{
   <insert_a_suppression_name_here>
   Memcheck:Leak
   match-leak-kinds: possible
   fun:_Znwm
   fun:_ZN4llvm13PMDataManager3addEPNS_4PassEb
   fun:_ZN4llvm17PMTopLevelManager12schedulePassEPNS_4PassE
   fun:_ZN4llvm16TargetPassConfig16addMachinePassesEv
   fun:_ZL23addPassesToGenerateCodeRN4llvm17LLVMTargetMachineERNS_6legacy15PassManagerBaseEbRNS_28MachineModuleInfoWrapperPassE
   fun:_ZN4llvm17LLVMTargetMachine19addPassesToEmitFileERNS_6legacy15PassManagerBaseERNS_17raw_pwrite_streamEPS4_NS_15CodeGenFileTypeEbPNS_28MachineModuleInfoWrapperPassE
   fun:ac_create_llvm_passes
   fun:si_create_llvm_compiler
   fun:si_shader_select_with_key<false, si_shader_key_ge>
   fun:si_shader_select
   fun:_Z17si_update_shadersIL13amd_gfx_level11EL11si_has_tess0EL9si_has_gs0EL10si_has_ngg0EEbP10si_context
   fun:si_draw<(amd_gfx_level)11, (si_has_tess)0, (si_has_gs)0, (si_has_ngg)0, (si_is_draw_vertex_state)0, (si_has_sh_pairs_packed)0, (util_popcnt)0>
   fun:_Z11si_draw_vboIL13amd_gfx_level11EL11si_has_tess0EL9si_has_gs0EL10si_has_ngg0EL22si_has_sh_pairs_packed0EEvP12pipe_contextPK14pipe_draw_infojPK23pipe_draw_indirect_infoPK26pipe_draw_start_count_biasj
   fun:_ZL17si_draw_rectangleP15blitter_contextPvPFS1_S0_Eiiiifj19blitter_attrib_typePK14blitter_attrib
}
{
   <insert_a_suppression_name_here>
   Memcheck:Leak
   match-leak-kinds: possible
   fun:_Znwm
   fun:_ZN4llvm13PMDataManager3addEPNS_4PassEb
   fun:_ZN4llvm17PMTopLevelManager12schedulePassEPNS_4PassE
   fun:_ZN4llvm17PMTopLevelManager12schedulePassEPNS_4PassE
   fun:_ZN4llvm17LLVMTargetMachine13addAsmPrinterERNS_6legacy15PassManagerBaseERNS_17raw_pwrite_streamEPS4_NS_15CodeGenFileTypeERNS_9MCContextE
   fun:_ZN4llvm17LLVMTargetMachine19addPassesToEmitFileERNS_6legacy15PassManagerBaseERNS_17raw_pwrite_streamEPS4_NS_15CodeGenFileTypeEbPNS_28MachineModuleInfoWrapperPassE
   fun:ac_create_llvm_passes
   fun:si_create_llvm_compiler
   fun:si_shader_select_with_key<false, si_shader_key_ge>
   fun:si_shader_select
   fun:_Z17si_update_shadersIL13amd_gfx_level11EL11si_has_tess0EL9si_has_gs0EL10si_has_ngg0EEbP10si_context
   fun:si_draw<(amd_gfx_level)11, (si_has_tess)0, (si_has_gs)0, (si_has_ngg)0, (si_is_draw_vertex_state)0, (si_has_sh_pairs_packed)0, (util_popcnt)0>
   fun:_Z11si_draw_vboIL13amd_gfx_level11EL11si_has_tess0EL9si_has_gs0EL10si_has_ngg0EL22si_has_sh_pairs_packed0EEvP12pipe_contextPK14pipe_draw_infojPK23pipe_draw_indirect_infoPK26pipe_draw_start_count_biasj
   fun:_ZL17si_draw_rectangleP15blitter_contextPvPFS1_S0_Eiiiifj19blitter_attrib_typePK14blitter_attrib
}
{
   <insert_a_suppression_name_here>
   Memcheck:Leak
   match-leak-kinds: possible
   fun:_Znwm
   fun:_ZN4llvm13PMDataManager3addEPNS_4PassEb
   fun:_ZN4llvm12FunctionPass17assignPassManagerERNS_7PMStackENS_15PassManagerTypeE
   fun:_ZN4llvm17PMTopLevelManager12schedulePassEPNS_4PassE
   fun:_ZN4llvm17PMTopLevelManager12schedulePassEPNS_4PassE
   fun:_ZN4llvm17PMTopLevelManager12schedulePassEPNS_4PassE
   fun:_ZN4llvm17LLVMTargetMachine13addAsmPrinterERNS_6legacy15PassManagerBaseERNS_17raw_pwrite_streamEPS4_NS_15CodeGenFileTypeERNS_9MCContextE
   fun:_ZN4llvm17LLVMTargetMachine19addPassesToEmitFileERNS_6legacy15PassManagerBaseERNS_17raw_pwrite_streamEPS4_NS_15CodeGenFileTypeEbPNS_28MachineModuleInfoWrapperPassE
   fun:ac_create_llvm_passes
   fun:si_create_llvm_compiler
   fun:si_shader_select_with_key<false, si_shader_key_ge>
   fun:si_shader_select
   fun:_Z17si_update_shadersIL13amd_gfx_level11EL11si_has_tess0EL9si_has_gs0EL10si_has_ngg0EEbP10si_context
}
{
   <insert_a_suppression_name_here>
   Memcheck:Leak
   match-leak-kinds: possible
   fun:_Znwm
   fun:_ZN4llvm13PMDataManager3addEPNS_4PassEb
   fun:_ZN4llvm17PMTopLevelManager12schedulePassEPNS_4PassE
   fun:_ZN4llvm17PMTopLevelManager12schedulePassEPNS_4PassE
   fun:_ZN4llvm17PMTopLevelManager12schedulePassEPNS_4PassE
   fun:_ZN4llvm17LLVMTargetMachine13addAsmPrinterERNS_6legacy15PassManagerBaseERNS_17raw_pwrite_streamEPS4_NS_15CodeGenFileTypeERNS_9MCContextE
   fun:_ZN4llvm17LLVMTargetMachine19addPassesToEmitFileERNS_6legacy15PassManagerBaseERNS_17raw_pwrite_streamEPS4_NS_15CodeGenFileTypeEbPNS_28MachineModuleInfoWrapperPassE
   fun:ac_create_llvm_passes
   fun:si_create_llvm_compiler
   fun:si_shader_select_with_key<false, si_shader_key_ge>
   fun:si_shader_select
   fun:_Z17si_update_shadersIL13amd_gfx_level11EL11si_has_tess0EL9si_has_gs0EL10si_has_ngg0EEbP10si_context
   fun:si_draw<(amd_gfx_level)11, (si_has_tess)0, (si_has_gs)0, (si_has_ngg)0, (si_is_draw_vertex_state)0, (si_has_sh_pairs_packed)0, (util_popcnt)0>
   fun:_Z11si_draw_vboIL13amd_gfx_level11EL11si_has_tess0EL9si_has_gs0EL10si_has_ngg0EL22si_has_sh_pairs_packed0EEvP12pipe_contextPK14pipe_draw_infojPK23pipe_draw_indirect_infoPK26pipe_draw_start_count_biasj
}
{
   <insert_a_suppression_name_here>
   Memcheck:Leak
   match-leak-kinds: possible
   fun:_Znwm
   fun:_ZN4llvm13PMDataManager3addEPNS_4PassEb
   fun:_ZN4llvm17LLVMTargetMachine13addAsmPrinterERNS_6legacy15PassManagerBaseERNS_17raw_pwrite_streamEPS4_NS_15CodeGenFileTypeERNS_9MCContextE
   fun:_ZN4llvm17LLVMTargetMachine19addPassesToEmitFileERNS_6legacy15PassManagerBaseERNS_17raw_pwrite_streamEPS4_NS_15CodeGenFileTypeEbPNS_28MachineModuleInfoWrapperPassE
   fun:ac_create_llvm_passes
   fun:si_create_llvm_compiler
   fun:si_shader_select_with_key<false, si_shader_key_ge>
   fun:si_shader_select
   fun:_Z17si_update_shadersIL13amd_gfx_level11EL11si_has_tess0EL9si_has_gs0EL10si_has_ngg0EEbP10si_context
   fun:si_draw<(amd_gfx_level)11, (si_has_tess)0, (si_has_gs)0, (si_has_ngg)0, (si_is_draw_vertex_state)0, (si_has_sh_pairs_packed)0, (util_popcnt)0>
   fun:_Z11si_draw_vboIL13amd_gfx_level11EL11si_has_tess0EL9si_has_gs0EL10si_has_ngg0EL22si_has_sh_pairs_packed0EEvP12pipe_contextPK14pipe_draw_infojPK23pipe_draw_indirect_infoPK26pipe_draw_start_count_biasj
   fun:_ZL17si_draw_rectangleP15blitter_contextPvPFS1_S0_Eiiiifj19blitter_attrib_typePK14blitter_attrib
   fun:util_blitter_custom_color
   fun:si_blit_decompress_color
}
{
   <insert_a_suppression_name_here>
   Memcheck:Leak
   match-leak-kinds: possible
   fun:_Znwm
   fun:_ZN4llvm29createFreeMachineFunctionPassEv
   fun:_ZN4llvm17LLVMTargetMachine19addPassesToEmitFileERNS_6legacy15PassManagerBaseERNS_17raw_pwrite_streamEPS4_NS_15CodeGenFileTypeEbPNS_28MachineModuleInfoWrapperPassE
   fun:ac_create_llvm_passes
   fun:si_create_llvm_compiler
   fun:si_shader_select_with_key<false, si_shader_key_ge>
   fun:si_shader_select
   fun:_Z17si_update_shadersIL13amd_gfx_level11EL11si_has_tess0EL9si_has_gs0EL10si_has_ngg0EEbP10si_context
   fun:si_draw<(amd_gfx_level)11, (si_has_tess)0, (si_has_gs)0, (si_has_ngg)0, (si_is_draw_vertex_state)0, (si_has_sh_pairs_packed)0, (util_popcnt)0>
   fun:_Z11si_draw_vboIL13amd_gfx_level11EL11si_has_tess0EL9si_has_gs0EL10si_has_ngg0EL22si_has_sh_pairs_packed0EEvP12pipe_contextPK14pipe_draw_infojPK23pipe_draw_indirect_infoPK26pipe_draw_start_count_biasj
   fun:_ZL17si_draw_rectangleP15blitter_contextPvPFS1_S0_Eiiiifj19blitter_attrib_typePK14blitter_attrib
   fun:util_blitter_custom_color
   fun:si_blit_decompress_color
   fun:si_flush_resource
   fun:si_flush_resource
}
{
   <insert_a_suppression_name_here>
   Memcheck:Leak
   match-leak-kinds: possible
   fun:_Znwm
   fun:_ZN4llvm13PMDataManager3addEPNS_4PassEb
   fun:_ZN4llvm17LLVMTargetMachine19addPassesToEmitFileERNS_6legacy15PassManagerBaseERNS_17raw_pwrite_streamEPS4_NS_15CodeGenFileTypeEbPNS_28MachineModuleInfoWrapperPassE
   fun:ac_create_llvm_passes
   fun:si_create_llvm_compiler
   fun:si_shader_select_with_key<false, si_shader_key_ge>
   fun:si_shader_select
   fun:_Z17si_update_shadersIL13amd_gfx_level11EL11si_has_tess0EL9si_has_gs0EL10si_has_ngg0EEbP10si_context
   fun:si_draw<(amd_gfx_level)11, (si_has_tess)0, (si_has_gs)0, (si_has_ngg)0, (si_is_draw_vertex_state)0, (si_has_sh_pairs_packed)0, (util_popcnt)0>
   fun:_Z11si_draw_vboIL13amd_gfx_level11EL11si_has_tess0EL9si_has_gs0EL10si_has_ngg0EL22si_has_sh_pairs_packed0EEvP12pipe_contextPK14pipe_draw_infojPK23pipe_draw_indirect_infoPK26pipe_draw_start_count_biasj
   fun:_ZL17si_draw_rectangleP15blitter_contextPvPFS1_S0_Eiiiifj19blitter_attrib_typePK14blitter_attrib
   fun:util_blitter_custom_color
   fun:si_blit_decompress_color
   fun:si_flush_resource
   fun:si_flush_resource
}
{
   <insert_a_suppression_name_here>
   Memcheck:Leak
   match-leak-kinds: possible
   fun:_Znwm
   fun:allocate
   fun:allocate
   fun:_M_allocate
   fun:_M_realloc_append<const std::pair<void const*, llvm::Pass*>&>
   fun:push_back
   fun:addAnalysisImplsPair
   fun:_ZN4llvm13PMDataManager22initializeAnalysisImplEPNS_4PassE
   fun:runOnModule
   fun:_ZN4llvm6legacy15PassManagerImpl3runERNS_6ModuleE
   fun:LLVMRunPassManager
   fun:si_llvm_optimize_module
   fun:si_llvm_build_shader_part
   fun:si_get_shader_part.constprop.0
   fun:si_shader_select_ps_parts
   fun:si_create_shader_variant
   fun:_ZL23si_build_shader_variantP9si_shaderib
   fun:si_shader_select_with_key<false, si_shader_key_ge>
   fun:si_shader_select
   fun:_Z17si_update_shadersIL13amd_gfx_level11EL11si_has_tess0EL9si_has_gs0EL10si_has_ngg0EEbP10si_context
   fun:si_draw<(amd_gfx_level)11, (si_has_tess)0, (si_has_gs)0, (si_has_ngg)0, (si_is_draw_vertex_state)0, (si_has_sh_pairs_packed)0, (util_popcnt)0>
   fun:_Z11si_draw_vboIL13amd_gfx_level11EL11si_has_tess0EL9si_has_gs0EL10si_has_ngg0EL22si_has_sh_pairs_packed0EEvP12pipe_contextPK14pipe_draw_infojPK23pipe_draw_indirect_infoPK26pipe_draw_start_count_biasj
   fun:_ZL17si_draw_rectangleP15blitter_contextPvPFS1_S0_Eiiiifj19blitter_attrib_typePK14blitter_attrib
}
{
   <insert_a_suppression_name_here>
   Memcheck:Leak
   match-leak-kinds: possible
   fun:_Znwm
   fun:allocate
   fun:allocate
   fun:_M_allocate
   fun:_ZNSt6vectorIN4llvm11SmallVectorIjLj4EEESaIS2_EE17_M_default_appendEm
   fun:resize
   fun:_ZN4llvm13LiveVariables20runOnMachineFunctionERNS_15MachineFunctionE
   fun:_ZN4llvm19MachineFunctionPass13runOnFunctionERNS_8FunctionE.part.0
   fun:_ZN4llvm13FPPassManager13runOnFunctionERNS_8FunctionE
   fun:RunPassOnSCC
   fun:RunAllPassesOnSCC
   fun:_ZN12_GLOBAL__N_113CGPassManager11runOnModuleERN4llvm6ModuleE
   fun:runOnModule
   fun:_ZN4llvm6legacy15PassManagerImpl3runERNS_6ModuleE
   fun:ac_compile_module_to_elf
   fun:si_compile_llvm
   fun:si_llvm_build_shader_part
   fun:si_get_shader_part.constprop.0
   fun:si_shader_select_ps_parts
   fun:si_create_shader_variant
}
{
   <insert_a_suppression_name_here>
   Memcheck:Leak
   match-leak-kinds: possible
   fun:malloc
   fun:_ZL25si_create_shader_selectorP12pipe_contextPK17pipe_shader_state
   fun:util_live_shader_cache_get
   fun:_ZL16si_create_shaderP12pipe_contextPK17pipe_shader_state
   fun:st_create_common_variant
   fun:st_get_common_variant
   fun:st_precompile_shader_variant
   fun:st_finalize_program
   fun:st_deserialise_nir_program
   fun:st_load_nir_from_disk_cache
   fun:st_link_glsl_to_nir
   fun:st_link_shader
   fun:link_program
   fun:link_program_error.part.0
   fun:_mesa_unmarshal_LinkProgram
}
{
   <insert_a_suppression_name_here>
   Memcheck:Leak
   match-leak-kinds: possible
   fun:_Znwm
   fun:addAAResult<llvm::BasicAAResult>
   fun:_ZN4llvm20AAResultsWrapperPass13runOnFunctionERNS_8FunctionE
   fun:_ZN4llvm13FPPassManager13runOnFunctionERNS_8FunctionE
   fun:_ZN4llvm13FPPassManager11runOnModuleERNS_6ModuleE
   fun:runOnModule
   fun:_ZN4llvm6legacy15PassManagerImpl3runERNS_6ModuleE
   fun:LLVMRunPassManager
   fun:si_llvm_optimize_module
   fun:si_llvm_build_shader_part
   fun:si_get_shader_part.constprop.0
   fun:si_shader_select_ps_parts
   fun:si_create_shader_variant
   fun:_ZL23si_build_shader_variantP9si_shaderib
   fun:si_shader_select_with_key<false, si_shader_key_ge>
   fun:si_shader_select
   fun:_Z17si_update_shadersIL13amd_gfx_level11EL11si_has_tess0EL9si_has_gs0EL10si_has_ngg0EEbP10si_context
}
{
   <insert_a_suppression_name_here>
   Memcheck:Leak
   match-leak-kinds: possible
   fun:_Znwm
   fun:addAAResult<llvm::BasicAAResult>
   fun:_ZN4llvm20AAResultsWrapperPass13runOnFunctionERNS_8FunctionE
   fun:_ZN4llvm13FPPassManager13runOnFunctionERNS_8FunctionE
   fun:_ZN4llvm13FPPassManager11runOnModuleERNS_6ModuleE
   fun:runOnModule
   fun:_ZN4llvm6legacy15PassManagerImpl3runERNS_6ModuleE
   fun:ac_compile_module_to_elf
   fun:si_compile_llvm
   fun:si_llvm_build_shader_part
   fun:si_get_shader_part.constprop.0
   fun:si_shader_select_ps_parts
   fun:si_create_shader_variant
   fun:_ZL23si_build_shader_variantP9si_shaderib
   fun:si_shader_select_with_key<false, si_shader_key_ge>
   fun:si_shader_select
}
{
   <insert_a_suppression_name_here>
   Memcheck:Leak
   match-leak-kinds: possible
   fun:_Znwm
   fun:addAAResult<llvm::ScopedNoAliasAAResult>
   fun:_ZN4llvm20AAResultsWrapperPass13runOnFunctionERNS_8FunctionE
   fun:_ZN4llvm13FPPassManager13runOnFunctionERNS_8FunctionE
   fun:_ZN4llvm13FPPassManager11runOnModuleERNS_6ModuleE
   fun:runOnModule
   fun:_ZN4llvm6legacy15PassManagerImpl3runERNS_6ModuleE
   fun:ac_compile_module_to_elf
   fun:si_compile_llvm
   fun:si_llvm_build_shader_part
   fun:si_get_shader_part.constprop.0
   fun:si_shader_select_ps_parts
   fun:si_create_shader_variant
   fun:_ZL23si_build_shader_variantP9si_shaderib
   fun:si_shader_select_with_key<false, si_shader_key_ge>
   fun:si_shader_select
}
{
   <insert_a_suppression_name_here>
   Memcheck:Leak
   match-leak-kinds: possible
   fun:_Znwm
   fun:addAAResult<llvm::TypeBasedAAResult>
   fun:_ZN4llvm20AAResultsWrapperPass13runOnFunctionERNS_8FunctionE
   fun:_ZN4llvm13FPPassManager13runOnFunctionERNS_8FunctionE
   fun:_ZN4llvm13FPPassManager11runOnModuleERNS_6ModuleE
   fun:runOnModule
   fun:_ZN4llvm6legacy15PassManagerImpl3runERNS_6ModuleE
   fun:ac_compile_module_to_elf
   fun:si_compile_llvm
   fun:si_llvm_build_shader_part
   fun:si_get_shader_part.constprop.0
   fun:si_shader_select_ps_parts
   fun:si_create_shader_variant
   fun:_ZL23si_build_shader_variantP9si_shaderib
   fun:si_shader_select_with_key<false, si_shader_key_ge>
   fun:si_shader_select
}
{
   <insert_a_suppression_name_here>
   Memcheck:Leak
   match-leak-kinds: possible
   fun:_Znwm
   fun:addAAResult<llvm::AMDGPUAAResult>
   fun:operator()
   fun:__invoke_impl<void, llvm::AMDGPUPassConfig::addIRPasses()::<lambda(llvm::Pass&, llvm::Function&, llvm::AAResults&)>&, llvm::Pass&, llvm::Function&, llvm::AAResults&>
   fun:__invoke_r<void, llvm::AMDGPUPassConfig::addIRPasses()::<lambda(llvm::Pass&, llvm::Function&, llvm::AAResults&)>&, llvm::Pass&, llvm::Function&, llvm::AAResults&>
   fun:_ZNSt17_Function_handlerIFvRN4llvm4PassERNS0_8FunctionERNS0_9AAResultsEEZNS0_16AMDGPUPassConfig11addIRPassesEvEUlS2_S4_S6_E_E9_M_invokeERKSt9_Any_dataS2_S4_S6_
   fun:operator()
   fun:_ZN4llvm20AAResultsWrapperPass13runOnFunctionERNS_8FunctionE
   fun:_ZN4llvm13FPPassManager13runOnFunctionERNS_8FunctionE
   fun:_ZN4llvm13FPPassManager11runOnModuleERNS_6ModuleE
   fun:runOnModule
   fun:_ZN4llvm6legacy15PassManagerImpl3runERNS_6ModuleE
   fun:ac_compile_module_to_elf
   fun:si_compile_llvm
   fun:si_llvm_build_shader_part
   fun:si_get_shader_part.constprop.0
   fun:si_shader_select_ps_parts
   fun:si_create_shader_variant
   fun:_ZL23si_build_shader_variantP9si_shaderib
}
{
   <insert_a_suppression_name_here>
   Memcheck:Leak
   match-leak-kinds: possible
   fun:malloc
   fun:UnknownInlinedFun
   fun:_xcb_in_read
   fun:poll_for_next_event.part.0
   fun:poll_for_event
   fun:poll_for_response
   fun:_XEventsQueued
   fun:_XGetRequest
   fun:_XGetWindowAttributes
   fun:XGetWindowAttributes
   fun:UnknownInlinedFun
   fun:X11_HideWindow
   fun:UnknownInlinedFun
   fun:SDL_HideWindow_REAL
   fun:SDL_DestroyWindow_REAL.part.0
}
{
   <insert_a_suppression_name_here>
   Memcheck:Leak
   match-leak-kinds: reachable
   fun:_ZnwmSt11align_val_t
   fun:Allocate
   fun:allocateWithKey<llvm::MallocAllocator>
   fun:create<llvm::MallocAllocator, llvm::cl::Option*>
   fun:_ZN4llvm9StringMapIPNS_2cl6OptionENS_15MallocAllocatorEE11try_emplaceIJS3_EEESt4pairINS_17StringMapIteratorIS3_EEbENS_9StringRefEDpOT_
   fun:insert
   fun:_ZN12_GLOBAL__N_117CommandLineParser9addOptionEPN4llvm2cl6OptionEPNS2_10SubCommandE
   fun:addOption
   fun:_ZN4llvm2cl6Option11addArgumentEv
   fun:done
   fun:opt<char [17], llvm::cl::OptionHidden, llvm::cl::initializer<int>, llvm::cl::NumOccurrencesFlag, llvm::cl::cb<void, int>, llvm::cl::desc>
   fun:__static_initialization_and_destruction_0
   fun:_GLOBAL__sub_I_OptBisect.cpp
   fun:call_init
   fun:call_init
   fun:_dl_init
   fun:_dl_catch_exception
   fun:dl_open_worker
   fun:_dl_catch_exception
   fun:_dl_open
   fun:dlopen_doit
}
{
   <insert_a_suppression_name_here>
   Memcheck:Leak
   match-leak-kinds: reachable
   fun:_ZnwmSt11align_val_t
   fun:Allocate
   fun:allocateWithKey<llvm::MallocAllocator>
   fun:create<llvm::MallocAllocator, llvm::cl::Option*>
   fun:_ZN4llvm9StringMapIPNS_2cl6OptionENS_15MallocAllocatorEE11try_emplaceIJS3_EEESt4pairINS_17StringMapIteratorIS3_EEbENS_9StringRefEDpOT_
   fun:insert
   fun:_ZN12_GLOBAL__N_117CommandLineParser9addOptionEPN4llvm2cl6OptionEPNS2_10SubCommandE
   fun:addOption
   fun:_ZN4llvm2cl6Option11addArgumentEv
   fun:done
   fun:opt<char [17], llvm::cl::desc, llvm::cl::initializer<bool>, llvm::cl::OptionHidden>
   fun:_Z41__static_initialization_and_destruction_0v
   fun:call_init
   fun:call_init
   fun:_dl_init
   fun:_dl_catch_exception
   fun:dl_open_worker
   fun:_dl_catch_exception
   fun:_dl_open
   fun:dlopen_doit
}
{
   <insert_a_suppression_name_here>
   Memcheck:Leak
   match-leak-kinds: reachable
   fun:_ZnwmSt11align_val_t
   fun:Allocate
   fun:allocateWithKey<llvm::MallocAllocator>
   fun:create<llvm::MallocAllocator, llvm::cl::Option*>
   fun:_ZN4llvm9StringMapIPNS_2cl6OptionENS_15MallocAllocatorEE11try_emplaceIJS3_EEESt4pairINS_17StringMapIteratorIS3_EEbENS_9StringRefEDpOT_
   fun:insert
   fun:_ZN12_GLOBAL__N_117CommandLineParser9addOptionEPN4llvm2cl6OptionEPNS2_10SubCommandE
   fun:addOption
   fun:_ZN4llvm2cl6Option11addArgumentEv
   fun:done
   fun:opt<char [17], llvm::cl::desc, llvm::cl::initializer<bool>, llvm::cl::OptionHidden>
   fun:__static_initialization_and_destruction_0
   fun:_GLOBAL__sub_I_CFIInstrInserter.cpp
   fun:call_init
   fun:call_init
   fun:_dl_init
   fun:_dl_catch_exception
   fun:dl_open_worker
   fun:_dl_catch_exception
   fun:_dl_open
   fun:dlopen_doit
}
{
   <insert_a_suppression_name_here>
   Memcheck:Leak
   match-leak-kinds: reachable
   fun:_ZnwmSt11align_val_t
   fun:Allocate
   fun:allocateWithKey<llvm::MallocAllocator>
   fun:create<llvm::MallocAllocator, llvm::cl::Option*>
   fun:_ZN4llvm9StringMapIPNS_2cl6OptionENS_15MallocAllocatorEE11try_emplaceIJS3_EEESt4pairINS_17StringMapIteratorIS3_EEbENS_9StringRefEDpOT_
   fun:insert
   fun:_ZN12_GLOBAL__N_117CommandLineParser9addOptionEPN4llvm2cl6OptionEPNS2_10SubCommandE
   fun:addOption
   fun:_ZN4llvm2cl6Option11addArgumentEv
   fun:done
   fun:opt<char [17], llvm::cl::OptionHidden, llvm::cl::desc>
   fun:__static_initialization_and_destruction_0
   fun:_GLOBAL__sub_I_LLVMTargetMachine.cpp
   fun:call_init
   fun:call_init
   fun:_dl_init
   fun:_dl_catch_exception
   fun:dl_open_worker
   fun:_dl_catch_exception
   fun:_dl_open
   fun:dlopen_doit
}
{
   <insert_a_suppression_name_here>
   Memcheck:Leak
   match-leak-kinds: reachable
   fun:_ZnwmSt11align_val_t
   fun:Allocate
   fun:allocateWithKey<llvm::MallocAllocator>
   fun:create<llvm::MallocAllocator, llvm::cl::Option*>
   fun:_ZN4llvm9StringMapIPNS_2cl6OptionENS_15MallocAllocatorEE11try_emplaceIJS3_EEESt4pairINS_17StringMapIteratorIS3_EEbENS_9StringRefEDpOT_
   fun:insert
   fun:_ZN12_GLOBAL__N_117CommandLineParser9addOptionEPN4llvm2cl6OptionEPNS2_10SubCommandE
   fun:addOption
   fun:_ZN4llvm2cl6Option11addArgumentEv
   fun:done
   fun:opt<char [17], llvm::cl::desc, llvm::cl::initializer<int>, llvm::cl::OptionHidden>
   fun:_Z41__static_initialization_and_destruction_0v
   fun:call_init
   fun:call_init
   fun:_dl_init
   fun:_dl_catch_exception
   fun:dl_open_worker
   fun:_dl_catch_exception
   fun:_dl_open
   fun:dlopen_doit
}
{
   <insert_a_suppression_name_here>
   Memcheck:Leak
   match-leak-kinds: reachable
   fun:_ZnwmSt11align_val_t
   fun:Allocate
   fun:allocateWithKey<llvm::MallocAllocator>
   fun:create<llvm::MallocAllocator, llvm::cl::Option*>
   fun:_ZN4llvm9StringMapIPNS_2cl6OptionENS_15MallocAllocatorEE11try_emplaceIJS3_EEESt4pairINS_17StringMapIteratorIS3_EEbENS_9StringRefEDpOT_
   fun:insert
   fun:_ZN12_GLOBAL__N_117CommandLineParser9addOptionEPN4llvm2cl6OptionEPNS2_10SubCommandE
   fun:addOption
   fun:_ZN4llvm2cl6Option11addArgumentEv
   fun:done
   fun:opt<char [17], llvm::cl::OptionHidden, llvm::cl::initializer<int>, llvm::cl::desc>
   fun:__static_initialization_and_destruction_0
   fun:_GLOBAL__sub_I_MachineCSE.cpp
   fun:call_init
   fun:call_init
   fun:_dl_init
   fun:_dl_catch_exception
   fun:dl_open_worker
   fun:_dl_catch_exception
   fun:_dl_open
   fun:dlopen_doit
}
{
   <insert_a_suppression_name_here>
   Memcheck:Leak
   match-leak-kinds: reachable
   fun:_ZnwmSt11align_val_t
   fun:Allocate
   fun:allocateWithKey<llvm::MallocAllocator>
   fun:create<llvm::MallocAllocator, llvm::cl::Option*>
   fun:_ZN4llvm9StringMapIPNS_2cl6OptionENS_15MallocAllocatorEE11try_emplaceIJS3_EEESt4pairINS_17StringMapIteratorIS3_EEbENS_9StringRefEDpOT_
   fun:insert
   fun:_ZN12_GLOBAL__N_117CommandLineParser9addOptionEPN4llvm2cl6OptionEPNS2_10SubCommandE
   fun:addOption
   fun:_ZN4llvm2cl6Option11addArgumentEv
   fun:done
   fun:opt<char [17], llvm::cl::desc, llvm::cl::initializer<bool>, llvm::cl::OptionHidden>
   fun:__static_initialization_and_destruction_0
   fun:_GLOBAL__sub_I_MachineFunctionSplitter.cpp
   fun:call_init
   fun:call_init
   fun:_dl_init
   fun:_dl_catch_exception
   fun:dl_open_worker
   fun:_dl_catch_exception
   fun:_dl_open
   fun:dlopen_doit
}
{
   <insert_a_suppression_name_here>
   Memcheck:Leak
   match-leak-kinds: reachable
   fun:_ZnwmSt11align_val_t
   fun:Allocate
   fun:allocateWithKey<llvm::MallocAllocator>
   fun:create<llvm::MallocAllocator, llvm::cl::Option*>
   fun:_ZN4llvm9StringMapIPNS_2cl6OptionENS_15MallocAllocatorEE11try_emplaceIJS3_EEESt4pairINS_17StringMapIteratorIS3_EEbENS_9StringRefEDpOT_
   fun:insert
   fun:_ZN12_GLOBAL__N_117CommandLineParser9addOptionEPN4llvm2cl6OptionEPNS2_10SubCommandE
   fun:addOption
   fun:_ZN4llvm2cl6Option11addArgumentEv
   fun:done
   fun:opt<char [17], llvm::cl::OptionHidden, llvm::cl::initializer<bool>, llvm::cl::desc>
   fun:_Z41__static_initialization_and_destruction_0v
   fun:call_init
   fun:call_init
   fun:_dl_init
   fun:_dl_catch_exception
   fun:dl_open_worker
   fun:_dl_catch_exception
   fun:_dl_open
   fun:dlopen_doit
}
{
   <insert_a_suppression_name_here>
   Memcheck:Leak
   match-leak-kinds: reachable
   fun:_ZnwmSt11align_val_t
   fun:Allocate
   fun:allocateWithKey<llvm::MallocAllocator>
   fun:create<llvm::MallocAllocator, llvm::cl::Option*>
   fun:_ZN4llvm9StringMapIPNS_2cl6OptionENS_15MallocAllocatorEE11try_emplaceIJS3_EEESt4pairINS_17StringMapIteratorIS3_EEbENS_9StringRefEDpOT_
   fun:insert
   fun:_ZN12_GLOBAL__N_117CommandLineParser9addOptionEPN4llvm2cl6OptionEPNS2_10SubCommandE
   fun:addOption
   fun:_ZN4llvm2cl6Option11addArgumentEv
   fun:done
   fun:opt<char [17], llvm::cl::OptionHidden, llvm::cl::desc>
   fun:_Z41__static_initialization_and_destruction_0v
   fun:call_init
   fun:call_init
   fun:_dl_init
   fun:_dl_catch_exception
   fun:dl_open_worker
   fun:_dl_catch_exception
   fun:_dl_open
   fun:dlopen_doit
}
{
   <insert_a_suppression_name_here>
   Memcheck:Leak
   match-leak-kinds: reachable
   fun:_ZnwmSt11align_val_t
   fun:Allocate
   fun:allocateWithKey<llvm::MallocAllocator>
   fun:create<llvm::MallocAllocator, llvm::cl::Option*>
   fun:_ZN4llvm9StringMapIPNS_2cl6OptionENS_15MallocAllocatorEE11try_emplaceIJS3_EEESt4pairINS_17StringMapIteratorIS3_EEbENS_9StringRefEDpOT_
   fun:insert
   fun:_ZN12_GLOBAL__N_117CommandLineParser9addOptionEPN4llvm2cl6OptionEPNS2_10SubCommandE
   fun:addOption
   fun:_ZN4llvm2cl6Option11addArgumentEv
   fun:done
   fun:opt<char [17], llvm::cl::desc, llvm::cl::initializer<bool>, llvm::cl::OptionHidden>
   fun:__static_initialization_and_destruction_0
   fun:_GLOBAL__sub_I_MachineSink.cpp
   fun:call_init
   fun:call_init
   fun:_dl_init
   fun:_dl_catch_exception
   fun:dl_open_worker
   fun:_dl_catch_exception
   fun:_dl_open
   fun:dlopen_doit
}
{
   <insert_a_suppression_name_here>
   Memcheck:Leak
   match-leak-kinds: reachable
   fun:_ZnwmSt11align_val_t
   fun:Allocate
   fun:allocateWithKey<llvm::MallocAllocator>
   fun:create<llvm::MallocAllocator, llvm::cl::Option*>
   fun:_ZN4llvm9StringMapIPNS_2cl6OptionENS_15MallocAllocatorEE11try_emplaceIJS3_EEESt4pairINS_17StringMapIteratorIS3_EEbENS_9StringRefEDpOT_
   fun:insert
   fun:_ZN12_GLOBAL__N_117CommandLineParser9addOptionEPN4llvm2cl6OptionEPNS2_10SubCommandE
   fun:addOption
   fun:_ZN4llvm2cl6Option11addArgumentEv
   fun:done
   fun:opt<char [17], llvm::cl::OptionHidden, llvm::cl::initializer<bool>, llvm::cl::desc>
   fun:__static_initialization_and_destruction_0
   fun:_GLOBAL__sub_I_MIRSampleProfile.cpp
   fun:call_init
   fun:call_init
   fun:_dl_init
   fun:_dl_catch_exception
   fun:dl_open_worker
   fun:_dl_catch_exception
   fun:_dl_open
   fun:dlopen_doit
}
{
   <insert_a_suppression_name_here>
   Memcheck:Leak
   match-leak-kinds: reachable
   fun:_ZnwmSt11align_val_t
   fun:Allocate
   fun:allocateWithKey<llvm::MallocAllocator>
   fun:create<llvm::MallocAllocator, llvm::cl::Option*>
   fun:_ZN4llvm9StringMapIPNS_2cl6OptionENS_15MallocAllocatorEE11try_emplaceIJS3_EEESt4pairINS_17StringMapIteratorIS3_EEbENS_9StringRefEDpOT_
   fun:insert
   fun:_ZN12_GLOBAL__N_117CommandLineParser9addOptionEPN4llvm2cl6OptionEPNS2_10SubCommandE
   fun:addOption
   fun:_ZN4llvm2cl6Option11addArgumentEv
   fun:done
   fun:opt<char [17], llvm::cl::OptionHidden, llvm::cl::initializer<bool>, llvm::cl::desc>
   fun:__static_initialization_and_destruction_0
   fun:_GLOBAL__sub_I_PeepholeOptimizer.cpp
   fun:call_init
   fun:call_init
   fun:_dl_init
   fun:_dl_catch_exception
   fun:dl_open_worker
   fun:_dl_catch_exception
   fun:_dl_open
   fun:dlopen_doit
}
{
   <insert_a_suppression_name_here>
   Memcheck:Leak
   match-leak-kinds: reachable
   fun:_ZnwmSt11align_val_t
   fun:Allocate
   fun:allocateWithKey<llvm::MallocAllocator>
   fun:create<llvm::MallocAllocator, llvm::cl::Option*>
   fun:_ZN4llvm9StringMapIPNS_2cl6OptionENS_15MallocAllocatorEE11try_emplaceIJS3_EEESt4pairINS_17StringMapIteratorIS3_EEbENS_9StringRefEDpOT_
   fun:insert
   fun:_ZN12_GLOBAL__N_117CommandLineParser9addOptionEPN4llvm2cl6OptionEPNS2_10SubCommandE
   fun:addOption
   fun:_ZN4llvm2cl6Option11addArgumentEv
   fun:done
   fun:opt<char [17], llvm::cl::OptionHidden, llvm::cl::desc, llvm::cl::ValuesClass, llvm::cl::initializer<llvm::SplitEditor::ComplementSpillMode> >
   fun:_Z41__static_initialization_and_destruction_0v
   fun:call_init
   fun:call_init
   fun:_dl_init
   fun:_dl_catch_exception
   fun:dl_open_worker
   fun:_dl_catch_exception
   fun:_dl_open
   fun:dlopen_doit
}
{
   <insert_a_suppression_name_here>
   Memcheck:Leak
   match-leak-kinds: reachable
   fun:_ZnwmSt11align_val_t
   fun:Allocate
   fun:allocateWithKey<llvm::MallocAllocator>
   fun:create<llvm::MallocAllocator, llvm::cl::Option*>
   fun:_ZN4llvm9StringMapIPNS_2cl6OptionENS_15MallocAllocatorEE11try_emplaceIJS3_EEESt4pairINS_17StringMapIteratorIS3_EEbENS_9StringRefEDpOT_
   fun:insert
   fun:_ZN12_GLOBAL__N_117CommandLineParser9addOptionEPN4llvm2cl6OptionEPNS2_10SubCommandE
   fun:addOption
   fun:_ZN4llvm2cl6Option11addArgumentEv
   fun:done
   fun:opt<char [17], llvm::cl::initializer<int>, llvm::cl::OptionHidden, llvm::cl::desc>
   fun:__static_initialization_and_destruction_0
   fun:_GLOBAL__sub_I_StackMaps.cpp
   fun:call_init
   fun:call_init
   fun:_dl_init
   fun:_dl_catch_exception
   fun:dl_open_worker
   fun:_dl_catch_exception
   fun:_dl_open
   fun:dlopen_doit
}
{
   <insert_a_suppression_name_here>
   Memcheck:Leak
   match-leak-kinds: reachable
   fun:_ZnwmSt11align_val_t
   fun:Allocate
   fun:allocateWithKey<llvm::MallocAllocator>
   fun:create<llvm::MallocAllocator, llvm::cl::Option*>
   fun:_ZN4llvm9StringMapIPNS_2cl6OptionENS_15MallocAllocatorEE11try_emplaceIJS3_EEESt4pairINS_17StringMapIteratorIS3_EEbENS_9StringRefEDpOT_
   fun:insert
   fun:_ZN12_GLOBAL__N_117CommandLineParser9addOptionEPN4llvm2cl6OptionEPNS2_10SubCommandE
   fun:addOption
   fun:_ZN4llvm2cl6Option11addArgumentEv
   fun:done
   fun:opt<char [17], llvm::cl::initializer<bool>, llvm::cl::OptionHidden, llvm::cl::desc>
   fun:_Z41__static_initialization_and_destruction_0v
   fun:call_init
   fun:call_init
   fun:_dl_init
   fun:_dl_catch_exception
   fun:dl_open_worker
   fun:_dl_catch_exception
   fun:_dl_open
   fun:dlopen_doit
}
{
   <insert_a_suppression_name_here>
   Memcheck:Leak
   match-leak-kinds: reachable
   fun:_ZnwmSt11align_val_t
   fun:Allocate
   fun:allocateWithKey<llvm::MallocAllocator>
   fun:create<llvm::MallocAllocator, llvm::cl::Option*>
   fun:_ZN4llvm9StringMapIPNS_2cl6OptionENS_15MallocAllocatorEE11try_emplaceIJS3_EEESt4pairINS_17StringMapIteratorIS3_EEbENS_9StringRefEDpOT_
   fun:insert
   fun:_ZN12_GLOBAL__N_117CommandLineParser9addOptionEPN4llvm2cl6OptionEPNS2_10SubCommandE
   fun:addOption
   fun:_ZN4llvm2cl6Option11addArgumentEv
   fun:__static_initialization_and_destruction_0
   fun:_GLOBAL__sub_I_WinEHPrepare.cpp
   fun:call_init
   fun:call_init
   fun:_dl_init
   fun:_dl_catch_exception
   fun:dl_open_worker
   fun:_dl_catch_exception
   fun:_dl_open
   fun:dlopen_doit
}
{
   <insert_a_suppression_name_here>
   Memcheck:Leak
   match-leak-kinds: reachable
   fun:_ZnwmSt11align_val_t
   fun:Allocate
   fun:allocateWithKey<llvm::MallocAllocator>
   fun:create<llvm::MallocAllocator, llvm::cl::Option*>
   fun:_ZN4llvm9StringMapIPNS_2cl6OptionENS_15MallocAllocatorEE11try_emplaceIJS3_EEESt4pairINS_17StringMapIteratorIS3_EEbENS_9StringRefEDpOT_
   fun:insert
   fun:_ZN12_GLOBAL__N_117CommandLineParser9addOptionEPN4llvm2cl6OptionEPNS2_10SubCommandE
   fun:addOption
   fun:_ZN4llvm2cl6Option11addArgumentEv
   fun:done
   fun:opt<char [17], llvm::cl::OptionHidden, llvm::cl::desc>
   fun:__static_initialization_and_destruction_0
   fun:_GLOBAL__sub_I_SelectionDAGDumper.cpp
   fun:call_init
   fun:call_init
   fun:_dl_init
   fun:_dl_catch_exception
   fun:dl_open_worker
   fun:_dl_catch_exception
   fun:_dl_open
   fun:dlopen_doit
}
{
   <insert_a_suppression_name_here>
   Memcheck:Leak
   match-leak-kinds: reachable
   fun:_ZnwmSt11align_val_t
   fun:Allocate
   fun:allocateWithKey<llvm::MallocAllocator>
   fun:create<llvm::MallocAllocator, llvm::cl::Option*>
   fun:_ZN4llvm9StringMapIPNS_2cl6OptionENS_15MallocAllocatorEE11try_emplaceIJS3_EEESt4pairINS_17StringMapIteratorIS3_EEbENS_9StringRefEDpOT_
   fun:insert
   fun:_ZN12_GLOBAL__N_117CommandLineParser9addOptionEPN4llvm2cl6OptionEPNS2_10SubCommandE
   fun:addOption
   fun:_ZN4llvm2cl6Option11addArgumentEv
   fun:done
   fun:bits<char [17], llvm::cl::OptionHidden, llvm::cl::MiscFlags, llvm::cl::ValuesClass, llvm::cl::desc>
   fun:_Z41__static_initialization_and_destruction_0v
   fun:call_init
   fun:call_init
   fun:_dl_init
   fun:_dl_catch_exception
   fun:dl_open_worker
   fun:_dl_catch_exception
   fun:_dl_open
   fun:dlopen_doit
}
{
   <insert_a_suppression_name_here>
   Memcheck:Leak
   match-leak-kinds: reachable
   fun:_ZnwmSt11align_val_t
   fun:Allocate
   fun:allocateWithKey<llvm::MallocAllocator>
   fun:create<llvm::MallocAllocator, llvm::cl::Option*>
   fun:_ZN4llvm9StringMapIPNS_2cl6OptionENS_15MallocAllocatorEE11try_emplaceIJS3_EEESt4pairINS_17StringMapIteratorIS3_EEbENS_9StringRefEDpOT_
   fun:insert
   fun:_ZN12_GLOBAL__N_117CommandLineParser9addOptionEPN4llvm2cl6OptionEPNS2_10SubCommandE
   fun:addOption
   fun:_ZN4llvm2cl6Option11addArgumentEv
   fun:done
   fun:opt<char [17], llvm::cl::OptionHidden, llvm::cl::desc, llvm::cl::ValuesClass, llvm::cl::initializer<DefaultOnOff> >
   fun:_Z41__static_initialization_and_destruction_0v
   fun:call_init
   fun:call_init
   fun:_dl_init
   fun:_dl_catch_exception
   fun:dl_open_worker
   fun:_dl_catch_exception
   fun:_dl_open
   fun:dlopen_doit
}
{
   <insert_a_suppression_name_here>
   Memcheck:Leak
   match-leak-kinds: reachable
   fun:_ZnwmSt11align_val_t
   fun:Allocate
   fun:allocateWithKey<llvm::MallocAllocator>
   fun:create<llvm::MallocAllocator, llvm::cl::Option*>
   fun:_ZN4llvm9StringMapIPNS_2cl6OptionENS_15MallocAllocatorEE11try_emplaceIJS3_EEESt4pairINS_17StringMapIteratorIS3_EEbENS_9StringRefEDpOT_
   fun:insert
   fun:_ZN12_GLOBAL__N_117CommandLineParser9addOptionEPN4llvm2cl6OptionEPNS2_10SubCommandE
   fun:addOption
   fun:_ZN4llvm2cl6Option11addArgumentEv
   fun:done
   fun:opt<char [17], llvm::cl::initializer<bool>, llvm::cl::desc, llvm::cl::OptionHidden>
   fun:__static_initialization_and_destruction_0
   fun:_GLOBAL__sub_I_MetaRenamer.cpp
   fun:call_init
   fun:call_init
   fun:_dl_init
   fun:_dl_catch_exception
   fun:dl_open_worker
   fun:_dl_catch_exception
   fun:_dl_open
   fun:dlopen_doit
}
{
   <insert_a_suppression_name_here>
   Memcheck:Leak
   match-leak-kinds: reachable
   fun:_ZnwmSt11align_val_t
   fun:Allocate
   fun:allocateWithKey<llvm::MallocAllocator>
   fun:create<llvm::MallocAllocator, llvm::cl::Option*>
   fun:_ZN4llvm9StringMapIPNS_2cl6OptionENS_15MallocAllocatorEE11try_emplaceIJS3_EEESt4pairINS_17StringMapIteratorIS3_EEbENS_9StringRefEDpOT_
   fun:insert
   fun:_ZN12_GLOBAL__N_117CommandLineParser9addOptionEPN4llvm2cl6OptionEPNS2_10SubCommandE
   fun:addOption
   fun:_ZN4llvm2cl6Option11addArgumentEv
   fun:done
   fun:list<char [17], llvm::cl::desc, llvm::cl::value_desc, llvm::cl::OptionHidden>
   fun:__static_initialization_and_destruction_0
   fun:_GLOBAL__sub_I_SymbolRewriter.cpp
   fun:call_init
   fun:call_init
   fun:_dl_init
   fun:_dl_catch_exception
   fun:dl_open_worker
   fun:_dl_catch_exception
   fun:_dl_open
   fun:dlopen_doit
}
{
   <insert_a_suppression_name_here>
   Memcheck:Leak
   match-leak-kinds: reachable
   fun:_ZnwmSt11align_val_t
   fun:Allocate
   fun:allocateWithKey<llvm::MallocAllocator>
   fun:create<llvm::MallocAllocator, llvm::cl::Option*>
   fun:_ZN4llvm9StringMapIPNS_2cl6OptionENS_15MallocAllocatorEE11try_emplaceIJS3_EEESt4pairINS_17StringMapIteratorIS3_EEbENS_9StringRefEDpOT_
   fun:insert
   fun:_ZN12_GLOBAL__N_117CommandLineParser9addOptionEPN4llvm2cl6OptionEPNS2_10SubCommandE
   fun:addOption
   fun:_ZN4llvm2cl6Option11addArgumentEv
   fun:done
   fun:opt<char [17], llvm::cl::desc, llvm::cl::OptionHidden, llvm::cl::initializer<int> >
   fun:_Z41__static_initialization_and_destruction_0v
   fun:call_init
   fun:call_init
   fun:_dl_init
   fun:_dl_catch_exception
   fun:dl_open_worker
   fun:_dl_catch_exception
   fun:_dl_open
   fun:dlopen_doit
}
{
   <insert_a_suppression_name_here>
   Memcheck:Leak
   match-leak-kinds: reachable
   fun:_ZnwmSt11align_val_t
   fun:Allocate
   fun:allocateWithKey<llvm::MallocAllocator>
   fun:create<llvm::MallocAllocator, llvm::cl::Option*>
   fun:_ZN4llvm9StringMapIPNS_2cl6OptionENS_15MallocAllocatorEE11try_emplaceIJS3_EEESt4pairINS_17StringMapIteratorIS3_EEbENS_9StringRefEDpOT_
   fun:insert
   fun:_ZN12_GLOBAL__N_117CommandLineParser9addOptionEPN4llvm2cl6OptionEPNS2_10SubCommandE
   fun:addOption
   fun:_ZN4llvm2cl6Option11addArgumentEv
   fun:done
   fun:opt<char [17], llvm::cl::OptionHidden, llvm::cl::initializer<int>, llvm::cl::desc>
   fun:__static_initialization_and_destruction_0
   fun:_GLOBAL__sub_I_GVN.cpp
   fun:call_init
   fun:call_init
   fun:_dl_init
   fun:_dl_catch_exception
   fun:dl_open_worker
   fun:_dl_catch_exception
   fun:_dl_open
   fun:dlopen_doit
}
{
   <insert_a_suppression_name_here>
   Memcheck:Leak
   match-leak-kinds: reachable
   fun:_ZnwmSt11align_val_t
   fun:Allocate
   fun:allocateWithKey<llvm::MallocAllocator>
   fun:create<llvm::MallocAllocator, llvm::cl::Option*>
   fun:_ZN4llvm9StringMapIPNS_2cl6OptionENS_15MallocAllocatorEE11try_emplaceIJS3_EEESt4pairINS_17StringMapIteratorIS3_EEbENS_9StringRefEDpOT_
   fun:insert
   fun:_ZN12_GLOBAL__N_117CommandLineParser9addOptionEPN4llvm2cl6OptionEPNS2_10SubCommandE
   fun:addOption
   fun:_ZN4llvm2cl6Option11addArgumentEv
   fun:done
   fun:opt<char [17], llvm::cl::OptionHidden, llvm::cl::initializer<bool>, llvm::cl::desc>
   fun:__static_initialization_and_destruction_0
   fun:_GLOBAL__sub_I_SimplifyCFGPass.cpp
   fun:call_init
   fun:call_init
   fun:_dl_init
   fun:_dl_catch_exception
   fun:dl_open_worker
   fun:_dl_catch_exception
   fun:_dl_open
   fun:dlopen_doit
}
{
   <insert_a_suppression_name_here>
   Memcheck:Leak
   match-leak-kinds: reachable
   fun:_ZnwmSt11align_val_t
   fun:Allocate
   fun:allocateWithKey<llvm::MallocAllocator>
   fun:create<llvm::MallocAllocator, llvm::cl::Option*>
   fun:_ZN4llvm9StringMapIPNS_2cl6OptionENS_15MallocAllocatorEE11try_emplaceIJS3_EEESt4pairINS_17StringMapIteratorIS3_EEbENS_9StringRefEDpOT_
   fun:insert
   fun:_ZN12_GLOBAL__N_117CommandLineParser9addOptionEPN4llvm2cl6OptionEPNS2_10SubCommandE
   fun:addOption
   fun:_ZN4llvm2cl6Option11addArgumentEv
   fun:done
   fun:opt<char [17], llvm::cl::desc>
   fun:_Z41__static_initialization_and_destruction_0v
   fun:call_init
   fun:call_init
   fun:_dl_init
   fun:_dl_catch_exception
   fun:dl_open_worker
   fun:_dl_catch_exception
   fun:_dl_open
   fun:dlopen_doit
}
{
   <insert_a_suppression_name_here>
   Memcheck:Leak
   match-leak-kinds: reachable
   fun:_ZnwmSt11align_val_t
   fun:Allocate
   fun:allocateWithKey<llvm::MallocAllocator>
   fun:create<llvm::MallocAllocator, llvm::cl::Option*>
   fun:_ZN4llvm9StringMapIPNS_2cl6OptionENS_15MallocAllocatorEE11try_emplaceIJS3_EEESt4pairINS_17StringMapIteratorIS3_EEbENS_9StringRefEDpOT_
   fun:insert
   fun:_ZN12_GLOBAL__N_117CommandLineParser9addOptionEPN4llvm2cl6OptionEPNS2_10SubCommandE
   fun:addOption
   fun:_ZN4llvm2cl6Option11addArgumentEv
   fun:done
   fun:opt<char [17], llvm::cl::desc, llvm::cl::initializer<int>, llvm::cl::OptionHidden>
   fun:__static_initialization_and_destruction_0
   fun:_GLOBAL__sub_I_MergeFunctions.cpp
   fun:call_init
   fun:call_init
   fun:_dl_init
   fun:_dl_catch_exception
   fun:dl_open_worker
   fun:_dl_catch_exception
   fun:_dl_open
   fun:dlopen_doit
}
{
   <insert_a_suppression_name_here>
   Memcheck:Leak
   match-leak-kinds: reachable
   fun:_ZnwmSt11align_val_t
   fun:Allocate
   fun:allocateWithKey<llvm::MallocAllocator>
   fun:create<llvm::MallocAllocator, llvm::cl::Option*>
   fun:_ZN4llvm9StringMapIPNS_2cl6OptionENS_15MallocAllocatorEE11try_emplaceIJS3_EEESt4pairINS_17StringMapIteratorIS3_EEbENS_9StringRefEDpOT_
   fun:insert
   fun:_ZN12_GLOBAL__N_117CommandLineParser9addOptionEPN4llvm2cl6OptionEPNS2_10SubCommandE
   fun:addOption
   fun:_ZN4llvm2cl6Option11addArgumentEv
   fun:done
   fun:opt<char [17], llvm::cl::OptionHidden, llvm::cl::initializer<bool> >
   fun:__static_initialization_and_destruction_0
   fun:_GLOBAL__sub_I_AliasAnalysis.cpp
   fun:call_init
   fun:call_init
   fun:_dl_init
   fun:_dl_catch_exception
   fun:dl_open_worker
   fun:_dl_catch_exception
   fun:_dl_open
   fun:dlopen_doit
}
{
   <insert_a_suppression_name_here>
   Memcheck:Leak
   match-leak-kinds: reachable
   fun:_ZnwmSt11align_val_t
   fun:Allocate
   fun:allocateWithKey<llvm::MallocAllocator>
   fun:create<llvm::MallocAllocator, llvm::cl::Option*>
   fun:_ZN4llvm9StringMapIPNS_2cl6OptionENS_15MallocAllocatorEE11try_emplaceIJS3_EEESt4pairINS_17StringMapIteratorIS3_EEbENS_9StringRefEDpOT_
   fun:insert
   fun:_ZN12_GLOBAL__N_117CommandLineParser9addOptionEPN4llvm2cl6OptionEPNS2_10SubCommandE
   fun:addOption
   fun:_ZN4llvm2cl6Option11addArgumentEv
   fun:done
   fun:opt<char [17], llvm::cl::OptionHidden>
   fun:__static_initialization_and_destruction_0
   fun:_GLOBAL__sub_I_AliasAnalysisEvaluator.cpp
   fun:call_init
   fun:call_init
   fun:_dl_init
   fun:_dl_catch_exception
   fun:dl_open_worker
   fun:_dl_catch_exception
   fun:_dl_open
   fun:dlopen_doit
}
{
   <insert_a_suppression_name_here>
   Memcheck:Leak
   match-leak-kinds: reachable
   fun:_ZnwmSt11align_val_t
   fun:Allocate
   fun:allocateWithKey<llvm::MallocAllocator>
   fun:create<llvm::MallocAllocator, llvm::cl::Option*>
   fun:_ZN4llvm9StringMapIPNS_2cl6OptionENS_15MallocAllocatorEE11try_emplaceIJS3_EEESt4pairINS_17StringMapIteratorIS3_EEbENS_9StringRefEDpOT_
   fun:insert
   fun:_ZN12_GLOBAL__N_117CommandLineParser9addOptionEPN4llvm2cl6OptionEPNS2_10SubCommandE
   fun:addOption
   fun:_ZN4llvm2cl6Option11addArgumentEv
   fun:done
   fun:opt<char [17], llvm::cl::OptionHidden, llvm::cl::initializer<int>, llvm::cl::desc>
   fun:_Z41__static_initialization_and_destruction_0v
   fun:call_init
   fun:call_init
   fun:_dl_init
   fun:_dl_catch_exception
   fun:dl_open_worker
   fun:_dl_catch_exception
   fun:_dl_open
   fun:dlopen_doit
}
{
   <insert_a_suppression_name_here>
   Memcheck:Leak
   match-leak-kinds: reachable
   fun:_ZnwmSt11align_val_t
   fun:Allocate
   fun:allocateWithKey<llvm::MallocAllocator>
   fun:create<llvm::MallocAllocator, llvm::cl::Option*>
   fun:_ZN4llvm9StringMapIPNS_2cl6OptionENS_15MallocAllocatorEE11try_emplaceIJS3_EEESt4pairINS_17StringMapIteratorIS3_EEbENS_9StringRefEDpOT_
   fun:insert
   fun:_ZN12_GLOBAL__N_117CommandLineParser9addOptionEPN4llvm2cl6OptionEPNS2_10SubCommandE
   fun:addOption
   fun:_ZN4llvm2cl6Option11addArgumentEv
   fun:done
   fun:opt<char [17], llvm::cl::LocationClass<bool>, llvm::cl::OptionHidden, llvm::cl::desc>
   fun:__static_initialization_and_destruction_0
   fun:_GLOBAL__sub_I_LoopInfo.cpp
   fun:call_init
   fun:call_init
   fun:_dl_init
   fun:_dl_catch_exception
   fun:dl_open_worker
   fun:_dl_catch_exception
   fun:_dl_open
   fun:dlopen_doit
}
{
   <insert_a_suppression_name_here>
   Memcheck:Leak
   match-leak-kinds: reachable
   fun:_ZnwmSt11align_val_t
   fun:Allocate
   fun:allocateWithKey<llvm::MallocAllocator>
   fun:create<llvm::MallocAllocator, llvm::cl::Option*>
   fun:_ZN4llvm9StringMapIPNS_2cl6OptionENS_15MallocAllocatorEE11try_emplaceIJS3_EEESt4pairINS_17StringMapIteratorIS3_EEbENS_9StringRefEDpOT_
   fun:insert
   fun:_ZN12_GLOBAL__N_117CommandLineParser9addOptionEPN4llvm2cl6OptionEPNS2_10SubCommandE
   fun:addOption
   fun:_ZN4llvm2cl6Option11addArgumentEv
   fun:done
   fun:opt<char [17], llvm::cl::LocationClass<bool>, llvm::cl::OptionHidden, llvm::cl::desc>
   fun:__static_initialization_and_destruction_0
   fun:_GLOBAL__sub_I_MemorySSA.cpp
   fun:call_init
   fun:call_init
   fun:_dl_init
   fun:_dl_catch_exception
   fun:dl_open_worker
   fun:_dl_catch_exception
   fun:_dl_open
   fun:dlopen_doit
}
{
   <insert_a_suppression_name_here>
   Memcheck:Leak
   match-leak-kinds: reachable
   fun:_ZnwmSt11align_val_t
   fun:Allocate
   fun:allocateWithKey<llvm::MallocAllocator>
   fun:create<llvm::MallocAllocator, llvm::cl::Option*>
   fun:_ZN4llvm9StringMapIPNS_2cl6OptionENS_15MallocAllocatorEE11try_emplaceIJS3_EEESt4pairINS_17StringMapIteratorIS3_EEbENS_9StringRefEDpOT_
   fun:insert
   fun:_ZN12_GLOBAL__N_117CommandLineParser9addOptionEPN4llvm2cl6OptionEPNS2_10SubCommandE
   fun:addOption
   fun:_ZN4llvm2cl6Option11addArgumentEv
   fun:done
   fun:opt<char [17], llvm::cl::initializer<bool>, llvm::cl::OptionHidden>
   fun:__static_initialization_and_destruction_0
   fun:_GLOBAL__sub_I_StackSafetyAnalysis.cpp
   fun:call_init
   fun:call_init
   fun:_dl_init
   fun:_dl_catch_exception
   fun:dl_open_worker
   fun:_dl_catch_exception
   fun:_dl_open
   fun:dlopen_doit
}
{
   <insert_a_suppression_name_here>
   Memcheck:Leak
   match-leak-kinds: reachable
   fun:_ZnwmSt11align_val_t
   fun:Allocate
   fun:allocateWithKey<llvm::MallocAllocator>
   fun:create<llvm::MallocAllocator, llvm::cl::Option*>
   fun:_ZN4llvm9StringMapIPNS_2cl6OptionENS_15MallocAllocatorEE11try_emplaceIJS3_EEESt4pairINS_17StringMapIteratorIS3_EEbENS_9StringRefEDpOT_
   fun:insert
   fun:_ZN12_GLOBAL__N_117CommandLineParser9addOptionEPN4llvm2cl6OptionEPNS2_10SubCommandE
   fun:addOption
   fun:_ZN4llvm2cl6Option11addArgumentEv
   fun:done
   fun:opt<char [17], llvm::cl::initializer<int>, llvm::cl::OptionHidden, llvm::cl::desc>
   fun:__static_initialization_and_destruction_0
   fun:_GLOBAL__sub_I_AArch64ISelLowering.cpp
   fun:call_init
   fun:call_init
   fun:_dl_init
   fun:_dl_catch_exception
   fun:dl_open_worker
   fun:_dl_catch_exception
   fun:_dl_open
   fun:dlopen_doit
}
{
   <insert_a_suppression_name_here>
   Memcheck:Leak
   match-leak-kinds: reachable
   fun:_ZnwmSt11align_val_t
   fun:Allocate
   fun:allocateWithKey<llvm::MallocAllocator>
   fun:create<llvm::MallocAllocator, llvm::cl::Option*>
   fun:_ZN4llvm9StringMapIPNS_2cl6OptionENS_15MallocAllocatorEE11try_emplaceIJS3_EEESt4pairINS_17StringMapIteratorIS3_EEbENS_9StringRefEDpOT_
   fun:insert
   fun:_ZN12_GLOBAL__N_117CommandLineParser9addOptionEPN4llvm2cl6OptionEPNS2_10SubCommandE
   fun:addOption
   fun:_ZN4llvm2cl6Option11addArgumentEv
   fun:done
   fun:opt<char [17], llvm::cl::desc, llvm::cl::LocationClass<(anonymous namespace)::TailFoldingOption> >
   fun:__static_initialization_and_destruction_0
   fun:_GLOBAL__sub_I_AArch64TargetTransformInfo.cpp
   fun:call_init
   fun:call_init
   fun:_dl_init
   fun:_dl_catch_exception
   fun:dl_open_worker
   fun:_dl_catch_exception
   fun:_dl_open
   fun:dlopen_doit
}
{
   <insert_a_suppression_name_here>
   Memcheck:Leak
   match-leak-kinds: reachable
   fun:_ZnwmSt11align_val_t
   fun:Allocate
   fun:allocateWithKey<llvm::MallocAllocator>
   fun:create<llvm::MallocAllocator, llvm::cl::Option*>
   fun:_ZN4llvm9StringMapIPNS_2cl6OptionENS_15MallocAllocatorEE11try_emplaceIJS3_EEESt4pairINS_17StringMapIteratorIS3_EEbENS_9StringRefEDpOT_
   fun:insert
   fun:_ZN12_GLOBAL__N_117CommandLineParser9addOptionEPN4llvm2cl6OptionEPNS2_10SubCommandE
   fun:addOption
   fun:_ZN4llvm2cl6Option11addArgumentEv
   fun:done
   fun:opt<char [17], llvm::cl::OptionHidden, llvm::cl::desc, llvm::cl::initializer<bool> >
   fun:_Z41__static_initialization_and_destruction_0v
   fun:call_init
   fun:call_init
   fun:_dl_init
   fun:_dl_catch_exception
   fun:dl_open_worker
   fun:_dl_catch_exception
   fun:_dl_open
   fun:dlopen_doit
}
{
   <insert_a_suppression_name_here>
   Memcheck:Leak
   match-leak-kinds: reachable
   fun:_ZnwmSt11align_val_t
   fun:Allocate
   fun:allocateWithKey<llvm::MallocAllocator>
   fun:create<llvm::MallocAllocator, llvm::cl::Option*>
   fun:_ZN4llvm9StringMapIPNS_2cl6OptionENS_15MallocAllocatorEE11try_emplaceIJS3_EEESt4pairINS_17StringMapIteratorIS3_EEbENS_9StringRefEDpOT_
   fun:insert
   fun:_ZN12_GLOBAL__N_117CommandLineParser9addOptionEPN4llvm2cl6OptionEPNS2_10SubCommandE
   fun:addOption
   fun:_ZN4llvm2cl6Option11addArgumentEv
   fun:done
   fun:opt<char [17], llvm::cl::OptionHidden, llvm::cl::desc, llvm::cl::initializer<bool> >
   fun:__static_initialization_and_destruction_0
   fun:_GLOBAL__sub_I_ARMISelLowering.cpp
   fun:call_init
   fun:call_init
   fun:_dl_init
   fun:_dl_catch_exception
   fun:dl_open_worker
   fun:_dl_catch_exception
   fun:_dl_open
   fun:dlopen_doit
}
{
   <insert_a_suppression_name_here>
   Memcheck:Leak
   match-leak-kinds: reachable
   fun:_ZnwmSt11align_val_t
   fun:Allocate
   fun:allocateWithKey<llvm::MallocAllocator>
   fun:create<llvm::MallocAllocator, llvm::cl::Option*>
   fun:_ZN4llvm9StringMapIPNS_2cl6OptionENS_15MallocAllocatorEE11try_emplaceIJS3_EEESt4pairINS_17StringMapIteratorIS3_EEbENS_9StringRefEDpOT_
   fun:insert
   fun:_ZN12_GLOBAL__N_117CommandLineParser9addOptionEPN4llvm2cl6OptionEPNS2_10SubCommandE
   fun:addOption
   fun:_ZN4llvm2cl6Option11addArgumentEv
   fun:done
   fun:opt<char [17], llvm::cl::OptionHidden, llvm::cl::desc>
   fun:__static_initialization_and_destruction_0
   fun:_GLOBAL__sub_I_ARMTargetMachine.cpp
   fun:call_init
   fun:call_init
   fun:_dl_init
   fun:_dl_catch_exception
   fun:dl_open_worker
   fun:_dl_catch_exception
   fun:_dl_open
   fun:dlopen_doit
}
{
   <insert_a_suppression_name_here>
   Memcheck:Leak
   match-leak-kinds: reachable
   fun:_ZnwmSt11align_val_t
   fun:Allocate
   fun:allocateWithKey<llvm::MallocAllocator>
   fun:create<llvm::MallocAllocator, llvm::cl::Option*>
   fun:_ZN4llvm9StringMapIPNS_2cl6OptionENS_15MallocAllocatorEE11try_emplaceIJS3_EEESt4pairINS_17StringMapIteratorIS3_EEbENS_9StringRefEDpOT_
   fun:insert
   fun:_ZN12_GLOBAL__N_117CommandLineParser9addOptionEPN4llvm2cl6OptionEPNS2_10SubCommandE
   fun:addOption
   fun:_ZN4llvm2cl6Option11addArgumentEv
   fun:done
   fun:opt<char [17], llvm::cl::desc, llvm::cl::initializer<llvm::TailPredication::Mode>, llvm::cl::ValuesClass>
   fun:_Z41__static_initialization_and_destruction_0v
   fun:call_init
   fun:call_init
   fun:_dl_init
   fun:_dl_catch_exception
   fun:dl_open_worker
   fun:_dl_catch_exception
   fun:_dl_open
   fun:dlopen_doit
}
{
   <insert_a_suppression_name_here>
   Memcheck:Leak
   match-leak-kinds: reachable
   fun:_ZnwmSt11align_val_t
   fun:Allocate
   fun:allocateWithKey<llvm::MallocAllocator>
   fun:create<llvm::MallocAllocator, llvm::cl::Option*>
   fun:_ZN4llvm9StringMapIPNS_2cl6OptionENS_15MallocAllocatorEE11try_emplaceIJS3_EEESt4pairINS_17StringMapIteratorIS3_EEbENS_9StringRefEDpOT_
   fun:insert
   fun:_ZN12_GLOBAL__N_117CommandLineParser9addOptionEPN4llvm2cl6OptionEPNS2_10SubCommandE
   fun:addOption
   fun:_ZN4llvm2cl6Option11addArgumentEv
   fun:done
   fun:opt<char [17], llvm::cl::OptionHidden, llvm::cl::desc, llvm::cl::initializer<bool> >
   fun:__static_initialization_and_destruction_0
   fun:_GLOBAL__sub_I_Thumb2InstrInfo.cpp
   fun:call_init
   fun:call_init
   fun:_dl_init
   fun:_dl_catch_exception
   fun:dl_open_worker
   fun:_dl_catch_exception
   fun:_dl_open
   fun:dlopen_doit
}
{
   <insert_a_suppression_name_here>
   Memcheck:Leak
   match-leak-kinds: reachable
   fun:_ZnwmSt11align_val_t
   fun:Allocate
   fun:allocateWithKey<llvm::MallocAllocator>
   fun:create<llvm::MallocAllocator, llvm::cl::Option*>
   fun:_ZN4llvm9StringMapIPNS_2cl6OptionENS_15MallocAllocatorEE11try_emplaceIJS3_EEESt4pairINS_17StringMapIteratorIS3_EEbENS_9StringRefEDpOT_
   fun:insert
   fun:_ZN12_GLOBAL__N_117CommandLineParser9addOptionEPN4llvm2cl6OptionEPNS2_10SubCommandE
   fun:addOption
   fun:_ZN4llvm2cl6Option11addArgumentEv
   fun:__static_initialization_and_destruction_0
   fun:_GLOBAL__sub_I_Thumb2SizeReduction.cpp
   fun:call_init
   fun:call_init
   fun:_dl_init
   fun:_dl_catch_exception
   fun:dl_open_worker
   fun:_dl_catch_exception
   fun:_dl_open
   fun:dlopen_doit
}
{
   <insert_a_suppression_name_here>
   Memcheck:Leak
   match-leak-kinds: reachable
   fun:_ZnwmSt11align_val_t
   fun:Allocate
   fun:allocateWithKey<llvm::MallocAllocator>
   fun:create<llvm::MallocAllocator, llvm::cl::Option*>
   fun:_ZN4llvm9StringMapIPNS_2cl6OptionENS_15MallocAllocatorEE11try_emplaceIJS3_EEESt4pairINS_17StringMapIteratorIS3_EEbENS_9StringRefEDpOT_
   fun:insert
   fun:_ZN12_GLOBAL__N_117CommandLineParser9addOptionEPN4llvm2cl6OptionEPNS2_10SubCommandE
   fun:addOption
   fun:_ZN4llvm2cl6Option11addArgumentEv
   fun:done
   fun:opt<char [17], llvm::cl::OptionHidden, llvm::cl::initializer<bool>, llvm::cl::desc>
   fun:__static_initialization_and_destruction_0
   fun:_GLOBAL__sub_I_BPFSubtarget.cpp
   fun:call_init
   fun:call_init
   fun:_dl_init
   fun:_dl_catch_exception
   fun:dl_open_worker
   fun:_dl_catch_exception
   fun:_dl_open
   fun:dlopen_doit
}
{
   <insert_a_suppression_name_here>
   Memcheck:Leak
   match-leak-kinds: reachable
   fun:_ZnwmSt11align_val_t
   fun:Allocate
   fun:allocateWithKey<llvm::MallocAllocator>
   fun:create<llvm::MallocAllocator, llvm::cl::Option*>
   fun:_ZN4llvm9StringMapIPNS_2cl6OptionENS_15MallocAllocatorEE11try_emplaceIJS3_EEESt4pairINS_17StringMapIteratorIS3_EEbENS_9StringRefEDpOT_
   fun:insert
   fun:_ZN12_GLOBAL__N_117CommandLineParser9addOptionEPN4llvm2cl6OptionEPNS2_10SubCommandE
   fun:addOption
   fun:_ZN4llvm2cl6Option11addArgumentEv
   fun:done
   fun:opt<char [17], llvm::cl::OptionHidden, llvm::cl::initializer<bool>, llvm::cl::desc>
   fun:__static_initialization_and_destruction_0
   fun:_GLOBAL__sub_I_HexagonBitSimplify.cpp
   fun:call_init
   fun:call_init
   fun:_dl_init
   fun:_dl_catch_exception
   fun:dl_open_worker
   fun:_dl_catch_exception
   fun:_dl_open
   fun:dlopen_doit
}
{
   <insert_a_suppression_name_here>
   Memcheck:Leak
   match-leak-kinds: reachable
   fun:_ZnwmSt11align_val_t
   fun:Allocate
   fun:allocateWithKey<llvm::MallocAllocator>
   fun:create<llvm::MallocAllocator, llvm::cl::Option*>
   fun:_ZN4llvm9StringMapIPNS_2cl6OptionENS_15MallocAllocatorEE11try_emplaceIJS3_EEESt4pairINS_17StringMapIteratorIS3_EEbENS_9StringRefEDpOT_
   fun:insert
   fun:_ZN12_GLOBAL__N_117CommandLineParser9addOptionEPN4llvm2cl6OptionEPNS2_10SubCommandE
   fun:addOption
   fun:_ZN4llvm2cl6Option11addArgumentEv
   fun:done
   fun:opt<char [17], llvm::cl::initializer<bool>, llvm::cl::OptionHidden, llvm::cl::desc>
   fun:__static_initialization_and_destruction_0
   fun:_GLOBAL__sub_I_HexagonEarlyIfConv.cpp
   fun:call_init
   fun:call_init
   fun:_dl_init
   fun:_dl_catch_exception
   fun:dl_open_worker
   fun:_dl_catch_exception
   fun:_dl_open
   fun:dlopen_doit
}
{
   <insert_a_suppression_name_here>
   Memcheck:Leak
   match-leak-kinds: reachable
   fun:_ZnwmSt11align_val_t
   fun:Allocate
   fun:allocateWithKey<llvm::MallocAllocator>
   fun:create<llvm::MallocAllocator, llvm::cl::Option*>
   fun:_ZN4llvm9StringMapIPNS_2cl6OptionENS_15MallocAllocatorEE11try_emplaceIJS3_EEESt4pairINS_17StringMapIteratorIS3_EEbENS_9StringRefEDpOT_
   fun:insert
   fun:_ZN12_GLOBAL__N_117CommandLineParser9addOptionEPN4llvm2cl6OptionEPNS2_10SubCommandE
   fun:addOption
   fun:_ZN4llvm2cl6Option11addArgumentEv
   fun:done
   fun:opt<char [17], llvm::cl::initializer<int>, llvm::cl::OptionHidden, llvm::cl::desc>
   fun:__static_initialization_and_destruction_0
   fun:_GLOBAL__sub_I_HexagonGenInsert.cpp
   fun:call_init
   fun:call_init
   fun:_dl_init
   fun:_dl_catch_exception
   fun:dl_open_worker
   fun:_dl_catch_exception
   fun:_dl_open
   fun:dlopen_doit
}
{
   <insert_a_suppression_name_here>
   Memcheck:Leak
   match-leak-kinds: reachable
   fun:_ZnwmSt11align_val_t
   fun:Allocate
   fun:allocateWithKey<llvm::MallocAllocator>
   fun:create<llvm::MallocAllocator, llvm::cl::Option*>
   fun:_ZN4llvm9StringMapIPNS_2cl6OptionENS_15MallocAllocatorEE11try_emplaceIJS3_EEESt4pairINS_17StringMapIteratorIS3_EEbENS_9StringRefEDpOT_
   fun:insert
   fun:_ZN12_GLOBAL__N_117CommandLineParser9addOptionEPN4llvm2cl6OptionEPNS2_10SubCommandE
   fun:addOption
   fun:_ZN4llvm2cl6Option11addArgumentEv
   fun:done
   fun:opt<char [17], llvm::cl::OptionHidden>
   fun:__static_initialization_and_destruction_0
   fun:_GLOBAL__sub_I_HexagonRDFOpt.cpp
   fun:call_init
   fun:call_init
   fun:_dl_init
   fun:_dl_catch_exception
   fun:dl_open_worker
   fun:_dl_catch_exception
   fun:_dl_open
   fun:dlopen_doit
}
{
   <insert_a_suppression_name_here>
   Memcheck:Leak
   match-leak-kinds: reachable
   fun:_ZnwmSt11align_val_t
   fun:Allocate
   fun:allocateWithKey<llvm::MallocAllocator>
   fun:create<llvm::MallocAllocator, llvm::cl::Option*>
   fun:_ZN4llvm9StringMapIPNS_2cl6OptionENS_15MallocAllocatorEE11try_emplaceIJS3_EEESt4pairINS_17StringMapIteratorIS3_EEbENS_9StringRefEDpOT_
   fun:insert
   fun:_ZN12_GLOBAL__N_117CommandLineParser9addOptionEPN4llvm2cl6OptionEPNS2_10SubCommandE
   fun:addOption
   fun:_ZN4llvm2cl6Option11addArgumentEv
   fun:done
   fun:opt<char [17], llvm::cl::OptionHidden, llvm::cl::initializer<bool> >
   fun:__static_initialization_and_destruction_0
   fun:_GLOBAL__sub_I_HexagonSubtarget.cpp
   fun:call_init
   fun:call_init
   fun:_dl_init
   fun:_dl_catch_exception
   fun:dl_open_worker
   fun:_dl_catch_exception
   fun:_dl_open
   fun:dlopen_doit
}
{
   <insert_a_suppression_name_here>
   Memcheck:Leak
   match-leak-kinds: reachable
   fun:_ZnwmSt11align_val_t
   fun:Allocate
   fun:allocateWithKey<llvm::MallocAllocator>
   fun:create<llvm::MallocAllocator, llvm::cl::Option*>
   fun:_ZN4llvm9StringMapIPNS_2cl6OptionENS_15MallocAllocatorEE11try_emplaceIJS3_EEESt4pairINS_17StringMapIteratorIS3_EEbENS_9StringRefEDpOT_
   fun:insert
   fun:_ZN12_GLOBAL__N_117CommandLineParser9addOptionEPN4llvm2cl6OptionEPNS2_10SubCommandE
   fun:addOption
   fun:_ZN4llvm2cl6Option11addArgumentEv
   fun:done
   fun:opt<char [17], llvm::cl::OptionHidden, llvm::cl::initializer<bool>, llvm::cl::desc>
   fun:__static_initialization_and_destruction_0
   fun:_GLOBAL__sub_I_HexagonSubtarget.cpp
   fun:call_init
   fun:call_init
   fun:_dl_init
   fun:_dl_catch_exception
   fun:dl_open_worker
   fun:_dl_catch_exception
   fun:_dl_open
   fun:dlopen_doit
}
{
   <insert_a_suppression_name_here>
   Memcheck:Leak
   match-leak-kinds: reachable
   fun:_ZnwmSt11align_val_t
   fun:Allocate
   fun:allocateWithKey<llvm::MallocAllocator>
   fun:create<llvm::MallocAllocator, llvm::cl::Option*>
   fun:_ZN4llvm9StringMapIPNS_2cl6OptionENS_15MallocAllocatorEE11try_emplaceIJS3_EEESt4pairINS_17StringMapIteratorIS3_EEbENS_9StringRefEDpOT_
   fun:insert
   fun:_ZN12_GLOBAL__N_117CommandLineParser9addOptionEPN4llvm2cl6OptionEPNS2_10SubCommandE
   fun:addOption
   fun:_ZN4llvm2cl6Option11addArgumentEv
   fun:done
   fun:opt<char [17], llvm::cl::initializer<bool>, llvm::cl::desc, llvm::cl::OptionHidden>
   fun:__static_initialization_and_destruction_0
   fun:_GLOBAL__sub_I_MipsSubtarget.cpp
   fun:call_init
   fun:call_init
   fun:_dl_init
   fun:_dl_catch_exception
   fun:dl_open_worker
   fun:_dl_catch_exception
   fun:_dl_open
   fun:dlopen_doit
}
{
   <insert_a_suppression_name_here>
   Memcheck:Leak
   match-leak-kinds: reachable
   fun:_ZnwmSt11align_val_t
   fun:Allocate
   fun:allocateWithKey<llvm::MallocAllocator>
   fun:create<llvm::MallocAllocator, llvm::cl::Option*>
   fun:_ZN4llvm9StringMapIPNS_2cl6OptionENS_15MallocAllocatorEE11try_emplaceIJS3_EEESt4pairINS_17StringMapIteratorIS3_EEbENS_9StringRefEDpOT_
   fun:insert
   fun:_ZN12_GLOBAL__N_117CommandLineParser9addOptionEPN4llvm2cl6OptionEPNS2_10SubCommandE
   fun:addOption
   fun:_ZN4llvm2cl6Option11addArgumentEv
   fun:done
   fun:opt<char [17], llvm::cl::desc, llvm::cl::initializer<bool>, llvm::cl::OptionHidden>
   fun:__static_initialization_and_destruction_0
   fun:_GLOBAL__sub_I_RISCVInstPrinter.cpp
   fun:call_init
   fun:call_init
   fun:_dl_init
   fun:_dl_catch_exception
   fun:dl_open_worker
   fun:_dl_catch_exception
   fun:_dl_open
   fun:dlopen_doit
}
{
   <insert_a_suppression_name_here>
   Memcheck:Leak
   match-leak-kinds: reachable
   fun:_ZnwmSt11align_val_t
   fun:Allocate
   fun:allocateWithKey<llvm::MallocAllocator>
   fun:create<llvm::MallocAllocator, llvm::cl::Option*>
   fun:_ZN4llvm9StringMapIPNS_2cl6OptionENS_15MallocAllocatorEE11try_emplaceIJS3_EEESt4pairINS_17StringMapIteratorIS3_EEbENS_9StringRefEDpOT_
   fun:insert
   fun:_ZN12_GLOBAL__N_117CommandLineParser9addOptionEPN4llvm2cl6OptionEPNS2_10SubCommandE
   fun:addOption
   fun:_ZN4llvm2cl6Option11addArgumentEv
   fun:done
   fun:opt<char [17], llvm::cl::OptionHidden, llvm::cl::desc, llvm::cl::initializer<int> >
   fun:__static_initialization_and_destruction_0
   fun:_GLOBAL__sub_I_SystemZHazardRecognizer.cpp
   fun:call_init
   fun:call_init
   fun:_dl_init
   fun:_dl_catch_exception
   fun:dl_open_worker
   fun:_dl_catch_exception
   fun:_dl_open
   fun:dlopen_doit
}
{
   <insert_a_suppression_name_here>
   Memcheck:Leak
   match-leak-kinds: reachable
   fun:_ZnwmSt11align_val_t
   fun:Allocate
   fun:allocateWithKey<llvm::MallocAllocator>
   fun:create<llvm::MallocAllocator, llvm::cl::Option*>
   fun:_ZN4llvm9StringMapIPNS_2cl6OptionENS_15MallocAllocatorEE11try_emplaceIJS3_EEESt4pairINS_17StringMapIteratorIS3_EEbENS_9StringRefEDpOT_
   fun:insert
   fun:_ZN12_GLOBAL__N_117CommandLineParser9addOptionEPN4llvm2cl6OptionEPNS2_10SubCommandE
   fun:addOption
   fun:_ZN4llvm2cl6Option11addArgumentEv
   fun:done
   fun:opt<char [17], llvm::cl::desc>
   fun:__static_initialization_and_destruction_0
   fun:_GLOBAL__sub_I_WebAssemblyMCTargetDesc.cpp
   fun:call_init
   fun:call_init
   fun:_dl_init
   fun:_dl_catch_exception
   fun:dl_open_worker
   fun:_dl_catch_exception
   fun:_dl_open
   fun:dlopen_doit
}
{
   <insert_a_suppression_name_here>
   Memcheck:Leak
   match-leak-kinds: reachable
   fun:_ZnwmSt11align_val_t
   fun:Allocate
   fun:allocateWithKey<llvm::MallocAllocator>
   fun:create<llvm::MallocAllocator, llvm::cl::Option*>
   fun:_ZN4llvm9StringMapIPNS_2cl6OptionENS_15MallocAllocatorEE11try_emplaceIJS3_EEESt4pairINS_17StringMapIteratorIS3_EEbENS_9StringRefEDpOT_
   fun:insert
   fun:_ZN12_GLOBAL__N_117CommandLineParser9addOptionEPN4llvm2cl6OptionEPNS2_10SubCommandE
   fun:addOption
   fun:_ZN4llvm2cl6Option11addArgumentEv
   fun:done
   fun:opt<char [17], llvm::cl::desc, llvm::cl::initializer<bool>, llvm::cl::OptionHidden>
   fun:__static_initialization_and_destruction_0
   fun:_GLOBAL__sub_I_X86LoadValueInjectionLoadHardening.cpp
   fun:call_init
   fun:call_init
   fun:_dl_init
   fun:_dl_catch_exception
   fun:dl_open_worker
   fun:_dl_catch_exception
   fun:_dl_open
   fun:dlopen_doit
}
{
   <insert_a_suppression_name_here>
   Memcheck:Leak
   match-leak-kinds: reachable
   fun:_ZnwmSt11align_val_t
   fun:Allocate
   fun:allocateWithKey<llvm::MallocAllocator>
   fun:create<llvm::MallocAllocator, llvm::cl::Option*>
   fun:_ZN4llvm9StringMapIPNS_2cl6OptionENS_15MallocAllocatorEE11try_emplaceIJS3_EEESt4pairINS_17StringMapIteratorIS3_EEbENS_9StringRefEDpOT_
   fun:insert
   fun:_ZN12_GLOBAL__N_117CommandLineParser9addOptionEPN4llvm2cl6OptionEPNS2_10SubCommandE
   fun:addOption
   fun:_ZN4llvm2cl6Option11addArgumentEv
   fun:done
   fun:opt<char [17], llvm::cl::desc, llvm::cl::initializer<bool>, llvm::cl::OptionHidden>
   fun:__static_initialization_and_destruction_0
   fun:_GLOBAL__sub_I_X86SpeculativeLoadHardening.cpp
   fun:call_init
   fun:call_init
   fun:_dl_init
   fun:_dl_catch_exception
   fun:dl_open_worker
   fun:_dl_catch_exception
   fun:_dl_open
   fun:dlopen_doit
}
{
   <insert_a_suppression_name_here>
   Memcheck:Leak
   match-leak-kinds: reachable
   fun:_ZnwmSt11align_val_t
   fun:Allocate
   fun:allocateWithKey<llvm::MallocAllocator>
   fun:create<llvm::MallocAllocator, llvm::cl::Option*>
   fun:_ZN4llvm9StringMapIPNS_2cl6OptionENS_15MallocAllocatorEE11try_emplaceIJS3_EEESt4pairINS_17StringMapIteratorIS3_EEbENS_9StringRefEDpOT_
   fun:insert
   fun:_ZN12_GLOBAL__N_117CommandLineParser9addOptionEPN4llvm2cl6OptionEPNS2_10SubCommandE
   fun:addOption
   fun:_ZN4llvm2cl6Option11addArgumentEv
   fun:done
   fun:opt<char [17], llvm::cl::desc, llvm::cl::LocationClass<(anonymous namespace)::X86AlignBranchKind> >
   fun:__static_initialization_and_destruction_0
   fun:_GLOBAL__sub_I_X86AsmBackend.cpp
   fun:call_init
   fun:call_init
   fun:_dl_init
   fun:_dl_catch_exception
   fun:dl_open_worker
   fun:_dl_catch_exception
   fun:_dl_open
   fun:dlopen_doit
}
{
   <insert_a_suppression_name_here>
   Memcheck:Leak
   match-leak-kinds: reachable
   fun:_ZnwmSt11align_val_t
   fun:Allocate
   fun:allocateWithKey<llvm::MallocAllocator>
   fun:create<llvm::MallocAllocator, llvm::cl::Option*>
   fun:_ZN4llvm9StringMapIPNS_2cl6OptionENS_15MallocAllocatorEE11try_emplaceIJS3_EEESt4pairINS_17StringMapIteratorIS3_EEbENS_9StringRefEDpOT_
   fun:insert
   fun:_ZN12_GLOBAL__N_117CommandLineParser9addOptionEPN4llvm2cl6OptionEPNS2_10SubCommandE
   fun:addOption
   fun:_ZN4llvm2cl6Option11addArgumentEv
   fun:done
   fun:opt<char [17], llvm::cl::value_desc, llvm::cl::desc, llvm::cl::OptionHidden, llvm::cl::LocationClass<std::__cxx11::basic_string<char, std::char_traits<char>, std::allocator<char> > > >
   fun:_ZN12_GLOBAL__N_124CreateInfoOutputFilename4callEv
   fun:_ZNK4llvm17ManagedStaticBase21RegisterManagedStaticEPFPvvEPFvS1_E
   fun:operator*
   fun:_ZN4llvm16initTimerOptionsEv
   fun:initCommonOptions
   fun:_ZN4llvm2cl23ParseCommandLineOptionsEiPKPKcNS_9StringRefEPNS_11raw_ostreamES2_b
   fun:LLVMParseCommandLineOptions
   fun:ac_init_llvm_target
   fun:__pthread_once_slow.isra.0
   fun:pthread_once@@GLIBC_2.34
}
{
   <insert_a_suppression_name_here>
   Memcheck:Leak
   match-leak-kinds: reachable
   fun:_ZnwmSt11align_val_t
   fun:Allocate
   fun:allocateWithKey<llvm::MallocAllocator>
   fun:create<llvm::MallocAllocator, llvm::cl::Option*>
   fun:_ZN4llvm9StringMapIPNS_2cl6OptionENS_15MallocAllocatorEE11try_emplaceIJS3_EEESt4pairINS_17StringMapIteratorIS3_EEbENS_9StringRefEDpOT_
   fun:insert
   fun:_ZN12_GLOBAL__N_117CommandLineParser9addOptionEPN4llvm2cl6OptionEPNS2_10SubCommandE
   fun:addOption
   fun:_ZN4llvm2cl6Option11addArgumentEv
   fun:done
   fun:opt<char [18], llvm::cl::initializer<bool>, llvm::cl::OptionHidden>
   fun:__static_initialization_and_destruction_0
   fun:_GLOBAL__sub_I_AssignmentTrackingAnalysis.cpp
   fun:call_init
   fun:call_init
   fun:_dl_init
   fun:_dl_catch_exception
   fun:dl_open_worker
   fun:_dl_catch_exception
   fun:_dl_open
   fun:dlopen_doit
}
{
   <insert_a_suppression_name_here>
   Memcheck:Leak
   match-leak-kinds: reachable
   fun:_ZnwmSt11align_val_t
   fun:Allocate
   fun:allocateWithKey<llvm::MallocAllocator>
   fun:create<llvm::MallocAllocator, llvm::cl::Option*>
   fun:_ZN4llvm9StringMapIPNS_2cl6OptionENS_15MallocAllocatorEE11try_emplaceIJS3_EEESt4pairINS_17StringMapIteratorIS3_EEbENS_9StringRefEDpOT_
   fun:insert
   fun:_ZN12_GLOBAL__N_117CommandLineParser9addOptionEPN4llvm2cl6OptionEPNS2_10SubCommandE
   fun:addOption
   fun:_ZN4llvm2cl6Option11addArgumentEv
   fun:done
   fun:opt<char [18], llvm::cl::initializer<llvm::cl::boolOrDefault>, llvm::cl::OptionHidden>
   fun:__static_initialization_and_destruction_0
   fun:_GLOBAL__sub_I_BranchFolding.cpp
   fun:call_init
   fun:call_init
   fun:_dl_init
   fun:_dl_catch_exception
   fun:dl_open_worker
   fun:_dl_catch_exception
   fun:_dl_open
   fun:dlopen_doit
}
{
   <insert_a_suppression_name_here>
   Memcheck:Leak
   match-leak-kinds: reachable
   fun:_ZnwmSt11align_val_t
   fun:Allocate
   fun:allocateWithKey<llvm::MallocAllocator>
   fun:create<llvm::MallocAllocator, llvm::cl::Option*>
   fun:_ZN4llvm9StringMapIPNS_2cl6OptionENS_15MallocAllocatorEE11try_emplaceIJS3_EEESt4pairINS_17StringMapIteratorIS3_EEbENS_9StringRefEDpOT_
   fun:insert
   fun:_ZN12_GLOBAL__N_117CommandLineParser9addOptionEPN4llvm2cl6OptionEPNS2_10SubCommandE
   fun:addOption
   fun:_ZN4llvm2cl6Option11addArgumentEv
   fun:done
   fun:opt<char [18], llvm::cl::OptionHidden, llvm::cl::initializer<bool>, llvm::cl::desc>
   fun:_Z41__static_initialization_and_destruction_0v
   fun:call_init
   fun:call_init
   fun:_dl_init
   fun:_dl_catch_exception
   fun:dl_open_worker
   fun:_dl_catch_exception
   fun:_dl_open
   fun:dlopen_doit
}
{
   <insert_a_suppression_name_here>
   Memcheck:Leak
   match-leak-kinds: reachable
   fun:_ZnwmSt11align_val_t
   fun:Allocate
   fun:allocateWithKey<llvm::MallocAllocator>
   fun:create<llvm::MallocAllocator, llvm::cl::Option*>
   fun:_ZN4llvm9StringMapIPNS_2cl6OptionENS_15MallocAllocatorEE11try_emplaceIJS3_EEESt4pairINS_17StringMapIteratorIS3_EEbENS_9StringRefEDpOT_
   fun:insert
   fun:_ZN12_GLOBAL__N_117CommandLineParser9addOptionEPN4llvm2cl6OptionEPNS2_10SubCommandE
   fun:addOption
   fun:_ZN4llvm2cl6Option11addArgumentEv
   fun:done
   fun:opt<char [18], llvm::cl::initializer<int>, llvm::cl::OptionHidden, llvm::cl::desc>
   fun:__static_initialization_and_destruction_0
   fun:_GLOBAL__sub_I_EarlyIfConversion.cpp
   fun:call_init
   fun:call_init
   fun:_dl_init
   fun:_dl_catch_exception
   fun:dl_open_worker
   fun:_dl_catch_exception
   fun:_dl_open
   fun:dlopen_doit
}
{
   <insert_a_suppression_name_here>
   Memcheck:Leak
   match-leak-kinds: reachable
   fun:_ZnwmSt11align_val_t
   fun:Allocate
   fun:allocateWithKey<llvm::MallocAllocator>
   fun:create<llvm::MallocAllocator, llvm::cl::Option*>
   fun:_ZN4llvm9StringMapIPNS_2cl6OptionENS_15MallocAllocatorEE11try_emplaceIJS3_EEESt4pairINS_17StringMapIteratorIS3_EEbENS_9StringRefEDpOT_
   fun:insert
   fun:_ZN12_GLOBAL__N_117CommandLineParser9addOptionEPN4llvm2cl6OptionEPNS2_10SubCommandE
   fun:addOption
   fun:_ZN4llvm2cl6Option11addArgumentEv
   fun:done
   fun:opt<char [18], llvm::cl::OptionHidden, llvm::cl::desc>
   fun:__static_initialization_and_destruction_0
   fun:_GLOBAL__sub_I_EdgeBundles.cpp
   fun:call_init
   fun:call_init
   fun:_dl_init
   fun:_dl_catch_exception
   fun:dl_open_worker
   fun:_dl_catch_exception
   fun:_dl_open
   fun:dlopen_doit
}
{
   <insert_a_suppression_name_here>
   Memcheck:Leak
   match-leak-kinds: reachable
   fun:_ZnwmSt11align_val_t
   fun:Allocate
   fun:allocateWithKey<llvm::MallocAllocator>
   fun:create<llvm::MallocAllocator, llvm::cl::Option*>
   fun:_ZN4llvm9StringMapIPNS_2cl6OptionENS_15MallocAllocatorEE11try_emplaceIJS3_EEESt4pairINS_17StringMapIteratorIS3_EEbENS_9StringRefEDpOT_
   fun:insert
   fun:_ZN12_GLOBAL__N_117CommandLineParser9addOptionEPN4llvm2cl6OptionEPNS2_10SubCommandE
   fun:addOption
   fun:_ZN4llvm2cl6Option11addArgumentEv
   fun:done
   fun:opt<char [18], llvm::cl::initializer<bool>, llvm::cl::OptionHidden>
   fun:__static_initialization_and_destruction_0
   fun:_GLOBAL__sub_I_IfConversion.cpp
   fun:call_init
   fun:call_init
   fun:_dl_init
   fun:_dl_catch_exception
   fun:dl_open_worker
   fun:_dl_catch_exception
   fun:_dl_open
   fun:dlopen_doit
}
{
   <insert_a_suppression_name_here>
   Memcheck:Leak
   match-leak-kinds: reachable
   fun:_ZnwmSt11align_val_t
   fun:Allocate
   fun:allocateWithKey<llvm::MallocAllocator>
   fun:create<llvm::MallocAllocator, llvm::cl::Option*>
   fun:_ZN4llvm9StringMapIPNS_2cl6OptionENS_15MallocAllocatorEE11try_emplaceIJS3_EEESt4pairINS_17StringMapIteratorIS3_EEbENS_9StringRefEDpOT_
   fun:insert
   fun:_ZN12_GLOBAL__N_117CommandLineParser9addOptionEPN4llvm2cl6OptionEPNS2_10SubCommandE
   fun:addOption
   fun:_ZN4llvm2cl6Option11addArgumentEv
   fun:done
   fun:opt<char [18], llvm::cl::desc, llvm::cl::initializer<bool>, llvm::cl::OptionHidden>
   fun:__static_initialization_and_destruction_0
   fun:_GLOBAL__sub_I_MachineBasicBlock.cpp
   fun:call_init
   fun:call_init
   fun:_dl_init
   fun:_dl_catch_exception
   fun:dl_open_worker
   fun:_dl_catch_exception
   fun:_dl_open
   fun:dlopen_doit
}
{
   <insert_a_suppression_name_here>
   Memcheck:Leak
   match-leak-kinds: reachable
   fun:_ZnwmSt11align_val_t
   fun:Allocate
   fun:allocateWithKey<llvm::MallocAllocator>
   fun:create<llvm::MallocAllocator, llvm::cl::Option*>
   fun:_ZN4llvm9StringMapIPNS_2cl6OptionENS_15MallocAllocatorEE11try_emplaceIJS3_EEESt4pairINS_17StringMapIteratorIS3_EEbENS_9StringRefEDpOT_
   fun:insert
   fun:_ZN12_GLOBAL__N_117CommandLineParser9addOptionEPN4llvm2cl6OptionEPNS2_10SubCommandE
   fun:addOption
   fun:_ZN4llvm2cl6Option11addArgumentEv
   fun:done
   fun:opt<char [18], llvm::cl::initializer<bool>, llvm::cl::OptionHidden, llvm::cl::desc>
   fun:_Z41__static_initialization_and_destruction_0v
   fun:call_init
   fun:call_init
   fun:_dl_init
   fun:_dl_catch_exception
   fun:dl_open_worker
   fun:_dl_catch_exception
   fun:_dl_open
   fun:dlopen_doit
}
{
   <insert_a_suppression_name_here>
   Memcheck:Leak
   match-leak-kinds: reachable
   fun:_ZnwmSt11align_val_t
   fun:Allocate
   fun:allocateWithKey<llvm::MallocAllocator>
   fun:create<llvm::MallocAllocator, llvm::cl::Option*>
   fun:_ZN4llvm9StringMapIPNS_2cl6OptionENS_15MallocAllocatorEE11try_emplaceIJS3_EEESt4pairINS_17StringMapIteratorIS3_EEbENS_9StringRefEDpOT_
   fun:insert
   fun:_ZN12_GLOBAL__N_117CommandLineParser9addOptionEPN4llvm2cl6OptionEPNS2_10SubCommandE
   fun:addOption
   fun:_ZN4llvm2cl6Option11addArgumentEv
   fun:done
   fun:opt<char [18], llvm::cl::desc, llvm::cl::OptionHidden, llvm::cl::initializer<int> >
   fun:_Z41__static_initialization_and_destruction_0v
   fun:call_init
   fun:call_init
   fun:_dl_init
   fun:_dl_catch_exception
   fun:dl_open_worker
   fun:_dl_catch_exception
   fun:_dl_open
   fun:dlopen_doit
}
{
   <insert_a_suppression_name_here>
   Memcheck:Leak
   match-leak-kinds: reachable
   fun:_ZnwmSt11align_val_t
   fun:Allocate
   fun:allocateWithKey<llvm::MallocAllocator>
   fun:create<llvm::MallocAllocator, llvm::cl::Option*>
   fun:_ZN4llvm9StringMapIPNS_2cl6OptionENS_15MallocAllocatorEE11try_emplaceIJS3_EEESt4pairINS_17StringMapIteratorIS3_EEbENS_9StringRefEDpOT_
   fun:insert
   fun:_ZN12_GLOBAL__N_117CommandLineParser9addOptionEPN4llvm2cl6OptionEPNS2_10SubCommandE
   fun:addOption
   fun:_ZN4llvm2cl6Option11addArgumentEv
   fun:done
   fun:opt<char [18], llvm::cl::OptionHidden, llvm::cl::initializer<bool> >
   fun:_Z41__static_initialization_and_destruction_0v
   fun:call_init
   fun:call_init
   fun:_dl_init
   fun:_dl_catch_exception
   fun:dl_open_worker
   fun:_dl_catch_exception
   fun:_dl_open
   fun:dlopen_doit
}
{
   <insert_a_suppression_name_here>
   Memcheck:Leak
   match-leak-kinds: reachable
   fun:_ZnwmSt11align_val_t
   fun:Allocate
   fun:allocateWithKey<llvm::MallocAllocator>
   fun:create<llvm::MallocAllocator, llvm::cl::Option*>
   fun:_ZN4llvm9StringMapIPNS_2cl6OptionENS_15MallocAllocatorEE11try_emplaceIJS3_EEESt4pairINS_17StringMapIteratorIS3_EEbENS_9StringRefEDpOT_
   fun:insert
   fun:_ZN12_GLOBAL__N_117CommandLineParser9addOptionEPN4llvm2cl6OptionEPNS2_10SubCommandE
   fun:addOption
   fun:_ZN4llvm2cl6Option11addArgumentEv
   fun:done
   fun:opt<char [18], llvm::cl::OptionHidden, llvm::cl::initializer<bool>, llvm::cl::desc>
   fun:__static_initialization_and_destruction_0
   fun:_GLOBAL__sub_I_MIRSampleProfile.cpp
   fun:call_init
   fun:call_init
   fun:_dl_init
   fun:_dl_catch_exception
   fun:dl_open_worker
   fun:_dl_catch_exception
   fun:_dl_open
   fun:dlopen_doit
}
{
   <insert_a_suppression_name_here>
   Memcheck:Leak
   match-leak-kinds: reachable
   fun:_ZnwmSt11align_val_t
   fun:Allocate
   fun:allocateWithKey<llvm::MallocAllocator>
   fun:create<llvm::MallocAllocator, llvm::cl::Option*>
   fun:_ZN4llvm9StringMapIPNS_2cl6OptionENS_15MallocAllocatorEE11try_emplaceIJS3_EEESt4pairINS_17StringMapIteratorIS3_EEbENS_9StringRefEDpOT_
   fun:insert
   fun:_ZN12_GLOBAL__N_117CommandLineParser9addOptionEPN4llvm2cl6OptionEPNS2_10SubCommandE
   fun:addOption
   fun:_ZN4llvm2cl6Option11addArgumentEv
   fun:done
   fun:opt<char [18], llvm::cl::OptionHidden, llvm::cl::initializer<int>, llvm::cl::desc>
   fun:__static_initialization_and_destruction_0
   fun:_GLOBAL__sub_I_PeepholeOptimizer.cpp
   fun:call_init
   fun:call_init
   fun:_dl_init
   fun:_dl_catch_exception
   fun:dl_open_worker
   fun:_dl_catch_exception
   fun:_dl_open
   fun:dlopen_doit
}
{
   <insert_a_suppression_name_here>
   Memcheck:Leak
   match-leak-kinds: reachable
   fun:_ZnwmSt11align_val_t
   fun:Allocate
   fun:allocateWithKey<llvm::MallocAllocator>
   fun:create<llvm::MallocAllocator, llvm::cl::Option*>
   fun:_ZN4llvm9StringMapIPNS_2cl6OptionENS_15MallocAllocatorEE11try_emplaceIJS3_EEESt4pairINS_17StringMapIteratorIS3_EEbENS_9StringRefEDpOT_
   fun:insert
   fun:_ZN12_GLOBAL__N_117CommandLineParser9addOptionEPN4llvm2cl6OptionEPNS2_10SubCommandE
   fun:addOption
   fun:_ZN4llvm2cl6Option11addArgumentEv
   fun:done
   fun:opt<char [18], llvm::cl::desc, llvm::cl::initializer<bool>, llvm::cl::OptionHidden>
   fun:__static_initialization_and_destruction_0
   fun:_GLOBAL__sub_I_PostRASchedulerList.cpp
   fun:call_init
   fun:call_init
   fun:_dl_init
   fun:_dl_catch_exception
   fun:dl_open_worker
   fun:_dl_catch_exception
   fun:_dl_open
   fun:dlopen_doit
}
{
   <insert_a_suppression_name_here>
   Memcheck:Leak
   match-leak-kinds: reachable
   fun:_ZnwmSt11align_val_t
   fun:Allocate
   fun:allocateWithKey<llvm::MallocAllocator>
   fun:create<llvm::MallocAllocator, llvm::cl::Option*>
   fun:_ZN4llvm9StringMapIPNS_2cl6OptionENS_15MallocAllocatorEE11try_emplaceIJS3_EEESt4pairINS_17StringMapIteratorIS3_EEbENS_9StringRefEDpOT_
   fun:insert
